# SymbolsHelper-Confirmed: 5.19.5 amd64
libKScreenLocker.so.5 libkscreenlocker5 #MINVER#
* Build-Depends-Package: kscreenlocker-dev
 _ZN12ScreenLocker7KSldApp10initializeEv@Base 5.19.5
 _ZN12ScreenLocker7KSldApp11aboutToLockEv@Base 5.19.5
 _ZN12ScreenLocker7KSldApp11qt_metacallEN11QMetaObject4CallEiPPv@Base 5.19.5
 _ZN12ScreenLocker7KSldApp11qt_metacastEPKc@Base 5.19.5
 _ZN12ScreenLocker7KSldApp12endGraceTimeEv@Base 5.19.5
 _ZN12ScreenLocker7KSldApp12setWaylandFdEi@Base 5.19.5
 _ZN12ScreenLocker7KSldApp12solidSuspendEv@Base 5.19.5
 _ZN12ScreenLocker7KSldApp12userActivityEv@Base 5.19.5
 _ZN12ScreenLocker7KSldApp13establishGrabEv@Base 5.19.5
 _ZN12ScreenLocker7KSldApp13initializeX11Ev@Base 5.19.5
 _ZN12ScreenLocker7KSldApp14hideLockWindowEv@Base 5.19.5
 _ZN12ScreenLocker7KSldApp14showLockWindowEv@Base 5.19.5
 _ZN12ScreenLocker7KSldApp15lockScreenShownEv@Base 5.19.5
 _ZN12ScreenLocker7KSldApp16lockStateChangedEv@Base 5.19.5
 _ZN12ScreenLocker7KSldApp16startLockProcessENS_13EstablishLockE@Base 5.19.5
 _ZN12ScreenLocker7KSldApp16staticMetaObjectE@Base 5.19.5
 _ZN12ScreenLocker7KSldApp21setGreeterEnvironmentERK19QProcessEnvironment@Base 5.19.5
 _ZN12ScreenLocker7KSldApp4lockENS_13EstablishLockEi@Base 5.19.5
 _ZN12ScreenLocker7KSldApp4selfEv@Base 5.19.5
 _ZN12ScreenLocker7KSldApp5eventEP6QEvent@Base 5.19.5
 _ZN12ScreenLocker7KSldApp6lockedEv@Base 5.19.5
 _ZN12ScreenLocker7KSldApp6unlockEv@Base 5.19.5
 _ZN12ScreenLocker7KSldApp7cleanUpEv@Base 5.19.5
 _ZN12ScreenLocker7KSldApp7inhibitEv@Base 5.19.5
 _ZN12ScreenLocker7KSldApp8doUnlockEv@Base 5.19.5
 _ZN12ScreenLocker7KSldApp8unlockedEv@Base 5.19.5
 _ZN12ScreenLocker7KSldApp9configureEv@Base 5.19.5
 _ZN12ScreenLocker7KSldApp9uninhibitEv@Base 5.19.5
 _ZN12ScreenLocker7KSldAppC1EP7QObject@Base 5.19.5
 _ZN12ScreenLocker7KSldAppC2EP7QObject@Base 5.19.5
 _ZN12ScreenLocker7KSldAppD0Ev@Base 5.19.5
 _ZN12ScreenLocker7KSldAppD1Ev@Base 5.19.5
 _ZN12ScreenLocker7KSldAppD2Ev@Base 5.19.5
 _ZNK12QPaintDevice7devTypeEv@Base 5.19.5
 _ZNK12ScreenLocker7KSldApp10activeTimeEv@Base 5.19.5
 _ZNK12ScreenLocker7KSldApp10metaObjectEv@Base 5.19.5
 _ZNK12ScreenLocker7KSldApp11isGraceTimeEv@Base 5.19.5
 _ZNK12ScreenLocker7KSldApp19isFdoPowerInhibitedEv@Base 5.19.5
 _ZTI12QDBusContext@Base 5.19.5
 _ZTIN12ScreenLocker7KSldAppE@Base 5.19.5
 _ZTS12QDBusContext@Base 5.19.5
 _ZTSN12ScreenLocker7KSldAppE@Base 5.19.5
 _ZTVN12ScreenLocker7KSldAppE@Base 5.19.5
 org_kde_ksld_interface@Base 5.19.5
