# SymbolsHelper-Confirmed: 5.74.0 amd64
libKF5ConfigGui.so.5 libkf5configgui5 #MINVER#
* Build-Depends-Package: libkf5config-dev
 _ZN10KConfigGui13sessionConfigEv@Base 4.97.0
 _ZN10KConfigGui16hasSessionConfigEv@Base 4.97.0
 _ZN10KConfigGui16setSessionConfigERK7QStringS2_@Base 5.11.0
 _ZN10KConfigGui17sessionConfigNameEv@Base 4.97.0
 (optional=templinst)_ZN12KConfigGroup10writeEntryIiEEvPKcRK5QListIT_E6QFlagsIN11KConfigBase15WriteConfigFlagEE@Base 4.100.0
 _ZN13KConfigLoader14usrWriteConfigEv@Base 4.97.0
 _ZN13KConfigLoaderC1E28QExplicitlySharedDataPointerI13KSharedConfigEP9QIODeviceP7QObject@Base 4.97.0
 _ZN13KConfigLoaderC1ERK12KConfigGroupP9QIODeviceP7QObject@Base 4.97.0
 _ZN13KConfigLoaderC1ERK7QStringP9QIODeviceP7QObject@Base 4.97.0
 _ZN13KConfigLoaderC2E28QExplicitlySharedDataPointerI13KSharedConfigEP9QIODeviceP7QObject@Base 4.97.0
 _ZN13KConfigLoaderC2ERK12KConfigGroupP9QIODeviceP7QObject@Base 4.97.0
 _ZN13KConfigLoaderC2ERK7QStringP9QIODeviceP7QObject@Base 4.97.0
 _ZN13KConfigLoaderD0Ev@Base 4.97.0
 _ZN13KConfigLoaderD1Ev@Base 4.97.0
 _ZN13KConfigLoaderD2Ev@Base 4.97.0
 _ZN13KWindowConfig14saveWindowSizeEPK7QWindowR12KConfigGroup6QFlagsIN11KConfigBase15WriteConfigFlagEE@Base 4.97.0
 _ZN13KWindowConfig17restoreWindowSizeEP7QWindowRK12KConfigGroup@Base 4.97.0
 _ZN13KWindowConfig18saveWindowPositionEPK7QWindowR12KConfigGroup6QFlagsIN11KConfigBase15WriteConfigFlagEE@Base 5.74.0
 _ZN13KWindowConfig21restoreWindowPositionEP7QWindowRK12KConfigGroup@Base 5.74.0
 _ZN13KWindowConfig27restoreWindowScreenPositionEP7QWindowPK7QScreenRK12KConfigGroup@Base 5.99.0
 _ZN15KConfigSkeleton11addItemFontERK7QStringR5QFontRKS3_S2_@Base 4.97.0
 _ZN15KConfigSkeleton11qt_metacallEN11QMetaObject4CallEiPPv@Base 4.97.0
 _ZN15KConfigSkeleton11qt_metacastEPKc@Base 4.97.0
 _ZN15KConfigSkeleton12addItemColorERK7QStringR6QColorRKS3_S2_@Base 4.97.0
 _ZN15KConfigSkeleton16staticMetaObjectE@Base 4.97.0
 _ZN15KConfigSkeleton8ItemFont10readConfigEP7KConfig@Base 4.97.0
 _ZN15KConfigSkeleton8ItemFont11setPropertyERK8QVariant@Base 4.97.0
 _ZN15KConfigSkeleton8ItemFontC1ERK7QStringS3_R5QFontRKS4_@Base 4.97.0
 _ZN15KConfigSkeleton8ItemFontC2ERK7QStringS3_R5QFontRKS4_@Base 4.97.0
 _ZN15KConfigSkeleton9ItemColor10readConfigEP7KConfig@Base 4.97.0
 _ZN15KConfigSkeleton9ItemColor11setPropertyERK8QVariant@Base 4.97.0
 _ZN15KConfigSkeleton9ItemColorC1ERK7QStringS3_R6QColorRKS4_@Base 4.97.0
 _ZN15KConfigSkeleton9ItemColorC2ERK7QStringS3_R6QColorRKS4_@Base 4.97.0
 _ZN15KConfigSkeletonC1E28QExplicitlySharedDataPointerI13KSharedConfigEP7QObject@Base 4.97.0
 _ZN15KConfigSkeletonC1ERK7QStringP7QObject@Base 4.97.0
 _ZN15KConfigSkeletonC2E28QExplicitlySharedDataPointerI13KSharedConfigEP7QObject@Base 4.97.0
 _ZN15KConfigSkeletonC2ERK7QStringP7QObject@Base 4.97.0
 _ZN17KStandardShortcut10completionEv@Base 4.97.0
 _ZN17KStandardShortcut10deleteFileEv@Base 5.25.0
 _ZN17KStandardShortcut10findByNameERK7QString@Base 5.74.0
 _ZN17KStandardShortcut10fullScreenEv@Base 4.97.0
 _ZN17KStandardShortcut10renameFileEv@Base 5.25.0
 _ZN17KStandardShortcut10rotateDownEv@Base 4.97.0
 _ZN17KStandardShortcut11addBookmarkEv@Base 4.97.0
 _ZN17KStandardShortcut11forwardWordEv@Base 4.97.0
 _ZN17KStandardShortcut11moveToTrashEv@Base 5.25.0
 _ZN17KStandardShortcut11preferencesEv@Base 5.69.0
 _ZN17KStandardShortcut11showMenubarEv@Base 4.97.0
 _ZN17KStandardShortcut12backwardWordEv@Base 4.97.0
 _ZN17KStandardShortcut12createFolderEv@Base 5.74.0
 _ZN17KStandardShortcut12saveShortcutENS_16StandardShortcutERK5QListI12QKeySequenceE@Base 4.97.0
 _ZN17KStandardShortcut14deleteWordBackEv@Base 4.97.0
 _ZN17KStandardShortcut14nextCompletionEv@Base 4.97.0
 _ZN17KStandardShortcut14pasteSelectionEv@Base 4.97.0
 _ZN17KStandardShortcut14prevCompletionEv@Base 4.97.0
 _ZN17KStandardShortcut15beginningOfLineEv@Base 4.97.0
 _ZN17KStandardShortcut15shortcutWatcherEv@Base 5.92.0
 _ZN17KStandardShortcut17deleteWordForwardEv@Base 4.97.0
 _ZN17KStandardShortcut19showHideHiddenFilesEv@Base 5.70.0
 _ZN17KStandardShortcut19substringCompletionEv@Base 4.97.0
 _ZN17KStandardShortcut23StandardShortcutWatcher11qt_metacallEN11QMetaObject4CallEiPPv@Base 5.92.0
 _ZN17KStandardShortcut23StandardShortcutWatcher11qt_metacastEPKc@Base 5.92.0
 _ZN17KStandardShortcut23StandardShortcutWatcher15shortcutChangedENS_16StandardShortcutERK5QListI12QKeySequenceE@Base 5.92.0
 _ZN17KStandardShortcut23StandardShortcutWatcher16staticMetaObjectE@Base 5.92.0
 _ZN17KStandardShortcut23StandardShortcutWatcherC1EP7QObject@Base 5.92.0
 _ZN17KStandardShortcut23StandardShortcutWatcherC2EP7QObject@Base 5.92.0
 _ZN17KStandardShortcut23StandardShortcutWatcherD0Ev@Base 5.92.0
 _ZN17KStandardShortcut23StandardShortcutWatcherD1Ev@Base 5.92.0
 _ZN17KStandardShortcut23StandardShortcutWatcherD2Ev@Base 5.92.0
 _ZN17KStandardShortcut24hardcodedDefaultShortcutENS_16StandardShortcutE@Base 4.97.0
 _ZN17KStandardShortcut2upEv@Base 4.97.0
 _ZN17KStandardShortcut3cutEv@Base 4.97.0
 _ZN17KStandardShortcut3endEv@Base 4.97.0
 _ZN17KStandardShortcut4backEv@Base 4.97.0
 _ZN17KStandardShortcut4copyEv@Base 4.97.0
 _ZN17KStandardShortcut4findEPKc@Base 4.97.0
 _ZN17KStandardShortcut4findERK12QKeySequence@Base 4.97.0
 _ZN17KStandardShortcut4findEv@Base 4.97.0
 _ZN17KStandardShortcut4helpEv@Base 4.97.0
 _ZN17KStandardShortcut4homeEv@Base 4.97.0
 _ZN17KStandardShortcut4nameENS_16StandardShortcutE@Base 4.97.0
 _ZN17KStandardShortcut4nextEv@Base 4.97.0
 _ZN17KStandardShortcut4openEv@Base 4.97.0
 _ZN17KStandardShortcut4quitEv@Base 4.97.0
 _ZN17KStandardShortcut4redoEv@Base 4.97.0
 _ZN17KStandardShortcut4saveEv@Base 4.97.0
 _ZN17KStandardShortcut4undoEv@Base 4.97.0
 _ZN17KStandardShortcut5beginEv@Base 4.97.0
 _ZN17KStandardShortcut5closeEv@Base 4.97.0
 _ZN17KStandardShortcut5labelENS_16StandardShortcutE@Base 4.97.0
 _ZN17KStandardShortcut5pasteEv@Base 4.97.0
 _ZN17KStandardShortcut5printEv@Base 4.97.0
 _ZN17KStandardShortcut5priorEv@Base 4.97.0
 _ZN17KStandardShortcut6reloadEv@Base 4.97.0
 _ZN17KStandardShortcut6zoomInEv@Base 4.97.0
 _ZN17KStandardShortcut7forwardEv@Base 4.97.0
 _ZN17KStandardShortcut7openNewEv@Base 4.97.0
 _ZN17KStandardShortcut7replaceEv@Base 4.97.0
 _ZN17KStandardShortcut7tabNextEv@Base 4.97.0
 _ZN17KStandardShortcut7tabPrevEv@Base 4.97.0
 _ZN17KStandardShortcut7zoomOutEv@Base 4.97.0
 _ZN17KStandardShortcut8categoryENS_16StandardShortcutE@Base 5.74.0
 _ZN17KStandardShortcut8findNextEv@Base 4.97.0
 _ZN17KStandardShortcut8findPrevEv@Base 4.97.0
 _ZN17KStandardShortcut8gotoLineEv@Base 4.97.0
 _ZN17KStandardShortcut8rotateUpEv@Base 4.97.0
 _ZN17KStandardShortcut8shortcutENS_16StandardShortcutE@Base 4.97.0
 _ZN17KStandardShortcut9endOfLineEv@Base 4.97.0
 _ZN17KStandardShortcut9selectAllEv@Base 4.97.0
 _ZN17KStandardShortcut9whatsThisENS_16StandardShortcutE@Base 4.97.0
 _ZN17KStandardShortcut9whatsThisEv@Base 4.97.0
 _ZN17KWindowStateSaver10initWidgetEP7QObjectRKSt8functionIFP7QWindowvEEPKc@Base 5.92.0
 _ZN17KWindowStateSaver10initWidgetEP7QObjectRKSt8functionIFP7QWindowvEERK12KConfigGroup@Base 5.92.0
 _ZN17KWindowStateSaver10initWidgetEP7QObjectRKSt8functionIFP7QWindowvEERK7QString@Base 5.92.0
 _ZN17KWindowStateSaver10timerEventEP11QTimerEvent@Base 5.92.0
 _ZN17KWindowStateSaver11eventFilterEP7QObjectP6QEvent@Base 5.92.0
 _ZN17KWindowStateSaver11qt_metacallEN11QMetaObject4CallEiPPv@Base 5.92.0
 _ZN17KWindowStateSaver11qt_metacastEPKc@Base 5.92.0
 _ZN17KWindowStateSaver16staticMetaObjectE@Base 5.92.0
 _ZN17KWindowStateSaverC1EP7QWindowPKc@Base 5.92.0
 _ZN17KWindowStateSaverC1EP7QWindowRK12KConfigGroup@Base 5.92.0
 _ZN17KWindowStateSaverC1EP7QWindowRK7QString@Base 5.92.0
 _ZN17KWindowStateSaverC2EP7QWindowPKc@Base 5.92.0
 _ZN17KWindowStateSaverC2EP7QWindowRK12KConfigGroup@Base 5.92.0
 _ZN17KWindowStateSaverC2EP7QWindowRK7QString@Base 5.92.0
 _ZN17KWindowStateSaverD0Ev@Base 5.92.0
 _ZN17KWindowStateSaverD1Ev@Base 5.92.0
 _ZN17KWindowStateSaverD2Ev@Base 5.92.0
 _ZNK13KConfigLoader14findItemByNameERK7QString@Base 4.97.0
 _ZNK13KConfigLoader8findItemERK7QStringS2_@Base 4.97.0
 _ZNK13KConfigLoader8hasGroupERK7QString@Base 4.97.0
 _ZNK13KConfigLoader8propertyERK7QString@Base 4.97.0
 _ZNK13KConfigLoader9groupListEv@Base 4.97.0
 _ZNK15KConfigSkeleton10metaObjectEv@Base 4.97.0
 _ZNK15KConfigSkeleton8ItemFont7isEqualERK8QVariant@Base 4.97.0
 _ZNK15KConfigSkeleton8ItemFont8propertyEv@Base 4.97.0
 _ZNK15KConfigSkeleton9ItemColor7isEqualERK8QVariant@Base 4.97.0
 _ZNK15KConfigSkeleton9ItemColor8propertyEv@Base 4.97.0
 _ZNK17KStandardShortcut23StandardShortcutWatcher10metaObjectEv@Base 5.92.0
 _ZNK17KWindowStateSaver10metaObjectEv@Base 5.92.0
 _ZTI13KConfigLoader@Base 4.97.0
 _ZTI15KConfigSkeleton@Base 4.97.0
 _ZTI17KWindowStateSaver@Base 5.92.0
 _ZTIN15KConfigSkeleton8ItemFontE@Base 4.97.0
 _ZTIN15KConfigSkeleton9ItemColorE@Base 4.97.0
 _ZTIN17KStandardShortcut23StandardShortcutWatcherE@Base 5.92.0
 _ZTS13KConfigLoader@Base 4.97.0
 _ZTS15KConfigSkeleton@Base 4.97.0
 _ZTS17KWindowStateSaver@Base 5.92.0
 _ZTSN15KConfigSkeleton8ItemFontE@Base 4.97.0
 _ZTSN15KConfigSkeleton9ItemColorE@Base 4.97.0
 _ZTSN17KStandardShortcut23StandardShortcutWatcherE@Base 5.92.0
 _ZTV13KConfigLoader@Base 4.97.0
 _ZTV15KConfigSkeleton@Base 4.97.0
 _ZTV17KWindowStateSaver@Base 5.92.0
 _ZTVN15KConfigSkeleton8ItemFontE@Base 4.97.0
 _ZTVN15KConfigSkeleton9ItemColorE@Base 4.97.0
 _ZTVN17KStandardShortcut23StandardShortcutWatcherE@Base 5.92.0
