# SymbolsHelper-Confirmed: 2.3.2.0 amd64
liblingmosdk-appconf2.so.1 liblingmosdk-appconf2 #MINVER#
 _ZN3kdk13KConf2Private11qt_metacallEN11QMetaObject4CallEiPPv@Base 2.3.2.0
 _ZN3kdk13KConf2Private11qt_metacastEPKc@Base 2.3.2.0
 _ZN3kdk13KConf2Private16staticMetaObjectE@Base 2.3.2.0
 _ZN3kdk13KConf2PrivateC1EPNS_6KConf2E@Base 2.3.2.0
 _ZN3kdk13KConf2PrivateC2EPNS_6KConf2E@Base 2.3.2.0
 _ZN3kdk6KConf210getSummaryER7QString@Base 2.3.2.0
 _ZN3kdk6KConf210getVersionEv@Base 2.3.2.0
 _ZN3kdk6KConf210isWritableER7QString@Base 2.3.2.0
 _ZN3kdk6KConf211qt_metacallEN11QMetaObject4CallEiPPv@Base 2.3.2.0
 _ZN3kdk6KConf211qt_metacastEPKc@Base 2.3.2.0
 _ZN3kdk6KConf213getDescritionER7QString@Base 2.3.2.0
 _ZN3kdk6KConf216staticMetaObjectE@Base 2.3.2.0
 _ZN3kdk6KConf219isSettingsAvailableERK7QString@Base 2.3.2.0
 _ZN3kdk6KConf23setERK7QStringRK8QVariant@Base 2.3.2.0
 _ZN3kdk6KConf25getIdEv@Base 2.3.2.0
 _ZN3kdk6KConf25resetERK7QString@Base 2.3.2.0
 _ZN3kdk6KConf26trySetERK7QStringRK8QVariant@Base 2.3.2.0
 _ZN3kdk6KConf27changedERK7QString@Base 2.3.2.0
 _ZN3kdk6KConf27getTypeER7QString@Base 2.3.2.0
 _ZN3kdk6KConf28getChildER7QString@Base 2.3.2.0
 _ZN3kdk6KConf2C1ERK10QByteArray@Base 2.3.2.0
 _ZN3kdk6KConf2C2ERK10QByteArray@Base 2.3.2.0
 _ZN3kdk6KConf2D0Ev@Base 2.3.2.0
 _ZN3kdk6KConf2D1Ev@Base 2.3.2.0
 _ZN3kdk6KConf2D2Ev@Base 2.3.2.0
 _ZN3kdk6k_freeEPPc@Base 2.3.2.0
 _ZN3kdk9qtifyNameEPKc@Base 2.3.2.0
 _ZNK3kdk13KConf2Private10metaObjectEv@Base 2.3.2.0
 _ZNK3kdk13KConf2Private15typesToQvariantEPKcS2_@Base 2.3.2.0
 _ZNK3kdk6KConf210metaObjectEv@Base 2.3.2.0
 _ZNK3kdk6KConf23getERK7QString@Base 2.3.2.0
 _ZNK3kdk6KConf24keysEv@Base 2.3.2.0
 _ZNK3kdk6KConf27schemasERK7QStringS3_@Base 2.3.2.0
 _ZNK3kdk6KConf28childrenEv@Base 2.3.2.0
 _ZTIN3kdk13KConf2PrivateE@Base 2.3.2.0
 _ZTIN3kdk6KConf2E@Base 2.3.2.0
 _ZTSN3kdk13KConf2PrivateE@Base 2.3.2.0
 _ZTSN3kdk6KConf2E@Base 2.3.2.0
 _ZTVN3kdk13KConf2PrivateE@Base 2.3.2.0
 _ZTVN3kdk6KConf2E@Base 2.3.2.0
