# SymbolsHelper-Confirmed: 2.2.1.0 amd64
liblingmosdk-qtwidgets.so.1 liblingmosdk-qtwidgets #MINVER#
 _Z22qInitResources_sdk_resv@Base 2.2.1.0
 _Z25qCleanupResources_sdk_resv@Base 2.2.1.0
 (optional=templinst)_ZN15QtSharedPointer34ExternalRefCountWithContiguousDataI17KWindowShadowTileE7deleterEPNS_20ExternalRefCountDataE@Base 2.0.0.0
 (optional=templinst)_ZN15QtSharedPointer34ExternalRefCountWithContiguousDataI17KWindowShadowTileE9noDeleterEPNS_20ExternalRefCountDataE@Base 2.0.0.0
 _ZN15ThemeController11widgetThemeEv@Base 1.2.0.3
 _ZN15ThemeController14initThemeStyleEv@Base 1.2.0.3
 _ZN15ThemeController14systemFontSizeEv@Base 1.2.0.3
 _ZN15ThemeController17drawColoredPixmapERK7QPixmapRK6QColor@Base 1.2.0.3
 _ZN15ThemeController19getCurrentIconColorEv@Base 1.2.0.3
 _ZN15ThemeController21drawFashionBackgroundERK5QRectiiii@Base 2.0.0.0
 _ZN15ThemeController25drawSymbolicColoredPixmapERK7QPixmap@Base 1.2.0.3
 _ZN15ThemeController8mixColorERK6QColorS2_d@Base 1.2.0.3
 _ZN15ThemeController9iconThemeEv@Base 1.2.0.3
 _ZN15ThemeController9themeModeEv@Base 1.2.0.3
 _ZN15ThemeControllerC1Ev@Base 1.2.0.3
 _ZN15ThemeControllerC2Ev@Base 1.2.0.3
 _ZN15ThemeControllerD1Ev@Base 1.2.0.3
 _ZN15ThemeControllerD2Ev@Base 1.2.0.3
 (optional=templinst)_ZN17QtMetaTypePrivate23QMetaTypeFunctionHelperIP15QAbstractButtonLb1EE8DestructEPv@Base 2.0.2.1
 (optional=templinst)_ZN17QtMetaTypePrivate23QMetaTypeFunctionHelperIP15QAbstractButtonLb1EE9ConstructEPvPKv@Base 2.0.2.1
 (optional=templinst)_ZN17QtMetaTypePrivate23QMetaTypeFunctionHelperIP7QWidgetLb1EE8DestructEPv@Base 2.0.2.1
 (optional=templinst)_ZN17QtMetaTypePrivate23QMetaTypeFunctionHelperIP7QWidgetLb1EE9ConstructEPvPKv@Base 2.0.2.1
 _ZN3kdk10KBallonTip10paintEventEP11QPaintEvent@Base 1.2.0.3
 _ZN3kdk10KBallonTip10setTipTimeEi@Base 1.2.0.3
 _ZN3kdk10KBallonTip10setTipTypeERKNS_7TipTypeE@Base 1.2.0.3
 _ZN3kdk10KBallonTip11qt_metacallEN11QMetaObject4CallEiPPv@Base 1.2.0.3
 _ZN3kdk10KBallonTip11qt_metacastEPKc@Base 1.2.0.3
 _ZN3kdk10KBallonTip15onTimeupDestroyEv@Base 1.2.0.3
 _ZN3kdk10KBallonTip16staticMetaObjectE@Base 1.2.0.3
 _ZN3kdk10KBallonTip18setContentsMarginsERK8QMargins@Base 1.2.0.3
 _ZN3kdk10KBallonTip18setContentsMarginsEiiii@Base 1.2.0.3
 _ZN3kdk10KBallonTip4textEv@Base 1.2.0.3
 _ZN3kdk10KBallonTip7setTextERK7QString@Base 1.2.0.3
 _ZN3kdk10KBallonTip7tipTypeEv@Base 1.2.0.3
 _ZN3kdk10KBallonTip8showInfoEv@Base 1.2.0.3
 _ZN3kdk10KBallonTipC1EP7QWidget@Base 1.2.0.3
 _ZN3kdk10KBallonTipC1ERK7QStringRKNS_7TipTypeEP7QWidget@Base 1.2.0.3
 _ZN3kdk10KBallonTipC2EP7QWidget@Base 1.2.0.3
 _ZN3kdk10KBallonTipC2ERK7QStringRKNS_7TipTypeEP7QWidget@Base 1.2.0.3
 _ZN3kdk10KButtonBox10buttonListEv@Base 2.0.2.1
 _ZN3kdk10KButtonBox11isCheckableEv@Base 2.0.2.1
 _ZN3kdk10KButtonBox11orientationEv@Base 2.0.2.1
 _ZN3kdk10KButtonBox11qt_metacallEN11QMetaObject4CallEiPPv@Base 2.0.2.1
 _ZN3kdk10KButtonBox11qt_metacastEPKc@Base 2.0.2.1
 _ZN3kdk10KButtonBox12borderRadiusEv@Base 2.0.2.1
 _ZN3kdk10KButtonBox12removeButtonEPNS_11KPushButtonE@Base 2.0.2.1
 _ZN3kdk10KButtonBox12removeButtonEi@Base 2.0.2.1
 _ZN3kdk10KButtonBox12setCheckableEb@Base 2.0.2.1
 _ZN3kdk10KButtonBox12setExclusiveEb@Base 2.0.2.1
 _ZN3kdk10KButtonBox13buttonClickedEP15QAbstractButton@Base 2.0.2.1
 _ZN3kdk10KButtonBox13buttonPressedEP15QAbstractButton@Base 2.0.2.1
 _ZN3kdk10KButtonBox13buttonToggledEP15QAbstractButtonb@Base 2.0.2.1
 _ZN3kdk10KButtonBox13checkedButtonEv@Base 2.0.2.1
 _ZN3kdk10KButtonBox13setButtonListERK5QListIPNS_11KPushButtonEE@Base 2.0.2.1
 _ZN3kdk10KButtonBox14buttonReleasedEP15QAbstractButton@Base 2.0.2.1
 _ZN3kdk10KButtonBox14setOrientationEN2Qt11OrientationE@Base 2.0.2.1
 _ZN3kdk10KButtonBox15setBorderRadiusEi@Base 2.0.2.1
 _ZN3kdk10KButtonBox16staticMetaObjectE@Base 2.0.2.1
 _ZN3kdk10KButtonBox2idEPNS_11KPushButtonE@Base 2.0.2.1
 _ZN3kdk10KButtonBox5setIdEPNS_11KPushButtonEi@Base 2.0.2.1
 _ZN3kdk10KButtonBox6buttonEi@Base 2.0.2.1
 _ZN3kdk10KButtonBox9addButtonEPNS_11KPushButtonEi@Base 2.0.2.1
 _ZN3kdk10KButtonBox9checkedIdEv@Base 2.0.2.1
 _ZN3kdk10KButtonBox9exclusiveEv@Base 2.0.2.1
 _ZN3kdk10KButtonBoxC1EP7QWidget@Base 2.0.2.1
 _ZN3kdk10KButtonBoxC2EP7QWidget@Base 2.0.2.1
 _ZN3kdk10KButtonBoxD0Ev@Base 2.0.2.1
 _ZN3kdk10KButtonBoxD1Ev@Base 2.0.2.1
 _ZN3kdk10KButtonBoxD2Ev@Base 2.0.2.1
 _ZN3kdk10StarWidget7doFreshEv@Base 1.2.0.3
 _ZN3kdk10StarWidget8setGradeENS_9StarLevelE@Base 1.2.0.3
 _ZN3kdk10StarWidgetC1EP7QWidget@Base 1.2.0.3
 _ZN3kdk10StarWidgetC2EP7QWidget@Base 1.2.0.3
 _ZN3kdk11KBreadCrumb10paintEventEP11QPaintEvent@Base 1.2.0.3
 _ZN3kdk11KBreadCrumb11qt_metacallEN11QMetaObject4CallEiPPv@Base 1.2.0.3
 _ZN3kdk11KBreadCrumb11qt_metacastEPKc@Base 1.2.0.3
 _ZN3kdk11KBreadCrumb16staticMetaObjectE@Base 1.2.0.3
 _ZN3kdk11KBreadCrumb7setFlatEb@Base 1.2.0.3
 _ZN3kdk11KBreadCrumb7setIconERK5QIcon@Base 1.2.0.3
 _ZN3kdk11KBreadCrumbC1EP7QWidget@Base 1.2.0.3
 _ZN3kdk11KBreadCrumbC2EP7QWidget@Base 1.2.0.3
 _ZN3kdk11KHLineFrame11qt_metacallEN11QMetaObject4CallEiPPv@Base 2.0.2.1
 _ZN3kdk11KHLineFrame11qt_metacastEPKc@Base 2.0.2.1
 _ZN3kdk11KHLineFrame16staticMetaObjectE@Base 2.0.2.1
 _ZN3kdk11KHLineFrameC1EP7QWidget@Base 2.0.2.1
 _ZN3kdk11KHLineFrameC2EP7QWidget@Base 2.0.2.1
 _ZN3kdk11KHLineFrameD0Ev@Base 2.0.2.1
 _ZN3kdk11KHLineFrameD1Ev@Base 2.0.2.1
 _ZN3kdk11KHLineFrameD2Ev@Base 2.0.2.1
 _ZN3kdk11KItemWidget10SetInverseEv@Base 1.2.0.3
 _ZN3kdk11KItemWidget10paintEventEP11QPaintEvent@Base 1.2.0.3
 _ZN3kdk11KItemWidget11SetIconSizeE5QSize@Base 1.2.0.3
 _ZN3kdk11KItemWidget11qt_metacallEN11QMetaObject4CallEiPPv@Base 1.2.0.3
 _ZN3kdk11KItemWidget11qt_metacastEPKc@Base 1.2.0.3
 _ZN3kdk11KItemWidget13CancelInverseEv@Base 1.2.0.3
 _ZN3kdk11KItemWidget16staticMetaObjectE@Base 1.2.0.3
 _ZN3kdk11KItemWidgetC1ERK5QIcon7QStringS4_P7QWidget@Base 1.2.0.3
 _ZN3kdk11KItemWidgetC2ERK5QIcon7QStringS4_P7QWidget@Base 1.2.0.3
 _ZN3kdk11KListWidget11qt_metacallEN11QMetaObject4CallEiPPv@Base 1.2.0.3
 _ZN3kdk11KListWidget11qt_metacastEPKc@Base 1.2.0.3
 _ZN3kdk11KListWidget13AddItemWidgetEPNS_11KItemWidgetE@Base 1.2.0.3
 _ZN3kdk11KListWidget16staticMetaObjectE@Base 1.2.0.3
 _ZN3kdk11KListWidgetC1EP7QWidget@Base 1.2.0.3
 _ZN3kdk11KListWidgetC2EP7QWidget@Base 1.2.0.3
 _ZN3kdk11KMenuButton10autoActionEv@Base 1.2.0.3
 _ZN3kdk11KMenuButton10darkActionEv@Base 1.2.0.3
 _ZN3kdk11KMenuButton10paintEventEP11QPaintEvent@Base 1.2.0.3
 _ZN3kdk11KMenuButton10quitActionEv@Base 1.2.0.3
 _ZN3kdk11KMenuButton11aboutActionEv@Base 1.2.0.3
 _ZN3kdk11KMenuButton11changeThemeEv@Base 1.2.0.3
 _ZN3kdk11KMenuButton11lightActionEv@Base 1.2.0.3
 _ZN3kdk11KMenuButton11qt_metacallEN11QMetaObject4CallEiPPv@Base 1.2.0.3
 _ZN3kdk11KMenuButton11qt_metacastEPKc@Base 1.2.0.3
 _ZN3kdk11KMenuButton11themeActionEv@Base 1.2.0.3
 _ZN3kdk11KMenuButton12assistActionEv@Base 1.2.0.3
 _ZN3kdk11KMenuButton13settingActionEv@Base 1.2.0.3
 _ZN3kdk11KMenuButton16staticMetaObjectE@Base 1.2.0.3
 _ZN3kdk11KMenuButton4menuEv@Base 1.2.0.3
 _ZN3kdk11KMenuButton9themeMenuEv@Base 1.2.0.3
 _ZN3kdk11KMenuButtonC1EP7QWidget@Base 1.2.0.3
 _ZN3kdk11KMenuButtonC2EP7QWidget@Base 1.2.0.3
 _ZN3kdk11KMenuButtonD0Ev@Base 1.2.0.3
 _ZN3kdk11KMenuButtonD1Ev@Base 1.2.0.3
 _ZN3kdk11KMenuButtonD2Ev@Base 1.2.0.3
 _ZN3kdk11KMessageBox11informationEP7QWidgetRK7QStringS5_6QFlagsINS0_14StandardButtonEES7_@Base 2.0.2.1
 _ZN3kdk11KMessageBox11qt_metacallEN11QMetaObject4CallEiPPv@Base 2.0.2.1
 _ZN3kdk11KMessageBox11qt_metacastEPKc@Base 2.0.2.1
 _ZN3kdk11KMessageBox11setCheckBoxEP9QCheckBox@Base 2.0.2.1
 _ZN3kdk11KMessageBox12removeButtonEP15QAbstractButton@Base 2.0.2.1
 _ZN3kdk11KMessageBox12standardIconENS0_4IconE@Base 2.0.2.1
 _ZN3kdk11KMessageBox13buttonClickedEP15QAbstractButton@Base 2.0.2.1
 _ZN3kdk11KMessageBox13setCustomIconERK5QIcon@Base 2.0.2.1
 _ZN3kdk11KMessageBox13setIconPixmapERK7QPixmap@Base 2.0.2.1
 _ZN3kdk11KMessageBox16setDefaultButtonENS0_14StandardButtonE@Base 2.0.2.1
 _ZN3kdk11KMessageBox16setDefaultButtonEP11QPushButton@Base 2.0.2.1
 _ZN3kdk11KMessageBox16staticMetaObjectE@Base 2.0.2.1
 _ZN3kdk11KMessageBox18setInformativeTextERK7QString@Base 2.0.2.1
 _ZN3kdk11KMessageBox18setStandardButtonsE6QFlagsINS0_14StandardButtonEE@Base 2.0.2.1
 _ZN3kdk11KMessageBox5eventEP6QEvent@Base 2.0.2.1
 _ZN3kdk11KMessageBox7setIconENS0_4IconE@Base 2.0.2.1
 _ZN3kdk11KMessageBox7setTextERK7QString@Base 2.0.2.1
 _ZN3kdk11KMessageBox7successEP7QWidgetRK7QStringS5_6QFlagsINS0_14StandardButtonEES7_@Base 2.0.2.1
 _ZN3kdk11KMessageBox7warningEP7QWidgetRK7QStringS5_6QFlagsINS0_14StandardButtonEES7_@Base 2.0.2.1
 _ZN3kdk11KMessageBox8criticalEP7QWidgetRK7QStringS5_6QFlagsINS0_14StandardButtonEES7_@Base 2.0.2.1
 _ZN3kdk11KMessageBox8questionEP7QWidgetRK7QStringS5_6QFlagsINS0_14StandardButtonEES7_@Base 2.0.2.1
 _ZN3kdk11KMessageBox9addButtonENS0_14StandardButtonE@Base 2.0.2.1
 _ZN3kdk11KMessageBox9addButtonEP15QAbstractButtonNS0_10ButtonRoleE@Base 2.0.2.1
 _ZN3kdk11KMessageBox9addButtonERK7QStringNS0_10ButtonRoleE@Base 2.0.2.1
 _ZN3kdk11KMessageBoxC1EP7QWidget@Base 2.0.2.1
 _ZN3kdk11KMessageBoxC2EP7QWidget@Base 2.0.2.1
 _ZN3kdk11KMessageBoxD0Ev@Base 2.0.2.1
 _ZN3kdk11KMessageBoxD1Ev@Base 2.0.2.1
 _ZN3kdk11KMessageBoxD2Ev@Base 2.0.2.1
 _ZN3kdk11KPushButton10buttonTypeEv@Base 2.0.0.0
 _ZN3kdk11KPushButton10paintEventEP11QPaintEvent@Base 2.0.0.0
 _ZN3kdk11KPushButton11eventFilterEP7QObjectP6QEvent@Base 2.0.0.0
 _ZN3kdk11KPushButton11qt_metacallEN11QMetaObject4CallEiPPv@Base 2.0.0.0
 _ZN3kdk11KPushButton11qt_metacastEPKc@Base 2.0.0.0
 _ZN3kdk11KPushButton12borderRadiusEv@Base 2.0.0.0
 _ZN3kdk11KPushButton12setIconColorE6QColor@Base 2.0.0.0
 _ZN3kdk11KPushButton13isTranslucentEv@Base 2.0.0.0
 _ZN3kdk11KPushButton13setButtonTypeENS0_10ButtonTypeE@Base 2.0.0.0
 _ZN3kdk11KPushButton14setTranslucentEb@Base 2.0.0.0
 _ZN3kdk11KPushButton15backgroundColorEv@Base 2.0.0.0
 _ZN3kdk11KPushButton15isIconHighlightEv@Base 2.0.0.0
 _ZN3kdk11KPushButton15setBorderRadiusEi@Base 2.0.0.0
 _ZN3kdk11KPushButton15setBorderRadiusEiiii@Base 2.0.0.0
 _ZN3kdk11KPushButton16setIconHighlightEb@Base 2.0.0.0
 _ZN3kdk11KPushButton16staticMetaObjectE@Base 2.0.0.0
 _ZN3kdk11KPushButton18setBackgroundColorE6QColor@Base 2.0.0.0
 _ZN3kdk11KPushButton26isBackgroundColorHighlightEv@Base 2.0.0.0
 _ZN3kdk11KPushButton27setBackgroundColorHighlightEb@Base 2.0.0.0
 _ZN3kdk11KPushButton9IconColorEv@Base 2.0.0.0
 _ZN3kdk11KPushButtonC1EP7QWidget@Base 2.0.0.0
 _ZN3kdk11KPushButtonC2EP7QWidget@Base 2.0.0.0
 _ZN3kdk11KPushButtonD0Ev@Base 2.0.0.0
 _ZN3kdk11KPushButtonD1Ev@Base 2.0.0.0
 _ZN3kdk11KPushButtonD2Ev@Base 2.0.0.0
 _ZN3kdk11KTagPrivate11changeThemeEv@Base 1.2.0.3
 _ZN3kdk11KTagPrivate11qt_metacallEN11QMetaObject4CallEiPPv@Base 1.2.0.3
 _ZN3kdk11KTagPrivate11qt_metacastEPKc@Base 1.2.0.3
 _ZN3kdk11KTagPrivate16staticMetaObjectE@Base 1.2.0.3
 _ZN3kdk11KTagPrivateC1EPNS_4KTagE@Base 1.2.0.3
 _ZN3kdk11KTagPrivateC2EPNS_4KTagE@Base 1.2.0.3
 _ZN3kdk11KToolButton10paintEventEP11QPaintEvent@Base 1.2.0.3
 _ZN3kdk11KToolButton10setLoadingEb@Base 1.2.0.3
 _ZN3kdk11KToolButton11eventFilterEP7QObjectP6QEvent@Base 1.2.0.3
 _ZN3kdk11KToolButton11qt_metacallEN11QMetaObject4CallEiPPv@Base 1.2.0.3
 _ZN3kdk11KToolButton11qt_metacastEPKc@Base 1.2.0.3
 _ZN3kdk11KToolButton16staticMetaObjectE@Base 1.2.0.3
 _ZN3kdk11KToolButton4iconEv@Base 1.2.0.3
 _ZN3kdk11KToolButton4typeEv@Base 1.2.0.3
 _ZN3kdk11KToolButton7setIconERK5QIcon@Base 1.2.0.3
 _ZN3kdk11KToolButton7setTypeENS_15KToolButtonTypeE@Base 1.2.0.3
 _ZN3kdk11KToolButton8setArrowEb@Base 1.2.0.3
 _ZN3kdk11KToolButton9isLoadingEv@Base 1.2.0.3
 _ZN3kdk11KToolButtonC1EP7QWidget@Base 1.2.0.3
 _ZN3kdk11KToolButtonC2EP7QWidget@Base 1.2.0.3
 _ZN3kdk11KVLineFrame11qt_metacallEN11QMetaObject4CallEiPPv@Base 2.0.2.1
 _ZN3kdk11KVLineFrame11qt_metacastEPKc@Base 2.0.2.1
 _ZN3kdk11KVLineFrame16staticMetaObjectE@Base 2.0.2.1
 _ZN3kdk11KVLineFrameC1EP7QWidget@Base 2.0.2.1
 _ZN3kdk11KVLineFrameC2EP7QWidget@Base 2.0.2.1
 _ZN3kdk11KVLineFrameD0Ev@Base 2.0.2.1
 _ZN3kdk11KVLineFrameD1Ev@Base 2.0.2.1
 _ZN3kdk11KVLineFrameD2Ev@Base 2.0.2.1
 _ZN3kdk11XAtomHelper11getInstanceEv@Base 1.2.0.3
 _ZN3kdk11XAtomHelper11qt_metacallEN11QMetaObject4CallEiPPv@Base 1.2.0.3
 _ZN3kdk11XAtomHelper11qt_metacastEPKc@Base 1.2.0.3
 _ZN3kdk11XAtomHelper16staticMetaObjectE@Base 1.2.0.3
 _ZN3kdk11XAtomHelper17isFrameLessWindowEi@Base 1.2.0.3
 _ZN3kdk11XAtomHelper18getWindowMotifHintEi@Base 1.2.0.3
 _ZN3kdk11XAtomHelper18isLINGMOCsdSupportedEv@Base 1.2.0.3
 _ZN3kdk11XAtomHelper18setWindowMotifHintEiRK12MotifWmHints@Base 1.2.0.3
 _ZN3kdk11XAtomHelper21getWindowBorderRadiusEi@Base 1.2.0.3
 _ZN3kdk11XAtomHelper21setLINGMODecoraiontHintEib@Base 1.2.0.3
 _ZN3kdk11XAtomHelper21setWindowBorderRadiusEiRK12UnityCorners@Base 1.2.0.3
 _ZN3kdk11XAtomHelper21setWindowBorderRadiusEiiiii@Base 1.2.0.3
 _ZN3kdk11XAtomHelper22isLINGMODecorationWindowEi@Base 1.2.0.3
 _ZN3kdk11XAtomHelper26isWindowDecorateBorderOnlyEi@Base 1.2.0.3
 _ZN3kdk11XAtomHelper31registerLINGMOCsdNetWmSupportAtomEv@Base 1.2.0.3
 _ZN3kdk11XAtomHelper33unregisterLINGMOCsdNetWmSupportAtomEv@Base 1.2.0.3
 _ZN3kdk11XAtomHelper35isWindowMotifHintDecorateBorderOnlyERK12MotifWmHints@Base 1.2.0.3
 _ZN3kdk11XAtomHelperC1EP7QObject@Base 1.2.0.3
 _ZN3kdk11XAtomHelperC2EP7QObject@Base 1.2.0.3
 _ZN3kdk12KAboutDialog10appSupportEv@Base 1.2.0.3
 _ZN3kdk12KAboutDialog10appVersionEv@Base 1.2.0.3
 _ZN3kdk12KAboutDialog10paintEventEP11QPaintEvent@Base 1.2.0.3
 _ZN3kdk12KAboutDialog10setAppIconERK5QIcon@Base 1.2.0.3
 _ZN3kdk12KAboutDialog10setAppNameERK7QString@Base 1.2.0.3
 _ZN3kdk12KAboutDialog11changeThemeEv@Base 1.2.0.3
 _ZN3kdk12KAboutDialog11qt_metacallEN11QMetaObject4CallEiPPv@Base 1.2.0.3
 _ZN3kdk12KAboutDialog11qt_metacastEPKc@Base 1.2.0.3
 _ZN3kdk12KAboutDialog11setBodyTextERK7QString@Base 1.2.0.3
 _ZN3kdk12KAboutDialog13setAppSupportERK7QString@Base 1.2.0.3
 _ZN3kdk12KAboutDialog13setAppVersionERK7QString@Base 1.2.0.3
 _ZN3kdk12KAboutDialog16staticMetaObjectE@Base 1.2.0.3
 _ZN3kdk12KAboutDialog19setBodyTextVisiableEb@Base 1.2.0.3
 _ZN3kdk12KAboutDialog24AppPrivacyLabelIsVisibleEv@Base 2.0.0.0
 _ZN3kdk12KAboutDialog25setAppPrivacyLabelVisibleEb@Base 2.0.0.0
 _ZN3kdk12KAboutDialog7appNameEv@Base 1.2.0.3
 _ZN3kdk12KAboutDialog8bodyTextEv@Base 1.2.0.3
 _ZN3kdk12KAboutDialogC1EP7QWidgetRK5QIconRK7QStringS8_S8_@Base 1.2.0.3
 _ZN3kdk12KAboutDialogC2EP7QWidgetRK5QIconRK7QStringS8_S8_@Base 1.2.0.3
 _ZN3kdk12KAboutDialogD0Ev@Base 1.2.0.3
 _ZN3kdk12KAboutDialogD1Ev@Base 1.2.0.3
 _ZN3kdk12KAboutDialogD2Ev@Base 1.2.0.3
 _ZN3kdk12KColorButton10paintEventEP11QPaintEvent@Base 2.0.2.1
 _ZN3kdk12KColorButton11qt_metacallEN11QMetaObject4CallEiPPv@Base 2.0.2.1
 _ZN3kdk12KColorButton11qt_metacastEPKc@Base 2.0.2.1
 _ZN3kdk12KColorButton13setButtonTypeENS0_10ButtonTypeE@Base 2.0.2.1
 _ZN3kdk12KColorButton15backgroundColorEv@Base 2.0.2.1
 _ZN3kdk12KColorButton15setBorderRadiusEi@Base 2.0.2.1
 _ZN3kdk12KColorButton16staticMetaObjectE@Base 2.0.2.1
 _ZN3kdk12KColorButton18setBackgroundColorE6QColor@Base 2.0.2.1
 _ZN3kdk12KColorButtonC1EP7QWidget@Base 2.0.2.1
 _ZN3kdk12KColorButtonC2EP7QWidget@Base 2.0.2.1
 _ZN3kdk12KInputDialog10setIntStepEi@Base 1.2.0.3
 _ZN3kdk12KInputDialog10setOptionsE6QFlagsINS0_17InputDialogOptionEE@Base 1.2.0.3
 _ZN3kdk12KInputDialog10setVisibleEb@Base 1.2.0.3
 _ZN3kdk12KInputDialog11changeThemeEv@Base 1.2.0.3
 _ZN3kdk12KInputDialog11qt_metacallEN11QMetaObject4CallEiPPv@Base 1.2.0.3
 _ZN3kdk12KInputDialog11qt_metacastEPKc@Base 1.2.0.3
 _ZN3kdk12KInputDialog11setIntRangeEii@Base 1.2.0.3
 _ZN3kdk12KInputDialog11setIntValueEi@Base 1.2.0.3
 _ZN3kdk12KInputDialog12setInputModeENS0_9InputModeE@Base 1.2.0.3
 _ZN3kdk12KInputDialog12setLabelTextERK7QString@Base 1.2.0.3
 _ZN3kdk12KInputDialog12setTextValueERK7QString@Base 1.2.0.3
 _ZN3kdk12KInputDialog13setDoubleStepEd@Base 1.2.0.3
 _ZN3kdk12KInputDialog13setIntMaximumEi@Base 1.2.0.3
 _ZN3kdk12KInputDialog13setIntMinimumEi@Base 1.2.0.3
 _ZN3kdk12KInputDialog14setDoubleRangeEdd@Base 1.2.0.3
 _ZN3kdk12KInputDialog14setDoubleValueEd@Base 1.2.0.3
 _ZN3kdk12KInputDialog15intValueChangedEi@Base 1.2.0.3
 _ZN3kdk12KInputDialog15setOkButtonTextERK7QString@Base 1.2.0.3
 _ZN3kdk12KInputDialog15setTextEchoModeEN9QLineEdit8EchoModeE@Base 1.2.0.3
 _ZN3kdk12KInputDialog16getMultiLineTextEP7QWidgetRK7QStringS5_Pb6QFlagsIN2Qt10WindowTypeEES7_INS8_15InputMethodHintEE@Base 1.2.0.3
 _ZN3kdk12KInputDialog16intValueSelectedEi@Base 1.2.0.3
 _ZN3kdk12KInputDialog16setComboBoxItemsERK11QStringList@Base 1.2.0.3
 _ZN3kdk12KInputDialog16setDoubleMaximumEd@Base 1.2.0.3
 _ZN3kdk12KInputDialog16setDoubleMinimumEd@Base 1.2.0.3
 _ZN3kdk12KInputDialog16staticMetaObjectE@Base 1.2.0.3
 _ZN3kdk12KInputDialog16textValueChangedERK7QString@Base 1.2.0.3
 _ZN3kdk12KInputDialog17setDoubleDecimalsEi@Base 1.2.0.3
 _ZN3kdk12KInputDialog17textValueSelectedERK7QString@Base 1.2.0.3
 _ZN3kdk12KInputDialog18doubleValueChangedEd@Base 1.2.0.3
 _ZN3kdk12KInputDialog18setPlaceholderTextERK7QString@Base 2.0.0.0
 _ZN3kdk12KInputDialog19doubleValueSelectedEd@Base 1.2.0.3
 _ZN3kdk12KInputDialog19setCancelButtonTextERK7QString@Base 1.2.0.3
 _ZN3kdk12KInputDialog19setComboBoxEditableEb@Base 1.2.0.3
 _ZN3kdk12KInputDialog4doneEi@Base 1.2.0.3
 _ZN3kdk12KInputDialog4openEP7QObjectPKc@Base 1.2.0.3
 _ZN3kdk12KInputDialog6getIntEP7QWidgetRK7QStringiiiiPb6QFlagsIN2Qt10WindowTypeEE@Base 1.2.0.3
 _ZN3kdk12KInputDialog7getItemEP7QWidgetRK7QStringRK11QStringListibPb6QFlagsIN2Qt10WindowTypeEESA_INSB_15InputMethodHintEE@Base 1.2.0.3
 _ZN3kdk12KInputDialog7getTextEP7QWidgetRK7QStringN9QLineEdit8EchoModeES5_Pb6QFlagsIN2Qt10WindowTypeEES9_INSA_15InputMethodHintEE@Base 1.2.0.3
 _ZN3kdk12KInputDialog9getDoubleEP7QWidgetRK7QStringdddiPb6QFlagsIN2Qt10WindowTypeEE@Base 1.2.0.3
 _ZN3kdk12KInputDialog9setOptionENS0_17InputDialogOptionEb@Base 1.2.0.3
 _ZN3kdk12KInputDialogC1EP7QWidget@Base 1.2.0.3
 _ZN3kdk12KInputDialogC2EP7QWidget@Base 1.2.0.3
 _ZN3kdk12KInputDialogD0Ev@Base 1.2.0.3
 _ZN3kdk12KInputDialogD1Ev@Base 1.2.0.3
 _ZN3kdk12KInputDialogD2Ev@Base 1.2.0.3
 _ZN3kdk12KPressButton10buttonTypeEv@Base 2.0.0.0
 _ZN3kdk12KPressButton10paintEventEP11QPaintEvent@Base 2.0.0.0
 _ZN3kdk12KPressButton10setCheckedEb@Base 2.0.0.0
 _ZN3kdk12KPressButton11qt_metacallEN11QMetaObject4CallEiPPv@Base 2.0.0.0
 _ZN3kdk12KPressButton11qt_metacastEPKc@Base 2.0.0.0
 _ZN3kdk12KPressButton12setCheckableEb@Base 2.0.0.0
 _ZN3kdk12KPressButton13isTranslucentEv@Base 2.0.0.0
 _ZN3kdk12KPressButton13setButtonTypeENS0_10ButtonTypeE@Base 2.0.0.0
 _ZN3kdk12KPressButton14setTranslucentEb@Base 2.0.0.0
 _ZN3kdk12KPressButton15setBorderRadiusEi@Base 2.0.0.0
 _ZN3kdk12KPressButton15setBorderRadiusEiiii@Base 2.0.0.0
 _ZN3kdk12KPressButton15setLoaingStatusEb@Base 2.0.0.0
 _ZN3kdk12KPressButton16staticMetaObjectE@Base 2.0.0.0
 _ZN3kdk12KPressButton9isLoadingEv@Base 2.0.0.0
 _ZN3kdk12KPressButtonC1EP7QWidget@Base 2.0.0.0
 _ZN3kdk12KPressButtonC2EP7QWidget@Base 2.0.0.0
 _ZN3kdk12KProgressBar10paintEventEP11QPaintEvent@Base 1.2.0.3
 _ZN3kdk12KProgressBar11qt_metacallEN11QMetaObject4CallEiPPv@Base 1.2.0.3
 _ZN3kdk12KProgressBar11qt_metacastEPKc@Base 1.2.0.3
 _ZN3kdk12KProgressBar12setBodyWidthEi@Base 2.0.2.1
 _ZN3kdk12KProgressBar14setOrientationEN2Qt11OrientationE@Base 1.2.0.3
 _ZN3kdk12KProgressBar16staticMetaObjectE@Base 1.2.0.3
 _ZN3kdk12KProgressBar5stateEv@Base 1.2.0.3
 _ZN3kdk12KProgressBar8setStateENS_16ProgressBarStateE@Base 1.2.0.3
 _ZN3kdk12KProgressBarC1EP7QWidget@Base 1.2.0.3
 _ZN3kdk12KProgressBarC2EP7QWidget@Base 1.2.0.3
 _ZN3kdk13KBadgePrivate11qt_metacallEN11QMetaObject4CallEiPPv@Base 1.2.0.3
 _ZN3kdk13KBadgePrivate11qt_metacastEPKc@Base 1.2.0.3
 _ZN3kdk13KBadgePrivate16staticMetaObjectE@Base 1.2.0.3
 _ZN3kdk13KBadgePrivateC1EPNS_6KBadgeE@Base 1.2.0.3
 _ZN3kdk13KBadgePrivateC2EPNS_6KBadgeE@Base 1.2.0.3
 _ZN3kdk13KBorderButton10paintEventEP11QPaintEvent@Base 1.2.0.3
 _ZN3kdk13KBorderButton11eventFilterEP7QObjectP6QEvent@Base 1.2.0.3
 _ZN3kdk13KBorderButton11qt_metacallEN11QMetaObject4CallEiPPv@Base 1.2.0.3
 _ZN3kdk13KBorderButton11qt_metacastEPKc@Base 1.2.0.3
 _ZN3kdk13KBorderButton16staticMetaObjectE@Base 1.2.0.3
 _ZN3kdk13KBorderButton7setIconERK5QIcon@Base 1.2.0.3
 _ZN3kdk13KBorderButtonC1EP7QWidget@Base 1.2.0.3
 _ZN3kdk13KBorderButtonC1ERK5QIconRK7QStringP7QWidget@Base 1.2.0.3
 _ZN3kdk13KBorderButtonC1ERK7QStringP7QWidget@Base 1.2.0.3
 _ZN3kdk13KBorderButtonC2EP7QWidget@Base 1.2.0.3
 _ZN3kdk13KBorderButtonC2ERK5QIconRK7QStringP7QWidget@Base 1.2.0.3
 _ZN3kdk13KBorderButtonC2ERK7QStringP7QWidget@Base 1.2.0.3
 _ZN3kdk13KBorderButtonD0Ev@Base 1.2.0.3
 _ZN3kdk13KBorderButtonD1Ev@Base 1.2.0.3
 _ZN3kdk13KBorderButtonD2Ev@Base 1.2.0.3
 _ZN3kdk13KBubbleWidget10enableBlurEv@Base 2.0.0.0
 _ZN3kdk13KBubbleWidget10paintEventEP11QPaintEvent@Base 2.0.0.0
 _ZN3kdk13KBubbleWidget10setOpacityEd@Base 2.0.0.0
 _ZN3kdk13KBubbleWidget11qt_metacallEN11QMetaObject4CallEiPPv@Base 2.0.0.0
 _ZN3kdk13KBubbleWidget11qt_metacastEPKc@Base 2.0.0.0
 _ZN3kdk13KBubbleWidget11setTailSizeERK5QSize@Base 2.0.0.0
 _ZN3kdk13KBubbleWidget12tailLocationEv@Base 2.0.0.0
 _ZN3kdk13KBubbleWidget13setEnableBlurEb@Base 2.0.0.0
 _ZN3kdk13KBubbleWidget13tailDirectionEv@Base 2.0.0.0
 _ZN3kdk13KBubbleWidget15setBorderRadiusEi@Base 2.0.0.0
 _ZN3kdk13KBubbleWidget15setBorderRadiusEiiii@Base 2.0.0.0
 _ZN3kdk13KBubbleWidget15setTailPositionENS_13TailDirectionENS_12TailLocationE@Base 2.0.0.0
 _ZN3kdk13KBubbleWidget16staticMetaObjectE@Base 2.0.0.0
 _ZN3kdk13KBubbleWidget7opacityEv@Base 2.0.0.0
 _ZN3kdk13KBubbleWidget8tailSizeEv@Base 2.0.0.0
 _ZN3kdk13KBubbleWidgetC1EP7QWidget@Base 2.0.0.0
 _ZN3kdk13KBubbleWidgetC2EP7QWidget@Base 2.0.0.0
 _ZN3kdk13KCommentPanel10paintEventEP11QPaintEvent@Base 1.2.0.3
 _ZN3kdk13KCommentPanel11qt_metacallEN11QMetaObject4CallEiPPv@Base 1.2.0.3
 _ZN3kdk13KCommentPanel11qt_metacastEPKc@Base 1.2.0.3
 _ZN3kdk13KCommentPanel16staticMetaObjectE@Base 1.2.0.3
 _ZN3kdk13KCommentPanel7setIconERK5QIcon@Base 1.2.0.3
 _ZN3kdk13KCommentPanel7setNameERK7QString@Base 1.2.0.3
 _ZN3kdk13KCommentPanel7setTextERK7QString@Base 1.2.0.3
 _ZN3kdk13KCommentPanel7setTimeERK7QString@Base 1.2.0.3
 _ZN3kdk13KCommentPanel8setGradeENS_9StarLevelE@Base 1.2.0.3
 _ZN3kdk13KCommentPanelC1EP7QWidget@Base 1.2.0.3
 _ZN3kdk13KCommentPanelC2EP7QWidget@Base 1.2.0.3
 _ZN3kdk13KPasswordEdit10setEnabledEb@Base 1.2.0.3
 _ZN3kdk13KPasswordEdit10setLoadingEb@Base 1.2.0.3
 _ZN3kdk13KPasswordEdit11eventFilterEP7QObjectP6QEvent@Base 1.2.0.3
 _ZN3kdk13KPasswordEdit11qt_metacallEN11QMetaObject4CallEiPPv@Base 1.2.0.3
 _ZN3kdk13KPasswordEdit11qt_metacastEPKc@Base 1.2.0.3
 _ZN3kdk13KPasswordEdit11resizeEventEP12QResizeEvent@Base 1.2.0.3
 _ZN3kdk13KPasswordEdit11setEchoModeEN9QLineEdit8EchoModeE@Base 1.2.0.3
 _ZN3kdk13KPasswordEdit15clearBtnVisibleEv@Base 1.2.0.3
 _ZN3kdk13KPasswordEdit15placeholderTextEv@Base 1.2.0.3
 _ZN3kdk13KPasswordEdit16staticMetaObjectE@Base 1.2.0.3
 _ZN3kdk13KPasswordEdit18echoModeBtnVisibleEv@Base 1.2.0.3
 _ZN3kdk13KPasswordEdit18setClearBtnVisibleEb@Base 1.2.0.3
 _ZN3kdk13KPasswordEdit18setPlaceholderTextER7QString@Base 1.2.0.3
 _ZN3kdk13KPasswordEdit19setUseCustomPaletteEb@Base 2.0.2.1
 _ZN3kdk13KPasswordEdit21setClearButtonEnabledEb@Base 1.2.0.3
 _ZN3kdk13KPasswordEdit21setEchoModeBtnVisibleEb@Base 1.2.0.3
 _ZN3kdk13KPasswordEdit5stateEv@Base 1.2.0.3
 _ZN3kdk13KPasswordEdit8setStateENS_10LoginStateE@Base 1.2.0.3
 _ZN3kdk13KPasswordEdit9isLoadingEv@Base 1.2.0.3
 _ZN3kdk13KPasswordEditC1EP7QWidget@Base 1.2.0.3
 _ZN3kdk13KPasswordEditC2EP7QWidget@Base 1.2.0.3
 _ZN3kdk13KSwitchButton10paintEventEP11QPaintEvent@Base 1.2.0.3
 _ZN3kdk13KSwitchButton10setCheckedEb@Base 1.2.0.3
 _ZN3kdk13KSwitchButton11qt_metacallEN11QMetaObject4CallEiPPv@Base 1.2.0.3
 _ZN3kdk13KSwitchButton11qt_metacastEPKc@Base 1.2.0.3
 _ZN3kdk13KSwitchButton11resizeEventEP12QResizeEvent@Base 1.2.0.3
 _ZN3kdk13KSwitchButton12setCheckableEb@Base 1.2.0.3
 _ZN3kdk13KSwitchButton12stateChangedEb@Base 1.2.0.3
 _ZN3kdk13KSwitchButton13isTranslucentEv@Base 2.0.0.0
 _ZN3kdk13KSwitchButton14setTranslucentEb@Base 2.0.0.0
 _ZN3kdk13KSwitchButton16staticMetaObjectE@Base 1.2.0.3
 _ZN3kdk13KSwitchButtonC1EP7QWidget@Base 1.2.0.3
 _ZN3kdk13KSwitchButtonC2EP7QWidget@Base 1.2.0.3
 _ZN3kdk13KSwitchButtonD0Ev@Base 1.2.0.3
 _ZN3kdk13KSwitchButtonD1Ev@Base 1.2.0.3
 _ZN3kdk13KSwitchButtonD2Ev@Base 1.2.0.3
 _ZN3kdk14KColorComboBox10paintEventEP11QPaintEvent@Base 2.0.2.1
 _ZN3kdk14KColorComboBox11highlightedERK6QColor@Base 2.0.2.1
 _ZN3kdk14KColorComboBox11qt_metacallEN11QMetaObject4CallEiPPv@Base 2.0.2.1
 _ZN3kdk14KColorComboBox11qt_metacastEPKc@Base 2.0.2.1
 _ZN3kdk14KColorComboBox11resizeEventEP12QResizeEvent@Base 2.0.2.1
 _ZN3kdk14KColorComboBox12setColorListERK5QListI6QColorE@Base 2.0.2.1
 _ZN3kdk14KColorComboBox12setComboTypeERKNS0_9ComboTypeE@Base 2.0.2.1
 _ZN3kdk14KColorComboBox13popupItemSzieEv@Base 2.0.2.1
 _ZN3kdk14KColorComboBox16setPopupItemSizeERK5QSize@Base 2.0.2.1
 _ZN3kdk14KColorComboBox16staticMetaObjectE@Base 2.0.2.1
 _ZN3kdk14KColorComboBox19currentColorChangedERK6QColor@Base 2.0.2.1
 _ZN3kdk14KColorComboBox8addColorERK6QColor@Base 2.0.2.1
 _ZN3kdk14KColorComboBox9activatedERK6QColor@Base 2.0.2.1
 _ZN3kdk14KColorComboBox9colorListEv@Base 2.0.2.1
 _ZN3kdk14KColorComboBox9comboTypeEv@Base 2.0.2.1
 _ZN3kdk14KColorComboBoxC1EP7QWidget@Base 2.0.2.1
 _ZN3kdk14KColorComboBoxC2EP7QWidget@Base 2.0.2.1
 _ZN3kdk14KDialogPrivate11qt_metacallEN11QMetaObject4CallEiPPv@Base 1.2.0.3
 _ZN3kdk14KDialogPrivate11qt_metacastEPKc@Base 1.2.0.3
 _ZN3kdk14KDialogPrivate16staticMetaObjectE@Base 1.2.0.3
 _ZN3kdk14KDialogPrivateC1EPNS_7KDialogE@Base 1.2.0.3
 _ZN3kdk14KDialogPrivateC2EPNS_7KDialogE@Base 1.2.0.3
 _ZN3kdk14KNavigationBar10addSubItemEP13QStandardItem@Base 1.2.0.3
 _ZN3kdk14KNavigationBar11qt_metacallEN11QMetaObject4CallEiPPv@Base 1.2.0.3
 _ZN3kdk14KNavigationBar11qt_metacastEPKc@Base 1.2.0.3
 _ZN3kdk14KNavigationBar13addGroupItemsE5QListIP13QStandardItemERK7QString@Base 1.2.0.3
 _ZN3kdk14KNavigationBar16staticMetaObjectE@Base 1.2.0.3
 _ZN3kdk14KNavigationBar5modelEv@Base 1.2.0.3
 _ZN3kdk14KNavigationBar6addTagERK7QString@Base 1.2.0.3
 _ZN3kdk14KNavigationBar7addItemEP13QStandardItem@Base 1.2.0.3
 _ZN3kdk14KNavigationBar8listviewEv@Base 1.2.0.3
 _ZN3kdk14KNavigationBarC1EP7QWidget@Base 1.2.0.3
 _ZN3kdk14KNavigationBarC2EP7QWidget@Base 1.2.0.3
 _ZN3kdk14KSliderPrivate10drawSliderEP8QPainter@Base 1.2.0.3
 _ZN3kdk14KSliderPrivate10locateNodeEv@Base 1.2.0.3
 _ZN3kdk14KSliderPrivate11changeThemeEv@Base 1.2.0.3
 _ZN3kdk14KSliderPrivate11updateColorE8QPalette@Base 2.2.1.0
 _ZN3kdk14KSliderPrivate11updateValueEv@Base 1.2.0.3
 _ZN3kdk14KSliderPrivate12baseLineRectEv@Base 1.2.0.3
 _ZN3kdk14KSliderPrivate12drawBasePathEP8QPainter@Base 2.0.0.0
 _ZN3kdk14KSliderPrivate13coverLineRectEv@Base 1.2.0.3
 _ZN3kdk14KSliderPrivate13drawCoverLineEP8QPainter@Base 1.2.0.3
 _ZN3kdk14KSliderPrivate13drawCoverNodeEP8QPainter@Base 1.2.0.3
 _ZN3kdk14KSliderPrivate19updateValuePositionEv@Base 1.2.0.3
 _ZN3kdk14KSliderPrivateC1EPNS_7KSliderE@Base 1.2.0.3
 _ZN3kdk14KSliderPrivateC2EPNS_7KSliderE@Base 1.2.0.3
 _ZN3kdk14KSliderPrivateD0Ev@Base 1.2.0.3
 _ZN3kdk14KSliderPrivateD1Ev@Base 1.2.0.3
 _ZN3kdk14KSliderPrivateD2Ev@Base 1.2.0.3
 _ZN3kdk14KTabBarPrivate11changeThemeEv@Base 1.2.0.3
 _ZN3kdk14KTabBarPrivate11qt_metacallEN11QMetaObject4CallEiPPv@Base 1.2.0.3
 _ZN3kdk14KTabBarPrivate11qt_metacastEPKc@Base 1.2.0.3
 _ZN3kdk14KTabBarPrivate16staticMetaObjectE@Base 1.2.0.3
 _ZN3kdk14KWidgetPrivate11qt_metacallEN11QMetaObject4CallEiPPv@Base 1.2.0.3
 _ZN3kdk14KWidgetPrivate11qt_metacastEPKc@Base 1.2.0.3
 _ZN3kdk14KWidgetPrivate16adjustBackgroundEv@Base 2.0.0.0
 _ZN3kdk14KWidgetPrivate16staticMetaObjectE@Base 1.2.0.3
 _ZN3kdk14KWidgetPrivate21adjustFlagTitleStatusE6QFlagsIN2Qt10WindowTypeEE@Base 2.0.2.1
 _ZN3kdk14KWidgetPrivate22adjustFlagsTitleStatusE6QFlagsIN2Qt10WindowTypeEE@Base 2.0.2.1
 _ZN3kdk14KWidgetPrivateC1EPNS_7KWidgetE@Base 1.2.0.3
 _ZN3kdk14KWidgetPrivateC2EPNS_7KWidgetE@Base 1.2.0.3
 _ZN3kdk15KIconBarPrivate11changeThemeEv@Base 1.2.0.3
 _ZN3kdk15KIconBarPrivate11qt_metacallEN11QMetaObject4CallEiPPv@Base 1.2.0.3
 _ZN3kdk15KIconBarPrivate11qt_metacastEPKc@Base 1.2.0.3
 _ZN3kdk15KIconBarPrivate15changeIconStyleEv@Base 2.0.0.0
 _ZN3kdk15KIconBarPrivate15elideWidgetNameEv@Base 2.0.0.0
 _ZN3kdk15KIconBarPrivate16staticMetaObjectE@Base 1.2.0.3
 _ZN3kdk15KIconBarPrivateC1EPNS_8KIconBarE@Base 1.2.0.3
 _ZN3kdk15KIconBarPrivateC2EPNS_8KIconBarE@Base 1.2.0.3
 _ZN3kdk15KProgressCircle10paintEventEP11QPaintEvent@Base 1.2.0.3
 _ZN3kdk15KProgressCircle10setMaximumEi@Base 1.2.0.3
 _ZN3kdk15KProgressCircle10setMinimumEi@Base 1.2.0.3
 _ZN3kdk15KProgressCircle11qt_metacallEN11QMetaObject4CallEiPPv@Base 1.2.0.3
 _ZN3kdk15KProgressCircle11qt_metacastEPKc@Base 1.2.0.3
 _ZN3kdk15KProgressCircle12valueChangedEi@Base 1.2.0.3
 _ZN3kdk15KProgressCircle14setTextVisibleEb@Base 1.2.0.3
 _ZN3kdk15KProgressCircle16staticMetaObjectE@Base 1.2.0.3
 _ZN3kdk15KProgressCircle5resetEv@Base 1.2.0.3
 _ZN3kdk15KProgressCircle5stateEv@Base 1.2.0.3
 _ZN3kdk15KProgressCircle8setRangeEii@Base 1.2.0.3
 _ZN3kdk15KProgressCircle8setStateENS_16ProgressBarStateE@Base 1.2.0.3
 _ZN3kdk15KProgressCircle8setValueEi@Base 1.2.0.3
 _ZN3kdk15KProgressCircleC1EP7QWidget@Base 1.2.0.3
 _ZN3kdk15KProgressCircleC2EP7QWidget@Base 1.2.0.3
 _ZN3kdk15KProgressDialog10setMaximumEi@Base 1.2.0.3
 _ZN3kdk15KProgressDialog10setMinimumEi@Base 1.2.0.3
 _ZN3kdk15KProgressDialog11changeThemeEv@Base 1.2.0.3
 _ZN3kdk15KProgressDialog11progressBarEv@Base 1.2.0.3
 _ZN3kdk15KProgressDialog11qt_metacallEN11QMetaObject4CallEiPPv@Base 1.2.0.3
 _ZN3kdk15KProgressDialog11qt_metacastEPKc@Base 1.2.0.3
 _ZN3kdk15KProgressDialog12setAutoCloseEb@Base 1.2.0.3
 _ZN3kdk15KProgressDialog12setAutoResetEb@Base 1.2.0.3
 _ZN3kdk15KProgressDialog12setLabelTextERK7QString@Base 1.2.0.3
 _ZN3kdk15KProgressDialog13setShowDetailEb@Base 1.2.0.3
 _ZN3kdk15KProgressDialog13setSubContentERK7QString@Base 1.2.0.3
 _ZN3kdk15KProgressDialog15setCancelButtonEP11QPushButton@Base 1.2.0.3
 _ZN3kdk15KProgressDialog16staticMetaObjectE@Base 1.2.0.3
 _ZN3kdk15KProgressDialog19setCancelButtonTextERK7QString@Base 1.2.0.3
 _ZN3kdk15KProgressDialog5resetEv@Base 1.2.0.3
 _ZN3kdk15KProgressDialog6cancelEv@Base 1.2.0.3
 _ZN3kdk15KProgressDialog6setBarEP12QProgressBar@Base 1.2.0.3
 _ZN3kdk15KProgressDialog8canceledEv@Base 1.2.0.3
 _ZN3kdk15KProgressDialog8setLabelEP6QLabel@Base 1.2.0.3
 _ZN3kdk15KProgressDialog8setRangeEii@Base 1.2.0.3
 _ZN3kdk15KProgressDialog8setValueEi@Base 1.2.0.3
 _ZN3kdk15KProgressDialog9setSuffixERK7QString@Base 1.2.0.3
 _ZN3kdk15KProgressDialogC1EP7QWidget@Base 1.2.0.3
 _ZN3kdk15KProgressDialogC1ERK7QStringS3_iiP7QWidget@Base 1.2.0.3
 _ZN3kdk15KProgressDialogC2EP7QWidget@Base 1.2.0.3
 _ZN3kdk15KProgressDialogC2ERK7QStringS3_iiP7QWidget@Base 1.2.0.3
 _ZN3kdk15KProgressDialogD0Ev@Base 1.2.0.3
 _ZN3kdk15KProgressDialogD1Ev@Base 1.2.0.3
 _ZN3kdk15KProgressDialogD2Ev@Base 1.2.0.3
 _ZN3kdk15KSearchLineEdit10setEnabledEb@Base 1.2.0.3
 _ZN3kdk15KSearchLineEdit10setVisibleEb@Base 1.2.0.3
 _ZN3kdk15KSearchLineEdit11eventFilterEP7QObjectP6QEvent@Base 1.2.0.3
 _ZN3kdk15KSearchLineEdit11qt_metacallEN11QMetaObject4CallEiPPv@Base 1.2.0.3
 _ZN3kdk15KSearchLineEdit11qt_metacastEPKc@Base 1.2.0.3
 _ZN3kdk15KSearchLineEdit11reloadStyleEv@Base 2.0.2.1
 _ZN3kdk15KSearchLineEdit11resizeEventEP12QResizeEvent@Base 1.2.0.3
 _ZN3kdk15KSearchLineEdit12setAlignmentE6QFlagsIN2Qt13AlignmentFlagEE@Base 1.2.0.3
 _ZN3kdk15KSearchLineEdit13isTranslucentEv@Base 2.0.0.0
 _ZN3kdk15KSearchLineEdit14setTranslucentEb@Base 2.0.0.0
 _ZN3kdk15KSearchLineEdit16staticMetaObjectE@Base 1.2.0.3
 _ZN3kdk15KSearchLineEdit18setPlaceholderTextERK7QString@Base 1.2.0.3
 _ZN3kdk15KSearchLineEdit21setClearButtonEnabledEb@Base 1.2.0.3
 _ZN3kdk15KSearchLineEdit23setPlaceholderAlignmentE6QFlagsIN2Qt13AlignmentFlagEE@Base 1.2.0.3
 _ZN3kdk15KSearchLineEdit5clearEv@Base 1.2.0.3
 _ZN3kdk15KSearchLineEdit9isEnabledEv@Base 1.2.0.3
 _ZN3kdk15KSearchLineEditC1EP7QWidget@Base 1.2.0.3
 _ZN3kdk15KSearchLineEditC2EP7QWidget@Base 1.2.0.3
 _ZN3kdk15KSearchLineEditD0Ev@Base 1.2.0.3
 _ZN3kdk15KSearchLineEditD1Ev@Base 1.2.0.3
 _ZN3kdk15KSearchLineEditD2Ev@Base 1.2.0.3
 _ZN3kdk15Parmscontroller11modeChangedEb@Base 2.0.2.1
 _ZN3kdk15Parmscontroller11qt_metacallEN11QMetaObject4CallEiPPv@Base 2.0.2.1
 _ZN3kdk15Parmscontroller11qt_metacastEPKc@Base 2.0.2.1
 _ZN3kdk15Parmscontroller12isTabletModeEv@Base 2.0.2.1
 _ZN3kdk15Parmscontroller16staticMetaObjectE@Base 2.0.2.1
 _ZN3kdk15Parmscontroller4parmENS0_4ParmE@Base 2.0.2.1
 _ZN3kdk15Parmscontroller4selfEv@Base 2.0.2.1
 _ZN3kdk15ParmscontrollerC1EP7QObject@Base 2.0.2.1
 _ZN3kdk15ParmscontrollerC2EP7QObject@Base 2.0.2.1
 _ZN3kdk15ParmscontrollerD0Ev@Base 2.0.2.1
 _ZN3kdk15ParmscontrollerD1Ev@Base 2.0.2.1
 _ZN3kdk15ParmscontrollerD2Ev@Base 2.0.2.1
 _ZN3kdk16KBackgroundGroup10paintEventEP11QPaintEvent@Base 2.0.2.1
 _ZN3kdk16KBackgroundGroup10widgetListEv@Base 2.0.2.1
 _ZN3kdk16KBackgroundGroup11eventFilterEP7QObjectP6QEvent@Base 2.0.2.1
 _ZN3kdk16KBackgroundGroup11qt_metacallEN11QMetaObject4CallEiPPv@Base 2.0.2.1
 _ZN3kdk16KBackgroundGroup11qt_metacastEPKc@Base 2.0.2.1
 _ZN3kdk16KBackgroundGroup12borderRadiusEv@Base 2.0.2.1
 _ZN3kdk16KBackgroundGroup12removeWidgetEP7QWidget@Base 2.0.2.1
 _ZN3kdk16KBackgroundGroup13addWidgetListE5QListIP7QWidgetE@Base 2.0.2.1
 _ZN3kdk16KBackgroundGroup14insertWidgetAtEiP7QWidget@Base 2.0.2.1
 _ZN3kdk16KBackgroundGroup14removeWidgetAtEi@Base 2.0.2.1
 _ZN3kdk16KBackgroundGroup14setStateEnableEP7QWidgetb@Base 2.0.2.1
 _ZN3kdk16KBackgroundGroup15setBorderRadiusEi@Base 2.0.2.1
 _ZN3kdk16KBackgroundGroup16insertWidgetListEi5QListIP7QWidgetE@Base 2.0.2.1
 _ZN3kdk16KBackgroundGroup16removeWidgetListE5QListIP7QWidgetE@Base 2.0.2.1
 _ZN3kdk16KBackgroundGroup16staticMetaObjectE@Base 2.0.2.1
 _ZN3kdk16KBackgroundGroup17setBackgroundRoleEN8QPalette9ColorRoleE@Base 2.0.2.1
 _ZN3kdk16KBackgroundGroup7clickedEP7QWidget@Base 2.0.2.1
 _ZN3kdk16KBackgroundGroup9addWidgetEP7QWidget@Base 2.0.2.1
 _ZN3kdk16KBackgroundGroupC1EP7QWidget@Base 2.0.2.1
 _ZN3kdk16KBackgroundGroupC2EP7QWidget@Base 2.0.2.1
 _ZN3kdk16KListViewPrivate11qt_metacallEN11QMetaObject4CallEiPPv@Base 1.2.0.3
 _ZN3kdk16KListViewPrivate11qt_metacastEPKc@Base 1.2.0.3
 _ZN3kdk16KListViewPrivate16staticMetaObjectE@Base 1.2.0.3
 _ZN3kdk16KListViewPrivateC1EPNS_9KListViewE@Base 1.2.0.3
 _ZN3kdk16KListViewPrivateC2EPNS_9KListViewE@Base 1.2.0.3
 _ZN3kdk16KPixmapContainer10clearValueEv@Base 1.2.0.3
 _ZN3kdk16KPixmapContainer10paintEventEP11QPaintEvent@Base 1.2.0.3
 _ZN3kdk16KPixmapContainer11qt_metacallEN11QMetaObject4CallEiPPv@Base 1.2.0.3
 _ZN3kdk16KPixmapContainer11qt_metacastEPKc@Base 1.2.0.3
 _ZN3kdk16KPixmapContainer11setFontSizeEi@Base 1.2.0.3
 _ZN3kdk16KPixmapContainer16setValueVisiableEb@Base 1.2.0.3
 _ZN3kdk16KPixmapContainer16staticMetaObjectE@Base 1.2.0.3
 _ZN3kdk16KPixmapContainer5colorEv@Base 1.2.0.3
 _ZN3kdk16KPixmapContainer8fontSizeEv@Base 1.2.0.3
 _ZN3kdk16KPixmapContainer8setColorERK6QColor@Base 1.2.0.3
 _ZN3kdk16KPixmapContainer8setValueEi@Base 1.2.0.3
 _ZN3kdk16KPixmapContainer9setPixmapERK7QPixmap@Base 1.2.0.3
 _ZN3kdk16KPixmapContainerC1EP7QWidget@Base 1.2.0.3
 _ZN3kdk16KPixmapContainerC2EP7QWidget@Base 1.2.0.3
 _ZN3kdk16KUninstallDialog11changeThemeEv@Base 1.2.0.3
 _ZN3kdk16KUninstallDialog11qt_metacallEN11QMetaObject4CallEiPPv@Base 1.2.0.3
 _ZN3kdk16KUninstallDialog11qt_metacastEPKc@Base 1.2.0.3
 _ZN3kdk16KUninstallDialog12debIconLabelEv@Base 1.2.0.3
 _ZN3kdk16KUninstallDialog12debNameLabelEv@Base 1.2.0.3
 _ZN3kdk16KUninstallDialog15debAppNameLabelEv@Base 1.2.0.3
 _ZN3kdk16KUninstallDialog15debVersionLabelEv@Base 1.2.0.3
 _ZN3kdk16KUninstallDialog16staticMetaObjectE@Base 1.2.0.3
 _ZN3kdk16KUninstallDialog16uninstallButttonEv@Base 1.2.0.3
 _ZN3kdk16KUninstallDialogC1E7QStringS1_P7QWidget@Base 1.2.0.3
 _ZN3kdk16KUninstallDialogC2E7QStringS1_P7QWidget@Base 1.2.0.3
 _ZN3kdk16KUninstallDialogD0Ev@Base 1.2.0.3
 _ZN3kdk16KUninstallDialogD1Ev@Base 1.2.0.3
 _ZN3kdk16KUninstallDialogD2Ev@Base 1.2.0.3
 _ZN3kdk16KWindowButtonBar10followModeEv@Base 2.0.2.1
 _ZN3kdk16KWindowButtonBar10menuButtonEv@Base 1.2.0.3
 _ZN3kdk16KWindowButtonBar11closeButtonEv@Base 1.2.0.3
 _ZN3kdk16KWindowButtonBar11doubleClickEv@Base 1.2.0.3
 _ZN3kdk16KWindowButtonBar11eventFilterEP7QObjectP6QEvent@Base 1.2.0.3
 _ZN3kdk16KWindowButtonBar11qt_metacallEN11QMetaObject4CallEiPPv@Base 1.2.0.3
 _ZN3kdk16KWindowButtonBar11qt_metacastEPKc@Base 1.2.0.3
 _ZN3kdk16KWindowButtonBar13maximumButtonEv@Base 1.2.0.3
 _ZN3kdk16KWindowButtonBar13minimumButtonEv@Base 1.2.0.3
 _ZN3kdk16KWindowButtonBar13setFollowModeEb@Base 2.0.2.1
 _ZN3kdk16KWindowButtonBar16staticMetaObjectE@Base 1.2.0.3
 _ZN3kdk16KWindowButtonBar18maximumButtonStateEv@Base 1.2.0.3
 _ZN3kdk16KWindowButtonBar21mouseDoubleClickEventEP11QMouseEvent@Base 1.2.0.3
 _ZN3kdk16KWindowButtonBar21setMaximumButtonStateENS_18MaximumButtonStateE@Base 1.2.0.3
 _ZN3kdk16KWindowButtonBarC1EP7QWidget@Base 1.2.0.3
 _ZN3kdk16KWindowButtonBarC2EP7QWidget@Base 1.2.0.3
 _ZN3kdk16KWindowButtonBarD0Ev@Base 1.2.0.3
 _ZN3kdk16KWindowButtonBarD1Ev@Base 1.2.0.3
 _ZN3kdk16KWindowButtonBarD2Ev@Base 1.2.0.3
 _ZN3kdk16ListViewDelegateC1EP7QObject@Base 2.0.2.1
 _ZN3kdk16ListViewDelegateC2EP7QObject@Base 2.0.2.1
 _ZN3kdk17KBallonTipPrivate11adjustStyleEv@Base 1.2.0.3
 _ZN3kdk17KBallonTipPrivate11changeThemeEv@Base 2.0.0.0
 _ZN3kdk17KBallonTipPrivate11qt_metacallEN11QMetaObject4CallEiPPv@Base 1.2.0.3
 _ZN3kdk17KBallonTipPrivate11qt_metacastEPKc@Base 1.2.0.3
 _ZN3kdk17KBallonTipPrivate16staticMetaObjectE@Base 1.2.0.3
 _ZN3kdk17KBallonTipPrivateC1EPNS_10KBallonTipE@Base 1.2.0.3
 _ZN3kdk17KBallonTipPrivateC2EPNS_10KBallonTipE@Base 1.2.0.3
 _ZN3kdk17KBorderlessButton10paintEventEP11QPaintEvent@Base 1.2.0.3
 _ZN3kdk17KBorderlessButton11eventFilterEP7QObjectP6QEvent@Base 1.2.0.3
 _ZN3kdk17KBorderlessButton11qt_metacallEN11QMetaObject4CallEiPPv@Base 1.2.0.3
 _ZN3kdk17KBorderlessButton11qt_metacastEPKc@Base 1.2.0.3
 _ZN3kdk17KBorderlessButton16staticMetaObjectE@Base 1.2.0.3
 _ZN3kdk17KBorderlessButton7setIconERK5QIcon@Base 1.2.0.3
 _ZN3kdk17KBorderlessButtonC1EP7QWidget@Base 1.2.0.3
 _ZN3kdk17KBorderlessButtonC1ERK5QIconP7QWidget@Base 1.2.0.3
 _ZN3kdk17KBorderlessButtonC1ERK5QIconRK7QStringP7QWidget@Base 1.2.0.3
 _ZN3kdk17KBorderlessButtonC1ERK7QStringP7QWidget@Base 1.2.0.3
 _ZN3kdk17KBorderlessButtonC2EP7QWidget@Base 1.2.0.3
 _ZN3kdk17KBorderlessButtonC2ERK5QIconP7QWidget@Base 1.2.0.3
 _ZN3kdk17KBorderlessButtonC2ERK5QIconRK7QStringP7QWidget@Base 1.2.0.3
 _ZN3kdk17KBorderlessButtonC2ERK7QStringP7QWidget@Base 1.2.0.3
 _ZN3kdk17KBorderlessButtonD0Ev@Base 1.2.0.3
 _ZN3kdk17KBorderlessButtonD1Ev@Base 1.2.0.3
 _ZN3kdk17KBorderlessButtonD2Ev@Base 1.2.0.3
 _ZN3kdk17KButtonBoxPrivate11qt_metacallEN11QMetaObject4CallEiPPv@Base 2.0.2.1
 _ZN3kdk17KButtonBoxPrivate11qt_metacastEPKc@Base 2.0.2.1
 _ZN3kdk17KButtonBoxPrivate16staticMetaObjectE@Base 2.0.2.1
 _ZN3kdk17KButtonBoxPrivate16updateButtonListEv@Base 2.0.2.1
 _ZN3kdk17KButtonBoxPrivate18updateBorderRadiusEv@Base 2.0.2.1
 _ZN3kdk17KButtonBoxPrivateC1EPNS_10KButtonBoxE@Base 2.0.2.1
 _ZN3kdk17KButtonBoxPrivateC2EPNS_10KButtonBoxE@Base 2.0.2.1
 _ZN3kdk17KListViewDelegate11qt_metacallEN11QMetaObject4CallEiPPv@Base 1.2.0.3
 _ZN3kdk17KListViewDelegate11qt_metacastEPKc@Base 1.2.0.3
 _ZN3kdk17KListViewDelegate16staticMetaObjectE@Base 1.2.0.3
 _ZN3kdk17KListViewDelegateC1EP17QAbstractItemView@Base 1.2.0.3
 _ZN3kdk17KListViewDelegateC2EP17QAbstractItemView@Base 1.2.0.3
 _ZN3kdk17KListViewDelegateD0Ev@Base 1.2.0.3
 _ZN3kdk17KListViewDelegateD1Ev@Base 1.2.0.3
 _ZN3kdk17KListViewDelegateD2Ev@Base 1.2.0.3
 _ZN3kdk17KSecurityLevelBar10paintEventEP11QPaintEvent@Base 1.2.0.3
 _ZN3kdk17KSecurityLevelBar11qt_metacallEN11QMetaObject4CallEiPPv@Base 1.2.0.3
 _ZN3kdk17KSecurityLevelBar11qt_metacastEPKc@Base 1.2.0.3
 _ZN3kdk17KSecurityLevelBar13securityLevelEv@Base 1.2.0.3
 _ZN3kdk17KSecurityLevelBar16setSecurityLevelENS_13SecurityLevelE@Base 1.2.0.3
 _ZN3kdk17KSecurityLevelBar16staticMetaObjectE@Base 1.2.0.3
 _ZN3kdk17KSecurityLevelBarC1EP7QWidget@Base 1.2.0.3
 _ZN3kdk17KSecurityLevelBarC2EP7QWidget@Base 1.2.0.3
 _ZN3kdk17KTranslucentFloor10enableBlurEv@Base 2.0.0.0
 _ZN3kdk17KTranslucentFloor10paintEventEP11QPaintEvent@Base 2.0.0.0
 _ZN3kdk17KTranslucentFloor10setOpacityEd@Base 2.0.0.0
 _ZN3kdk17KTranslucentFloor11qt_metacallEN11QMetaObject4CallEiPPv@Base 2.0.0.0
 _ZN3kdk17KTranslucentFloor11qt_metacastEPKc@Base 2.0.0.0
 _ZN3kdk17KTranslucentFloor12borderRadiusEv@Base 2.0.0.0
 _ZN3kdk17KTranslucentFloor13setEnableBlurEb@Base 2.0.0.0
 _ZN3kdk17KTranslucentFloor15setBorderRadiusEi@Base 2.0.0.0
 _ZN3kdk17KTranslucentFloor16staticMetaObjectE@Base 2.0.0.0
 _ZN3kdk17KTranslucentFloor6shadowEv@Base 2.0.0.0
 _ZN3kdk17KTranslucentFloor7opacityEv@Base 2.0.0.0
 _ZN3kdk17KTranslucentFloor9setShadowEb@Base 2.0.0.0
 _ZN3kdk17KTranslucentFloorC1EP7QWidget@Base 2.0.0.0
 _ZN3kdk17KTranslucentFloorC2EP7QWidget@Base 2.0.0.0
 _ZN3kdk18KBreadCrumbPrivate11qt_metacallEN11QMetaObject4CallEiPPv@Base 1.2.0.3
 _ZN3kdk18KBreadCrumbPrivate11qt_metacastEPKc@Base 1.2.0.3
 _ZN3kdk18KBreadCrumbPrivate16staticMetaObjectE@Base 1.2.0.3
 _ZN3kdk18KBreadCrumbPrivateC1EPNS_11KBreadCrumbE@Base 1.2.0.3
 _ZN3kdk18KBreadCrumbPrivateC2EPNS_11KBreadCrumbE@Base 1.2.0.3
 _ZN3kdk18KHLineFramePrivate11changeThemeEv@Base 2.0.2.1
 _ZN3kdk18KHLineFramePrivate11qt_metacallEN11QMetaObject4CallEiPPv@Base 2.0.2.1
 _ZN3kdk18KHLineFramePrivate11qt_metacastEPKc@Base 2.0.2.1
 _ZN3kdk18KHLineFramePrivate16staticMetaObjectE@Base 2.0.2.1
 _ZN3kdk18KHLineFramePrivateC1EPNS_11KHLineFrameE@Base 2.0.2.1
 _ZN3kdk18KHLineFramePrivateC2EPNS_11KHLineFrameE@Base 2.0.2.1
 _ZN3kdk18KItemWidgetPrivate11changeThemeEv@Base 1.2.0.3
 _ZN3kdk18KItemWidgetPrivate11qt_metacallEN11QMetaObject4CallEiPPv@Base 1.2.0.3
 _ZN3kdk18KItemWidgetPrivate11qt_metacastEPKc@Base 1.2.0.3
 _ZN3kdk18KItemWidgetPrivate16staticMetaObjectE@Base 1.2.0.3
 _ZN3kdk18KItemWidgetPrivateC1EPNS_11KItemWidgetE@Base 1.2.0.3
 _ZN3kdk18KItemWidgetPrivateC2EPNS_11KItemWidgetE@Base 1.2.0.3
 _ZN3kdk18KListWidgetPrivate11qt_metacallEN11QMetaObject4CallEiPPv@Base 1.2.0.3
 _ZN3kdk18KListWidgetPrivate11qt_metacastEPKc@Base 1.2.0.3
 _ZN3kdk18KListWidgetPrivate16staticMetaObjectE@Base 1.2.0.3
 _ZN3kdk18KListWidgetPrivateC1EPNS_11KListWidgetE@Base 1.2.0.3
 _ZN3kdk18KListWidgetPrivateC2EPNS_11KListWidgetE@Base 1.2.0.3
 _ZN3kdk18KMenuButtonPrivate11qt_metacallEN11QMetaObject4CallEiPPv@Base 1.2.0.3
 _ZN3kdk18KMenuButtonPrivate11qt_metacastEPKc@Base 1.2.0.3
 _ZN3kdk18KMenuButtonPrivate16staticMetaObjectE@Base 1.2.0.3
 _ZN3kdk18KMenuButtonPrivateC1EPNS_11KMenuButtonE@Base 1.2.0.3
 _ZN3kdk18KMenuButtonPrivateC2EPNS_11KMenuButtonE@Base 1.2.0.3
 _ZN3kdk18KMessageBoxPrivate10findButtonEiiii@Base 2.0.2.1
 _ZN3kdk18KMessageBoxPrivate10updateSizeEv@Base 2.0.2.1
 _ZN3kdk18KMessageBoxPrivate11changeThemeEv@Base 2.0.2.1
 _ZN3kdk18KMessageBoxPrivate11qt_metacallEN11QMetaObject4CallEiPPv@Base 2.0.2.1
 _ZN3kdk18KMessageBoxPrivate11qt_metacastEPKc@Base 2.0.2.1
 _ZN3kdk18KMessageBoxPrivate11setupLayoutEv@Base 2.0.2.1
 _ZN3kdk18KMessageBoxPrivate12standardIconENS_11KMessageBox4IconEPS1_@Base 2.0.2.1
 _ZN3kdk18KMessageBoxPrivate13addOldButtonsEiii@Base 2.0.2.1
 _ZN3kdk18KMessageBoxPrivate14execReturnCodeEP15QAbstractButton@Base 2.0.2.1
 _ZN3kdk18KMessageBoxPrivate16_q_buttonClickedEP15QAbstractButton@Base 2.0.2.1
 _ZN3kdk18KMessageBoxPrivate16setClickedButtonEP15QAbstractButton@Base 2.0.2.1
 _ZN3kdk18KMessageBoxPrivate16staticMetaObjectE@Base 2.0.2.1
 _ZN3kdk18KMessageBoxPrivate4initERK7QStringS3_@Base 2.0.2.1
 _ZN3kdk18KMessageBoxPrivateC1EPNS_11KMessageBoxE@Base 2.0.2.1
 _ZN3kdk18KMessageBoxPrivateC2EPNS_11KMessageBoxE@Base 2.0.2.1
 _ZN3kdk18KPushButtonPrivate11changeThemeEv@Base 2.0.0.0
 _ZN3kdk18KPushButtonPrivate11qt_metacallEN11QMetaObject4CallEiPPv@Base 2.0.0.0
 _ZN3kdk18KPushButtonPrivate11qt_metacastEPKc@Base 2.0.0.0
 _ZN3kdk18KPushButtonPrivate16staticMetaObjectE@Base 2.0.0.0
 _ZN3kdk18KToolButtonPrivate11changeThemeEv@Base 1.2.0.3
 _ZN3kdk18KToolButtonPrivate11qt_metacallEN11QMetaObject4CallEiPPv@Base 1.2.0.3
 _ZN3kdk18KToolButtonPrivate11qt_metacastEPKc@Base 1.2.0.3
 _ZN3kdk18KToolButtonPrivate13changePaletteEv@Base 1.2.0.3
 _ZN3kdk18KToolButtonPrivate14doLoadingFlashEv@Base 1.2.0.3
 _ZN3kdk18KToolButtonPrivate16staticMetaObjectE@Base 1.2.0.3
 _ZN3kdk18KToolButtonPrivateC1EPNS_11KToolButtonE@Base 1.2.0.3
 _ZN3kdk18KToolButtonPrivateC2EPNS_11KToolButtonE@Base 1.2.0.3
 _ZN3kdk18KVLineFramePrivate11changeThemeEv@Base 2.0.2.1
 _ZN3kdk18KVLineFramePrivate11qt_metacallEN11QMetaObject4CallEiPPv@Base 2.0.2.1
 _ZN3kdk18KVLineFramePrivate11qt_metacastEPKc@Base 2.0.2.1
 _ZN3kdk18KVLineFramePrivate16staticMetaObjectE@Base 2.0.2.1
 _ZN3kdk18KVLineFramePrivateC1EPNS_11KVLineFrameE@Base 2.0.2.1
 _ZN3kdk18KVLineFramePrivateC2EPNS_11KVLineFrameE@Base 2.0.2.1
 _ZN3kdk19KAboutDialogPrivate11isOpenLingmoEv@Base 2.0.0.0
 _ZN3kdk19KAboutDialogPrivate11qt_metacallEN11QMetaObject4CallEiPPv@Base 1.2.0.3
 _ZN3kdk19KAboutDialogPrivate11qt_metacastEPKc@Base 1.2.0.3
 _ZN3kdk19KAboutDialogPrivate14adjustMiniModeEv@Base 1.2.0.3
 _ZN3kdk19KAboutDialogPrivate15getDefaultAppIdEPKc@Base 2.0.0.0
 _ZN3kdk19KAboutDialogPrivate16staticMetaObjectE@Base 1.2.0.3
 _ZN3kdk19KAboutDialogPrivate20updateAppVersionTextEv@Base 2.1.1.0
 _ZN3kdk19KAboutDialogPrivateC1EPNS_12KAboutDialogE@Base 1.2.0.3
 _ZN3kdk19KAboutDialogPrivateC2EPNS_12KAboutDialogE@Base 1.2.0.3
 _ZN3kdk19KColorButtonPrivate11changeThemeEv@Base 2.0.2.1
 _ZN3kdk19KColorButtonPrivate11qt_metacallEN11QMetaObject4CallEiPPv@Base 2.0.2.1
 _ZN3kdk19KColorButtonPrivate11qt_metacastEPKc@Base 2.0.2.1
 _ZN3kdk19KColorButtonPrivate16staticMetaObjectE@Base 2.0.2.1
 _ZN3kdk19KColorButtonPrivateC1EPNS_12KColorButtonE@Base 2.0.2.1
 _ZN3kdk19KColorButtonPrivateC2EPNS_12KColorButtonE@Base 2.0.2.1
 _ZN3kdk19KInputDialogPrivate12ensureLayoutEv@Base 1.2.0.3
 _ZN3kdk19KInputDialogPrivate14_q_textChangedERK7QString@Base 1.2.0.3
 _ZN3kdk19KInputDialogPrivate14ensureComboBoxEv@Base 1.2.0.3
 _ZN3kdk19KInputDialogPrivate14ensureLineEditEv@Base 1.2.0.3
 _ZN3kdk19KInputDialogPrivate14ensureListViewEv@Base 1.2.0.3
 _ZN3kdk19KInputDialogPrivate14setInputWidgetEP7QWidget@Base 1.2.0.3
 _ZN3kdk19KInputDialogPrivate15setComboBoxTextERK7QString@Base 1.2.0.3
 _ZN3kdk19KInputDialogPrivate15setListViewTextERK7QString@Base 1.2.0.3
 _ZN3kdk19KInputDialogPrivate16ensureIntSpinBoxEv@Base 1.2.0.3
 _ZN3kdk19KInputDialogPrivate19ensureDoubleSpinBoxEv@Base 1.2.0.3
 _ZN3kdk19KInputDialogPrivate19ensurePlainTextEditEv@Base 1.2.0.3
 _ZN3kdk19KInputDialogPrivate20_q_currentRowChangedERK11QModelIndexS3_@Base 1.2.0.3
 _ZN3kdk19KInputDialogPrivate23ensureEnabledConnectionEP16QAbstractSpinBox@Base 1.2.0.3
 _ZN3kdk19KInputDialogPrivate26chooseRightTextInputWidgetEv@Base 1.2.0.3
 _ZN3kdk19KInputDialogPrivate27_q_plainTextEditTextChangedEv@Base 1.2.0.3
 _ZN3kdk19KInputDialogPrivateC1EPNS_12KInputDialogE@Base 1.2.0.3
 _ZN3kdk19KInputDialogPrivateC2EPNS_12KInputDialogE@Base 1.2.0.3
 _ZN3kdk19KInputDialogSpinBox11qt_metacallEN11QMetaObject4CallEiPPv@Base 1.2.0.3
 _ZN3kdk19KInputDialogSpinBox11qt_metacastEPKc@Base 1.2.0.3
 _ZN3kdk19KInputDialogSpinBox11textChangedEi@Base 1.2.0.3
 _ZN3kdk19KInputDialogSpinBox16staticMetaObjectE@Base 1.2.0.3
 _ZN3kdk19KPressButtonPrivate11changeThemeEv@Base 2.0.0.0
 _ZN3kdk19KPressButtonPrivate11qt_metacallEN11QMetaObject4CallEiPPv@Base 2.0.0.0
 _ZN3kdk19KPressButtonPrivate11qt_metacastEPKc@Base 2.0.0.0
 _ZN3kdk19KPressButtonPrivate16staticMetaObjectE@Base 2.0.0.0
 _ZN3kdk19KPressButtonPrivateC1EPNS_12KPressButtonE@Base 2.0.0.0
 _ZN3kdk19KPressButtonPrivateC2EPNS_12KPressButtonE@Base 2.0.0.0
 _ZN3kdk19KProgressBarPrivate11changeThemeEv@Base 1.2.0.3
 _ZN3kdk19KProgressBarPrivate11qt_metacallEN11QMetaObject4CallEiPPv@Base 1.2.0.3
 _ZN3kdk19KProgressBarPrivate11qt_metacastEPKc@Base 1.2.0.3
 _ZN3kdk19KProgressBarPrivate13calculateRectEv@Base 1.2.0.3
 _ZN3kdk19KProgressBarPrivate16staticMetaObjectE@Base 1.2.0.3
 _ZN3kdk19KProgressBarPrivate17calculateTextRectEv@Base 1.2.0.3
 _ZN3kdk19KProgressBarPrivate20progressStateChangedEv@Base 1.2.0.3
 _ZN3kdk19KProgressBarPrivate21calculateContenteRectEv@Base 1.2.0.3
 _ZN3kdk19KProgressBarPrivateC1EPNS_12KProgressBarE@Base 1.2.0.3
 _ZN3kdk19KProgressBarPrivateC2EPNS_12KProgressBarE@Base 1.2.0.3
 _ZN3kdk20KBorderButtonPrivate11changeThemeEv@Base 1.2.0.3
 _ZN3kdk20KBorderButtonPrivate11qt_metacallEN11QMetaObject4CallEiPPv@Base 1.2.0.3
 _ZN3kdk20KBorderButtonPrivate11qt_metacastEPKc@Base 1.2.0.3
 _ZN3kdk20KBorderButtonPrivate16staticMetaObjectE@Base 1.2.0.3
 _ZN3kdk20KBubbleWidgetPrivate11qt_metacallEN11QMetaObject4CallEiPPv@Base 2.0.0.0
 _ZN3kdk20KBubbleWidgetPrivate11qt_metacastEPKc@Base 2.0.0.0
 _ZN3kdk20KBubbleWidgetPrivate16staticMetaObjectE@Base 2.0.0.0
 _ZN3kdk20KBubbleWidgetPrivateC1EPNS_13KBubbleWidgetE@Base 2.0.0.0
 _ZN3kdk20KBubbleWidgetPrivateC2EPNS_13KBubbleWidgetE@Base 2.0.0.0
 _ZN3kdk20KCommentPanelPrivate11changeThemeEv@Base 1.2.0.3
 _ZN3kdk20KCommentPanelPrivate11qt_metacallEN11QMetaObject4CallEiPPv@Base 1.2.0.3
 _ZN3kdk20KCommentPanelPrivate11qt_metacastEPKc@Base 1.2.0.3
 _ZN3kdk20KCommentPanelPrivate16staticMetaObjectE@Base 1.2.0.3
 _ZN3kdk20KCommentPanelPrivateC1EPNS_13KCommentPanelE@Base 1.2.0.3
 _ZN3kdk20KCommentPanelPrivateC2EPNS_13KCommentPanelE@Base 1.2.0.3
 _ZN3kdk20KPasswordEditPrivate11changeThemeEv@Base 1.2.0.3
 _ZN3kdk20KPasswordEditPrivate11qt_metacallEN11QMetaObject4CallEiPPv@Base 1.2.0.3
 _ZN3kdk20KPasswordEditPrivate11qt_metacastEPKc@Base 1.2.0.3
 _ZN3kdk20KPasswordEditPrivate11repaintIconEv@Base 1.2.0.3
 _ZN3kdk20KPasswordEditPrivate12adjustLayoutEv@Base 1.2.0.3
 _ZN3kdk20KPasswordEditPrivate16staticMetaObjectE@Base 1.2.0.3
 _ZN3kdk20KPasswordEditPrivateC1EPNS_13KPasswordEditE@Base 1.2.0.3
 _ZN3kdk20KPasswordEditPrivateC2EPNS_13KPasswordEditE@Base 1.2.0.3
 _ZN3kdk20KSwitchButtonPrivate10drawSliderEP8QPainter@Base 1.2.0.3
 _ZN3kdk20KSwitchButtonPrivate11changeThemeEv@Base 1.2.0.3
 _ZN3kdk20KSwitchButtonPrivate11qt_metacallEN11QMetaObject4CallEiPPv@Base 1.2.0.3
 _ZN3kdk20KSwitchButtonPrivate11qt_metacastEPKc@Base 1.2.0.3
 _ZN3kdk20KSwitchButtonPrivate11stepChangedEv@Base 1.2.0.3
 _ZN3kdk20KSwitchButtonPrivate11updateColorERK18QStyleOptionButton@Base 1.2.0.3
 _ZN3kdk20KSwitchButtonPrivate14drawBackgroundEP8QPainter@Base 1.2.0.3
 _ZN3kdk20KSwitchButtonPrivate16staticMetaObjectE@Base 1.2.0.3
 _ZN3kdk21KColorComboBoxPrivate10updateListEv@Base 2.0.2.1
 _ZN3kdk21KColorComboBoxPrivate11qt_metacallEN11QMetaObject4CallEiPPv@Base 2.0.2.1
 _ZN3kdk21KColorComboBoxPrivate11qt_metacastEPKc@Base 2.0.2.1
 _ZN3kdk21KColorComboBoxPrivate13slotActivatedEi@Base 2.0.2.1
 _ZN3kdk21KColorComboBoxPrivate15slotHighlightedEi@Base 2.0.2.1
 _ZN3kdk21KColorComboBoxPrivate16staticMetaObjectE@Base 2.0.2.1
 _ZN3kdk21KColorComboBoxPrivate23slotCurrentIndexChangedEi@Base 2.0.2.1
 _ZN3kdk21KColorComboBoxPrivateC1EPNS_14KColorComboBoxE@Base 2.0.2.1
 _ZN3kdk21KColorComboBoxPrivateC2EPNS_14KColorComboBoxE@Base 2.0.2.1
 _ZN3kdk21KNavigationBarPrivate11changeThemeEv@Base 1.2.0.3
 _ZN3kdk21KNavigationBarPrivate11qt_metacallEN11QMetaObject4CallEiPPv@Base 1.2.0.3
 _ZN3kdk21KNavigationBarPrivate11qt_metacastEPKc@Base 1.2.0.3
 _ZN3kdk21KNavigationBarPrivate16staticMetaObjectE@Base 1.2.0.3
 _ZN3kdk21KNavigationBarPrivateC1EPNS_14KNavigationBarE@Base 1.2.0.3
 _ZN3kdk21KNavigationBarPrivateC2EPNS_14KNavigationBarE@Base 1.2.0.3
 _ZN3kdk22KColorComboBoxDelegate11qt_metacallEN11QMetaObject4CallEiPPv@Base 2.0.2.1
 _ZN3kdk22KColorComboBoxDelegate11qt_metacastEPKc@Base 2.0.2.1
 _ZN3kdk22KColorComboBoxDelegate16staticMetaObjectE@Base 2.0.2.1
 _ZN3kdk22KColorComboBoxDelegateC1EP7QObjectPNS_14KColorComboBoxE@Base 2.0.2.1
 _ZN3kdk22KColorComboBoxDelegateC2EP7QObjectPNS_14KColorComboBoxE@Base 2.0.2.1
 _ZN3kdk22KProgressCirclePrivate11changeThemeEv@Base 1.2.0.3
 _ZN3kdk22KProgressCirclePrivate11qt_metacallEN11QMetaObject4CallEiPPv@Base 1.2.0.3
 _ZN3kdk22KProgressCirclePrivate11qt_metacastEPKc@Base 1.2.0.3
 _ZN3kdk22KProgressCirclePrivate14drawBaseCircleEP8QPainter@Base 1.2.0.3
 _ZN3kdk22KProgressCirclePrivate16dawColoredCircleEP8QPainter@Base 1.2.0.3
 _ZN3kdk22KProgressCirclePrivate16staticMetaObjectE@Base 1.2.0.3
 _ZN3kdk22KProgressCirclePrivate17initDefaultFormatEv@Base 1.2.0.3
 _ZN3kdk22KProgressCirclePrivate19calculateCircleRectEv@Base 1.2.0.3
 _ZN3kdk22KProgressCirclePrivate8drawTextEP8QPainter@Base 1.2.0.3
 _ZN3kdk22KProgressCirclePrivateC1EPNS_15KProgressCircleE@Base 1.2.0.3
 _ZN3kdk22KProgressCirclePrivateC2EPNS_15KProgressCircleE@Base 1.2.0.3
 _ZN3kdk22KProgressDialogPrivate11qt_metacallEN11QMetaObject4CallEiPPv@Base 1.2.0.3
 _ZN3kdk22KProgressDialogPrivate11qt_metacastEPKc@Base 1.2.0.3
 _ZN3kdk22KProgressDialogPrivate16adjustNormalModeEv@Base 1.2.0.3
 _ZN3kdk22KProgressDialogPrivate16staticMetaObjectE@Base 1.2.0.3
 _ZN3kdk22KProgressDialogPrivate9infoResetEv@Base 1.2.0.3
 _ZN3kdk22KProgressDialogPrivateC1EPNS_15KProgressDialogE@Base 1.2.0.3
 _ZN3kdk22KProgressDialogPrivateC2EPNS_15KProgressDialogE@Base 1.2.0.3
 _ZN3kdk22KSearchLineEditPrivate11changeThemeEv@Base 1.2.0.3
 _ZN3kdk22KSearchLineEditPrivate11qt_metacallEN11QMetaObject4CallEiPPv@Base 1.2.0.3
 _ZN3kdk22KSearchLineEditPrivate11qt_metacastEPKc@Base 1.2.0.3
 _ZN3kdk22KSearchLineEditPrivate16adjustHolderRectEv@Base 1.2.0.3
 _ZN3kdk22KSearchLineEditPrivate16staticMetaObjectE@Base 1.2.0.3
 _ZN3kdk22KSearchLineEditPrivate17doEditingFinishedEv@Base 1.2.0.3
 _ZN3kdk22KSearchLineEditPrivate19doAnimationFinishedEv@Base 1.2.0.3
 _ZN3kdk22KSearchLineEditPrivate4initEv@Base 1.2.0.3
 _ZN3kdk22KSearchLineEditPrivateC1EPNS_15KSearchLineEditE@Base 1.2.0.3
 _ZN3kdk22KSearchLineEditPrivateC2EPNS_15KSearchLineEditE@Base 1.2.0.3
 _ZN3kdk23KBackgroundGroupPrivate11qt_metacallEN11QMetaObject4CallEiPPv@Base 2.0.2.1
 _ZN3kdk23KBackgroundGroupPrivate11qt_metacastEPKc@Base 2.0.2.1
 _ZN3kdk23KBackgroundGroupPrivate12updateLayoutEv@Base 2.0.2.1
 _ZN3kdk23KBackgroundGroupPrivate16staticMetaObjectE@Base 2.0.2.1
 _ZN3kdk23KBackgroundGroupPrivateC1EPNS_16KBackgroundGroupE@Base 2.0.2.1
 _ZN3kdk23KBackgroundGroupPrivateC2EPNS_16KBackgroundGroupE@Base 2.0.2.1
 _ZN3kdk23KPixmapContainerPrivate11qt_metacallEN11QMetaObject4CallEiPPv@Base 1.2.0.3
 _ZN3kdk23KPixmapContainerPrivate11qt_metacastEPKc@Base 1.2.0.3
 _ZN3kdk23KPixmapContainerPrivate16staticMetaObjectE@Base 1.2.0.3
 _ZN3kdk23KPixmapContainerPrivateC1EPNS_16KPixmapContainerE@Base 1.2.0.3
 _ZN3kdk23KPixmapContainerPrivateC2EPNS_16KPixmapContainerE@Base 1.2.0.3
 _ZN3kdk23KUninstallDialogPrivate11getIconPathE7QString@Base 1.2.0.3
 _ZN3kdk23KUninstallDialogPrivate11qt_metacallEN11QMetaObject4CallEiPPv@Base 1.2.0.3
 _ZN3kdk23KUninstallDialogPrivate11qt_metacastEPKc@Base 1.2.0.3
 _ZN3kdk23KUninstallDialogPrivate12getAppCnNameE7QString@Base 1.2.0.3
 _ZN3kdk23KUninstallDialogPrivate12resetAppInfoE7QStringS1_@Base 1.2.0.3
 _ZN3kdk23KUninstallDialogPrivate12setLabelTextEv@Base 1.2.0.3
 _ZN3kdk23KUninstallDialogPrivate16fontGsettingInitEv@Base 1.2.0.3
 _ZN3kdk23KUninstallDialogPrivate16staticMetaObjectE@Base 1.2.0.3
 _ZN3kdk23KUninstallDialogPrivate18setLabelStringBodyE7QStringP6QLabel@Base 1.2.0.3
 _ZN3kdk23KUninstallDialogPrivateC1EPNS_16KUninstallDialogE@Base 1.2.0.3
 _ZN3kdk23KUninstallDialogPrivateC2EPNS_16KUninstallDialogE@Base 1.2.0.3
 _ZN3kdk23KWindowButtonBarPrivate11changeThemeEv@Base 1.2.0.3
 _ZN3kdk23KWindowButtonBarPrivate11qt_metacallEN11QMetaObject4CallEiPPv@Base 1.2.0.3
 _ZN3kdk23KWindowButtonBarPrivate11qt_metacastEPKc@Base 1.2.0.3
 _ZN3kdk23KWindowButtonBarPrivate16staticMetaObjectE@Base 1.2.0.3
 _ZN3kdk23KWindowButtonBarPrivateC1EPNS_16KWindowButtonBarE@Base 1.2.0.3
 _ZN3kdk23KWindowButtonBarPrivateC2EPNS_16KWindowButtonBarE@Base 1.2.0.3
 _ZN3kdk24KBorderlessButtonPrivate11changeThemeEv@Base 1.2.0.3
 _ZN3kdk24KBorderlessButtonPrivate11qt_metacallEN11QMetaObject4CallEiPPv@Base 1.2.0.3
 _ZN3kdk24KBorderlessButtonPrivate11qt_metacastEPKc@Base 1.2.0.3
 _ZN3kdk24KBorderlessButtonPrivate16staticMetaObjectE@Base 1.2.0.3
 _ZN3kdk24KListViewDelegatePrivate11qt_metacallEN11QMetaObject4CallEiPPv@Base 1.2.0.3
 _ZN3kdk24KListViewDelegatePrivate11qt_metacastEPKc@Base 1.2.0.3
 _ZN3kdk24KListViewDelegatePrivate16staticMetaObjectE@Base 1.2.0.3
 _ZN3kdk24KListViewDelegatePrivateC1EPNS_17KListViewDelegateE@Base 1.2.0.3
 _ZN3kdk24KListViewDelegatePrivateC2EPNS_17KListViewDelegateE@Base 1.2.0.3
 _ZN3kdk24KListViewDelegatePrivateD0Ev@Base 1.2.0.3
 _ZN3kdk24KListViewDelegatePrivateD1Ev@Base 1.2.0.3
 _ZN3kdk24KListViewDelegatePrivateD2Ev@Base 1.2.0.3
 _ZN3kdk24KSecurityLevelBarPrivate11qt_metacallEN11QMetaObject4CallEiPPv@Base 1.2.0.3
 _ZN3kdk24KSecurityLevelBarPrivate11qt_metacastEPKc@Base 1.2.0.3
 _ZN3kdk24KSecurityLevelBarPrivate16staticMetaObjectE@Base 1.2.0.3
 _ZN3kdk24KSecurityLevelBarPrivateC1EPNS_17KSecurityLevelBarE@Base 1.2.0.3
 _ZN3kdk24KSecurityLevelBarPrivateC2EPNS_17KSecurityLevelBarE@Base 1.2.0.3
 _ZN3kdk24KTranslucentFloorPrivate11qt_metacallEN11QMetaObject4CallEiPPv@Base 2.0.0.0
 _ZN3kdk24KTranslucentFloorPrivate11qt_metacastEPKc@Base 2.0.0.0
 _ZN3kdk24KTranslucentFloorPrivate16staticMetaObjectE@Base 2.0.0.0
 _ZN3kdk24KTranslucentFloorPrivateC1EPNS_17KTranslucentFloorE@Base 2.0.0.0
 _ZN3kdk24KTranslucentFloorPrivateC2EPNS_17KTranslucentFloorE@Base 2.0.0.0
 _ZN3kdk25KInputDialogDoubleSpinBox11qt_metacallEN11QMetaObject4CallEiPPv@Base 1.2.0.3
 _ZN3kdk25KInputDialogDoubleSpinBox11qt_metacastEPKc@Base 1.2.0.3
 _ZN3kdk25KInputDialogDoubleSpinBox11textChangedEi@Base 1.2.0.3
 _ZN3kdk25KInputDialogDoubleSpinBox16staticMetaObjectE@Base 1.2.0.3
 _ZN3kdk4KTag10paintEventEP11QPaintEvent@Base 1.2.0.3
 _ZN3kdk4KTag11qt_metacallEN11QMetaObject4CallEiPPv@Base 1.2.0.3
 _ZN3kdk4KTag11qt_metacastEPKc@Base 1.2.0.3
 _ZN3kdk4KTag11setClosableEb@Base 1.2.0.3
 _ZN3kdk4KTag11setTagStyleENS_8TagStyleE@Base 1.2.0.3
 _ZN3kdk4KTag16staticMetaObjectE@Base 1.2.0.3
 _ZN3kdk4KTag4textEv@Base 1.2.0.3
 _ZN3kdk4KTag7setTextERK7QString@Base 1.2.0.3
 _ZN3kdk4KTag8closableEv@Base 1.2.0.3
 _ZN3kdk4KTag8tagStyleEv@Base 1.2.0.3
 _ZN3kdk4KTagC1EP7QWidget@Base 1.2.0.3
 _ZN3kdk4KTagC2EP7QWidget@Base 1.2.0.3
 _ZN3kdk6KBadge10paintEventEP11QPaintEvent@Base 1.2.0.3
 _ZN3kdk6KBadge11qt_metacallEN11QMetaObject4CallEiPPv@Base 1.2.0.3
 _ZN3kdk6KBadge11qt_metacastEPKc@Base 1.2.0.3
 _ZN3kdk6KBadge11resizeEventEP12QResizeEvent@Base 1.2.0.3
 _ZN3kdk6KBadge11setFontSizeEi@Base 1.2.0.3
 _ZN3kdk6KBadge16setValueVisiableEb@Base 1.2.0.3
 _ZN3kdk6KBadge16staticMetaObjectE@Base 1.2.0.3
 _ZN3kdk6KBadge5colorEv@Base 1.2.0.3
 _ZN3kdk6KBadge5valueEv@Base 1.2.0.3
 _ZN3kdk6KBadge8fontSizeEv@Base 1.2.0.3
 _ZN3kdk6KBadge8setColorERK6QColor@Base 1.2.0.3
 _ZN3kdk6KBadge8setValueEi@Base 1.2.0.3
 _ZN3kdk6KBadgeC1EP7QWidget@Base 1.2.0.3
 _ZN3kdk6KBadgeC2EP7QWidget@Base 1.2.0.3
 _ZN3kdk7KDialog10mainLayoutEv@Base 2.0.0.0
 _ZN3kdk7KDialog10mainWidgetEv@Base 1.2.0.3
 _ZN3kdk7KDialog10menuButtonEv@Base 1.2.0.3
 _ZN3kdk7KDialog11changeThemeEv@Base 1.2.0.3
 _ZN3kdk7KDialog11closeButtonEv@Base 1.2.0.3
 _ZN3kdk7KDialog11eventFilterEP7QObjectP6QEvent@Base 1.2.0.3
 _ZN3kdk7KDialog11qt_metacallEN11QMetaObject4CallEiPPv@Base 1.2.0.3
 _ZN3kdk7KDialog11qt_metacastEPKc@Base 1.2.0.3
 _ZN3kdk7KDialog13maximumButtonEv@Base 1.2.0.3
 _ZN3kdk7KDialog13minimumButtonEv@Base 1.2.0.3
 _ZN3kdk7KDialog13setWindowIconERK5QIcon@Base 1.2.0.3
 _ZN3kdk7KDialog13setWindowIconERK7QString@Base 1.2.0.3
 _ZN3kdk7KDialog14setWindowTitleERK7QString@Base 1.2.0.3
 _ZN3kdk7KDialog15changeIconStyleEv@Base 1.2.0.3
 _ZN3kdk7KDialog16staticMetaObjectE@Base 1.2.0.3
 _ZN3kdk7KDialogC1EP7QWidget@Base 1.2.0.3
 _ZN3kdk7KDialogC2EP7QWidget@Base 1.2.0.3
 _ZN3kdk7KDialogD0Ev@Base 1.2.0.3
 _ZN3kdk7KDialogD1Ev@Base 1.2.0.3
 _ZN3kdk7KDialogD2Ev@Base 1.2.0.3
 _ZN3kdk7KSlider10paintEventEP11QPaintEvent@Base 1.2.0.3
 _ZN3kdk7KSlider10setToolTipERK7QString@Base 2.0.0.0
 _ZN3kdk7KSlider10sliderTypeEv@Base 1.2.0.3
 _ZN3kdk7KSlider10wheelEventEP11QWheelEvent@Base 1.2.0.3
 _ZN3kdk7KSlider11eventFilterEP7QObjectP6QEvent@Base 1.2.0.3
 _ZN3kdk7KSlider11nodeVisibleEv@Base 1.2.0.3
 _ZN3kdk7KSlider11qt_metacallEN11QMetaObject4CallEiPPv@Base 1.2.0.3
 _ZN3kdk7KSlider11qt_metacastEPKc@Base 1.2.0.3
 _ZN3kdk7KSlider11resizeEventEP12QResizeEvent@Base 1.2.0.3
 _ZN3kdk7KSlider13isTranslucentEv@Base 2.0.0.0
 _ZN3kdk7KSlider13setSliderTypeENS_11KSliderTypeE@Base 1.2.0.3
 _ZN3kdk7KSlider14mouseMoveEventEP11QMouseEvent@Base 1.2.0.3
 _ZN3kdk7KSlider14setNodeVisibleEb@Base 1.2.0.3
 _ZN3kdk7KSlider14setTranslucentEb@Base 2.0.0.0
 _ZN3kdk7KSlider15mousePressEventEP11QMouseEvent@Base 1.2.0.3
 _ZN3kdk7KSlider15setTickIntervalEi@Base 1.2.0.3
 _ZN3kdk7KSlider16staticMetaObjectE@Base 1.2.0.3
 _ZN3kdk7KSlider17mouseReleaseEventEP11QMouseEvent@Base 1.2.0.3
 _ZN3kdk7KSlider8setValueEi@Base 1.2.0.3
 _ZN3kdk7KSliderC1EN2Qt11OrientationEP7QWidget@Base 1.2.0.3
 _ZN3kdk7KSliderC1EP7QWidget@Base 1.2.0.3
 _ZN3kdk7KSliderC2EN2Qt11OrientationEP7QWidget@Base 1.2.0.3
 _ZN3kdk7KSliderC2EP7QWidget@Base 1.2.0.3
 _ZN3kdk7KTabBar10paintEventEP11QPaintEvent@Base 1.2.0.3
 _ZN3kdk7KTabBar11qt_metacallEN11QMetaObject4CallEiPPv@Base 1.2.0.3
 _ZN3kdk7KTabBar11qt_metacastEPKc@Base 1.2.0.3
 _ZN3kdk7KTabBar12borderRadiusEv@Base 1.2.0.3
 _ZN3kdk7KTabBar14setTabBarStyleENS_12KTabBarStyleE@Base 1.2.0.3
 _ZN3kdk7KTabBar15setBorderRadiusEi@Base 1.2.0.3
 _ZN3kdk7KTabBar16staticMetaObjectE@Base 1.2.0.3
 _ZN3kdk7KTabBar18setBackgroundColorERK6QColor@Base 1.2.0.3
 _ZN3kdk7KTabBar8barStyleEv@Base 1.2.0.3
 _ZN3kdk7KTabBarC1ENS_12KTabBarStyleEP7QWidget@Base 1.2.0.3
 _ZN3kdk7KTabBarC2ENS_12KTabBarStyleEP7QWidget@Base 1.2.0.3
 _ZN3kdk7KTabBarD0Ev@Base 1.2.0.3
 _ZN3kdk7KTabBarD1Ev@Base 1.2.0.3
 _ZN3kdk7KTabBarD2Ev@Base 1.2.0.3
 _ZN3kdk7KWidget11changeThemeEv@Base 1.2.0.3
 _ZN3kdk7KWidget11eventFilterEP7QObjectP6QEvent@Base 1.2.0.3
 _ZN3kdk7KWidget11qt_metacallEN11QMetaObject4CallEiPPv@Base 1.2.0.3
 _ZN3kdk7KWidget11qt_metacastEPKc@Base 1.2.0.3
 _ZN3kdk7KWidget13setLayoutTypeENS_10LayoutTypeE@Base 1.2.0.3
 _ZN3kdk7KWidget13setWidgetNameERK7QString@Base 1.2.0.3
 _ZN3kdk7KWidget13setWindowFlagEN2Qt10WindowTypeEb@Base 2.0.0.0
 _ZN3kdk7KWidget14setWindowFlagsE6QFlagsIN2Qt10WindowTypeEE@Base 2.0.0.0
 _ZN3kdk7KWidget15changeIconStyleEv@Base 1.2.0.3
 _ZN3kdk7KWidget15windowButtonBarEv@Base 1.2.0.3
 _ZN3kdk7KWidget16staticMetaObjectE@Base 1.2.0.3
 _ZN3kdk7KWidget17sidebarFollowModeEv@Base 2.1.1.0
 _ZN3kdk7KWidget20setSidebarFollowModeEb@Base 2.1.1.0
 _ZN3kdk7KWidget7baseBarEv@Base 1.2.0.3
 _ZN3kdk7KWidget7iconBarEv@Base 1.2.0.3
 _ZN3kdk7KWidget7setIconERK5QIcon@Base 1.2.0.3
 _ZN3kdk7KWidget7setIconERK7QString@Base 1.2.0.3
 _ZN3kdk7KWidget7sideBarEv@Base 1.2.0.3
 _ZN3kdk7KWidgetC1EP7QWidget@Base 1.2.0.3
 _ZN3kdk7KWidgetC2EP7QWidget@Base 1.2.0.3
 _ZN3kdk7KWidgetD0Ev@Base 1.2.0.3
 _ZN3kdk7KWidgetD1Ev@Base 1.2.0.3
 _ZN3kdk7KWidgetD2Ev@Base 1.2.0.3
 _ZN3kdk7effects13KShadowHelper11qt_metacallEN11QMetaObject4CallEiPPv@Base 2.0.0.0
 _ZN3kdk7effects13KShadowHelper11qt_metacastEPKc@Base 2.0.0.0
 _ZN3kdk7effects13KShadowHelper16staticMetaObjectE@Base 2.0.0.0
 _ZN3kdk7effects13KShadowHelper4selfEv@Base 2.0.0.0
 _ZN3kdk7effects13KShadowHelper9setWidgetEP7QWidgetiid@Base 2.0.0.0
 _ZN3kdk7effects13KShadowHelperC1EP7QObject@Base 2.0.0.0
 _ZN3kdk7effects13KShadowHelperC2EP7QObject@Base 2.0.0.0
 _ZN3kdk7effects20KShadowHelperPrivate11eventFilterEP7QObjectP6QEvent@Base 2.0.0.0
 _ZN3kdk7effects20KShadowHelperPrivate11qt_metacallEN11QMetaObject4CallEiPPv@Base 2.0.0.0
 _ZN3kdk7effects20KShadowHelperPrivate11qt_metacastEPKc@Base 2.0.0.0
 _ZN3kdk7effects20KShadowHelperPrivate15getShadowPixmapE6QColoridi@Base 2.0.0.0
 _ZN3kdk7effects20KShadowHelperPrivate16staticMetaObjectE@Base 2.0.0.0
 _ZN3kdk7effects20KShadowHelperPrivate9getShadowE6QColoridi@Base 2.0.0.0
 _ZN3kdk7effects20KShadowHelperPrivateC1EPNS0_13KShadowHelperE@Base 2.0.0.0
 _ZN3kdk7effects20KShadowHelperPrivateC2EPNS0_13KShadowHelperE@Base 2.0.0.0
 _ZN3kdk8DelegateC1EP7QObjectP9QListView@Base 2.0.0.0
 _ZN3kdk8DelegateC2EP7QObjectP9QListView@Base 2.0.0.0
 _ZN3kdk8KIconBar11doubleClickEv@Base 1.2.0.3
 _ZN3kdk8KIconBar11qt_metacallEN11QMetaObject4CallEiPPv@Base 1.2.0.3
 _ZN3kdk8KIconBar11qt_metacastEPKc@Base 1.2.0.3
 _ZN3kdk8KIconBar11resizeEventEP12QResizeEvent@Base 2.0.0.0
 _ZN3kdk8KIconBar13setWidgetNameERK7QString@Base 1.2.0.3
 _ZN3kdk8KIconBar16staticMetaObjectE@Base 1.2.0.3
 _ZN3kdk8KIconBar21mouseDoubleClickEventEP11QMouseEvent@Base 1.2.0.3
 _ZN3kdk8KIconBar7setIconERK5QIcon@Base 1.2.0.3
 _ZN3kdk8KIconBar7setIconERK7QString@Base 1.2.0.3
 _ZN3kdk8KIconBar9iconLabelEv@Base 1.2.0.3
 _ZN3kdk8KIconBar9nameLabelEv@Base 1.2.0.3
 _ZN3kdk8KIconBarC1EP7QWidget@Base 1.2.0.3
 _ZN3kdk8KIconBarC1ERK7QStringS3_P7QWidget@Base 1.2.0.3
 _ZN3kdk8KIconBarC2EP7QWidget@Base 1.2.0.3
 _ZN3kdk8KIconBarC2ERK7QStringS3_P7QWidget@Base 1.2.0.3
 _ZN3kdk8KIconBarD0Ev@Base 1.2.0.3
 _ZN3kdk8KIconBarD1Ev@Base 1.2.0.3
 _ZN3kdk8KIconBarD2Ev@Base 1.2.0.3
 _ZN3kdk8ListView15mousePressEventEP11QMouseEvent@Base 2.0.0.0
 _ZN3kdk8ListViewC1EP7QWidget@Base 2.0.0.0
 _ZN3kdk8ListViewC2EP7QWidget@Base 2.0.0.0
 _ZN3kdk9KListView11qt_metacallEN11QMetaObject4CallEiPPv@Base 1.2.0.3
 _ZN3kdk9KListView11qt_metacastEPKc@Base 1.2.0.3
 _ZN3kdk9KListView15mousePressEventEP11QMouseEvent@Base 1.2.0.3
 _ZN3kdk9KListView16staticMetaObjectE@Base 1.2.0.3
 _ZN3kdk9KListViewC1EP7QWidget@Base 1.2.0.3
 _ZN3kdk9KListViewC2EP7QWidget@Base 1.2.0.3
 _ZN3kdk9LinkLabel11qt_metacallEN11QMetaObject4CallEiPPv@Base 2.0.0.0
 _ZN3kdk9LinkLabel11qt_metacastEPKc@Base 2.0.0.0
 _ZN3kdk9LinkLabel15mousePressEventEP11QMouseEvent@Base 2.0.0.0
 _ZN3kdk9LinkLabel16staticMetaObjectE@Base 2.0.0.0
 _ZN3kdk9LinkLabelC1EP7QWidget@Base 2.0.0.0
 _ZN3kdk9LinkLabelC2EP7QWidget@Base 2.0.0.0
 (optional=templinst)_ZN9QtPrivate11QSlotObjectIM7QWidgetFbvENS_4ListIJEEEvE4implEiPNS_15QSlotObjectBaseEP7QObjectPPvPb@Base 1.2.0.3
 (optional=templinst)_ZN9QtPrivate11QSlotObjectIM7QWidgetFvvENS_4ListIJEEEvE4implEiPNS_15QSlotObjectBaseEP7QObjectPPvPb@Base 1.2.0.3
 (optional=templinst)_ZN9QtPrivate11QSlotObjectIMN3kdk12KInputDialogEFvvENS_4ListIJEEEvE4implEiPNS_15QSlotObjectBaseEP7QObjectPPvPb@Base 1.2.0.3
 (optional=templinst)_ZN9QtPrivate11QSlotObjectIMN3kdk14KSliderPrivateEFvvENS_4ListIJEEEvE4implEiPNS_15QSlotObjectBaseEP7QObjectPPvPb@Base 1.2.0.3
 (optional=templinst)_ZN9QtPrivate11QSlotObjectIMN3kdk14KTabBarPrivateEFvvENS_4ListIJEEEvE4implEiPNS_15QSlotObjectBaseEP7QObjectPPvPb@Base 1.2.0.3
 (optional=templinst)_ZN9QtPrivate11QSlotObjectIMN3kdk15KIconBarPrivateEFvvENS_4ListIJEEEvE4implEiPNS_15QSlotObjectBaseEP7QObjectPPvPb@Base 1.2.0.3
 (optional=templinst)_ZN9QtPrivate11QSlotObjectIMN3kdk15KProgressDialogEFvvENS_4ListIJEEEvE4implEiPNS_15QSlotObjectBaseEP7QObjectPPvPb@Base 1.2.0.3
 (optional=templinst)_ZN9QtPrivate11QSlotObjectIMN3kdk18KItemWidgetPrivateEFvvENS_4ListIJEEEvE4implEiPNS_15QSlotObjectBaseEP7QObjectPPvPb@Base 1.2.0.3
 (optional=templinst)_ZN9QtPrivate11QSlotObjectIMN3kdk18KPushButtonPrivateEFvvENS_4ListIJEEEvE4implEiPNS_15QSlotObjectBaseEP7QObjectPPvPb@Base 2.0.0.0
 (optional=templinst)_ZN9QtPrivate11QSlotObjectIMN3kdk18KToolButtonPrivateEFvvENS_4ListIJEEEvE4implEiPNS_15QSlotObjectBaseEP7QObjectPPvPb@Base 1.2.0.3
 (optional=templinst)_ZN9QtPrivate11QSlotObjectIMN3kdk19KProgressBarPrivateEFvvENS_4ListIJEEEvE4implEiPNS_15QSlotObjectBaseEP7QObjectPPvPb@Base 1.2.0.3
 (optional=templinst)_ZN9QtPrivate11QSlotObjectIMN3kdk20KCommentPanelPrivateEFvvENS_4ListIJEEEvE4implEiPNS_15QSlotObjectBaseEP7QObjectPPvPb@Base 1.2.0.3
 (optional=templinst)_ZN9QtPrivate11QSlotObjectIMN3kdk20KPasswordEditPrivateEFvvENS_4ListIJEEEvE4implEiPNS_15QSlotObjectBaseEP7QObjectPPvPb@Base 1.2.0.3
 (optional=templinst)_ZN9QtPrivate11QSlotObjectIMN3kdk20KSwitchButtonPrivateEFvvENS_4ListIJEEEvE4implEiPNS_15QSlotObjectBaseEP7QObjectPPvPb@Base 1.2.0.3
 (optional=templinst)_ZN9QtPrivate11QSlotObjectIMN3kdk22KProgressCirclePrivateEFvvENS_4ListIJEEEvE4implEiPNS_15QSlotObjectBaseEP7QObjectPPvPb@Base 1.2.0.3
 (optional=templinst)_ZN9QtPrivate11QSlotObjectIMN3kdk22KSearchLineEditPrivateEFvvENS_4ListIJEEEvE4implEiPNS_15QSlotObjectBaseEP7QObjectPPvPb@Base 1.2.0.3
 (optional=templinst)_ZN9QtPrivate11QSlotObjectIMN3kdk7KDialogEFvvENS_4ListIJEEEvE4implEiPNS_15QSlotObjectBaseEP7QObjectPPvPb@Base 1.2.0.3
 _ZNK3kdk10KBallonTip10metaObjectEv@Base 1.2.0.3
 _ZNK3kdk10KButtonBox10metaObjectEv@Base 2.0.2.1
 _ZNK3kdk11KBreadCrumb10metaObjectEv@Base 1.2.0.3
 _ZNK3kdk11KBreadCrumb11tabSizeHintEi@Base 1.2.0.3
 _ZNK3kdk11KBreadCrumb4iconEv@Base 1.2.0.3
 _ZNK3kdk11KBreadCrumb6isFlatEv@Base 1.2.0.3
 _ZNK3kdk11KComboStyle16sizeFromContentsEN6QStyle12ContentsTypeEPK12QStyleOptionRK5QSizePK7QWidget@Base 2.0.2.1
 _ZNK3kdk11KHLineFrame10metaObjectEv@Base 2.0.2.1
 _ZNK3kdk11KItemWidget10metaObjectEv@Base 1.2.0.3
 _ZNK3kdk11KListWidget10metaObjectEv@Base 1.2.0.3
 _ZNK3kdk11KMenuButton10metaObjectEv@Base 1.2.0.3
 _ZNK3kdk11KMenuButton8sizeHintEv@Base 2.0.2.1
 _ZNK3kdk11KMessageBox10buttonRoleEP15QAbstractButton@Base 2.0.2.1
 _ZNK3kdk11KMessageBox10iconPixmapEv@Base 2.0.2.1
 _ZNK3kdk11KMessageBox10metaObjectEv@Base 2.0.2.1
 _ZNK3kdk11KMessageBox13clickedButtonEv@Base 2.0.2.1
 _ZNK3kdk11KMessageBox13defaultButtonEv@Base 2.0.2.1
 _ZNK3kdk11KMessageBox14standardButtonEP15QAbstractButton@Base 2.0.2.1
 _ZNK3kdk11KMessageBox15informativeTextEv@Base 2.0.2.1
 _ZNK3kdk11KMessageBox15standardButtonsEv@Base 2.0.2.1
 _ZNK3kdk11KMessageBox4iconEv@Base 2.0.2.1
 _ZNK3kdk11KMessageBox4textEv@Base 2.0.2.1
 _ZNK3kdk11KMessageBox6buttonENS0_14StandardButtonE@Base 2.0.2.1
 _ZNK3kdk11KMessageBox7buttonsEv@Base 2.0.2.1
 _ZNK3kdk11KMessageBox8checkBoxEv@Base 2.0.2.1
 _ZNK3kdk11KPushButton10metaObjectEv@Base 2.0.0.0
 _ZNK3kdk11KTagPrivate10metaObjectEv@Base 1.2.0.3
 _ZNK3kdk11KToolButton10metaObjectEv@Base 1.2.0.3
 _ZNK3kdk11KToolButton8hasArrowEv@Base 1.2.0.3
 _ZNK3kdk11KToolButton8sizeHintEv@Base 1.2.0.3
 _ZNK3kdk11KVLineFrame10metaObjectEv@Base 2.0.2.1
 _ZNK3kdk11XAtomHelper10metaObjectEv@Base 1.2.0.3
 _ZNK3kdk12KAboutDialog10metaObjectEv@Base 1.2.0.3
 _ZNK3kdk12KColorButton10metaObjectEv@Base 2.0.2.1
 _ZNK3kdk12KColorButton8sizeHintEv@Base 2.0.2.1
 _ZNK3kdk12KInputDialog10doubleStepEv@Base 1.2.0.3
 _ZNK3kdk12KInputDialog10intMaximumEv@Base 1.2.0.3
 _ZNK3kdk12KInputDialog10intMinimumEv@Base 1.2.0.3
 _ZNK3kdk12KInputDialog10metaObjectEv@Base 1.2.0.3
 _ZNK3kdk12KInputDialog10testOptionENS0_17InputDialogOptionE@Base 1.2.0.3
 _ZNK3kdk12KInputDialog11doubleValueEv@Base 1.2.0.3
 _ZNK3kdk12KInputDialog12okButtonTextEv@Base 1.2.0.3
 _ZNK3kdk12KInputDialog12textEchoModeEv@Base 1.2.0.3
 _ZNK3kdk12KInputDialog13comboBoxItemsEv@Base 1.2.0.3
 _ZNK3kdk12KInputDialog13doubleMaximumEv@Base 1.2.0.3
 _ZNK3kdk12KInputDialog13doubleMinimumEv@Base 1.2.0.3
 _ZNK3kdk12KInputDialog14doubleDecimalsEv@Base 1.2.0.3
 _ZNK3kdk12KInputDialog15minimumSizeHintEv@Base 1.2.0.3
 _ZNK3kdk12KInputDialog15placeholderTextEv@Base 2.0.0.0
 _ZNK3kdk12KInputDialog16cancelButtonTextEv@Base 1.2.0.3
 _ZNK3kdk12KInputDialog18isComboBoxEditableEv@Base 1.2.0.3
 _ZNK3kdk12KInputDialog7intStepEv@Base 1.2.0.3
 _ZNK3kdk12KInputDialog7optionsEv@Base 1.2.0.3
 _ZNK3kdk12KInputDialog8intValueEv@Base 1.2.0.3
 _ZNK3kdk12KInputDialog8sizeHintEv@Base 1.2.0.3
 _ZNK3kdk12KInputDialog9inputModeEv@Base 1.2.0.3
 _ZNK3kdk12KInputDialog9labelTextEv@Base 1.2.0.3
 _ZNK3kdk12KInputDialog9textValueEv@Base 1.2.0.3
 _ZNK3kdk12KPressButton10metaObjectEv@Base 2.0.0.0
 _ZNK3kdk12KPressButton11isCheckableEv@Base 2.0.0.0
 _ZNK3kdk12KPressButton9isCheckedEv@Base 2.0.0.0
 _ZNK3kdk12KProgressBar10metaObjectEv@Base 1.2.0.3
 _ZNK3kdk12KProgressBar4textEv@Base 1.2.0.3
 _ZNK3kdk12KProgressBar8sizeHintEv@Base 1.2.0.3
 _ZNK3kdk13KBadgePrivate10metaObjectEv@Base 1.2.0.3
 _ZNK3kdk13KBorderButton10metaObjectEv@Base 1.2.0.3
 _ZNK3kdk13KBorderButton8sizeHintEv@Base 2.0.2.1
 _ZNK3kdk13KBubbleWidget10metaObjectEv@Base 2.0.0.0
 _ZNK3kdk13KCommentPanel10metaObjectEv@Base 1.2.0.3
 _ZNK3kdk13KPasswordEdit10metaObjectEv@Base 1.2.0.3
 _ZNK3kdk13KPasswordEdit20isClearButtonEnabledEv@Base 1.2.0.3
 _ZNK3kdk13KPasswordEdit8sizeHintEv@Base 2.0.2.1
 _ZNK3kdk13KSwitchButton10metaObjectEv@Base 1.2.0.3
 _ZNK3kdk13KSwitchButton11isCheckableEv@Base 1.2.0.3
 _ZNK3kdk13KSwitchButton8sizeHintEv@Base 1.2.0.3
 _ZNK3kdk13KSwitchButton9isCheckedEv@Base 1.2.0.3
 _ZNK3kdk14KColorComboBox10metaObjectEv@Base 2.0.2.1
 _ZNK3kdk14KDialogPrivate10metaObjectEv@Base 1.2.0.3
 _ZNK3kdk14KNavigationBar10metaObjectEv@Base 1.2.0.3
 _ZNK3kdk14KTabBarPrivate10metaObjectEv@Base 1.2.0.3
 _ZNK3kdk14KWidgetPrivate10metaObjectEv@Base 1.2.0.3
 _ZNK3kdk15KIconBarPrivate10metaObjectEv@Base 1.2.0.3
 _ZNK3kdk15KProgressCircle10metaObjectEv@Base 1.2.0.3
 _ZNK3kdk15KProgressCircle13isTextVisibleEv@Base 1.2.0.3
 _ZNK3kdk15KProgressCircle4textEv@Base 1.2.0.3
 _ZNK3kdk15KProgressCircle5valueEv@Base 1.2.0.3
 _ZNK3kdk15KProgressCircle7maximumEv@Base 1.2.0.3
 _ZNK3kdk15KProgressCircle7minimumEv@Base 1.2.0.3
 _ZNK3kdk15KProgressDialog10metaObjectEv@Base 1.2.0.3
 _ZNK3kdk15KProgressDialog5valueEv@Base 1.2.0.3
 _ZNK3kdk15KProgressDialog7maximumEv@Base 1.2.0.3
 _ZNK3kdk15KProgressDialog7minimumEv@Base 1.2.0.3
 _ZNK3kdk15KProgressDialog9autoCloseEv@Base 1.2.0.3
 _ZNK3kdk15KProgressDialog9autoResetEv@Base 1.2.0.3
 _ZNK3kdk15KProgressDialog9labelTextEv@Base 1.2.0.3
 _ZNK3kdk15KSearchLineEdit10metaObjectEv@Base 1.2.0.3
 _ZNK3kdk15KSearchLineEdit15placeholderTextEv@Base 1.2.0.3
 _ZNK3kdk15KSearchLineEdit20isClearButtonEnabledEv@Base 1.2.0.3
 _ZNK3kdk15KSearchLineEdit20placeholderAlignmentEv@Base 1.2.0.3
 _ZNK3kdk15KSearchLineEdit8sizeHintEv@Base 2.0.2.1
 _ZNK3kdk15KSearchLineEdit9alignmentEv@Base 1.2.0.3
 _ZNK3kdk15Parmscontroller10metaObjectEv@Base 2.0.2.1
 _ZNK3kdk16KBackgroundGroup10metaObjectEv@Base 2.0.2.1
 _ZNK3kdk16KBackgroundGroup14backgroundRoleEv@Base 2.0.2.1
 _ZNK3kdk16KListViewPrivate10metaObjectEv@Base 1.2.0.3
 _ZNK3kdk16KPixmapContainer10metaObjectEv@Base 1.2.0.3
 _ZNK3kdk16KPixmapContainer15isValueVisiableEv@Base 1.2.0.3
 _ZNK3kdk16KPixmapContainer5valueEv@Base 1.2.0.3
 _ZNK3kdk16KPixmapContainer6pixmapEv@Base 1.2.0.3
 _ZNK3kdk16KUninstallDialog10metaObjectEv@Base 1.2.0.3
 _ZNK3kdk16KWindowButtonBar10metaObjectEv@Base 1.2.0.3
 _ZNK3kdk16KWindowButtonBar8sizeHintEv@Base 2.0.2.1
 _ZNK3kdk16ListViewDelegate5paintEP8QPainterRK20QStyleOptionViewItemRK11QModelIndex@Base 2.0.2.1
 _ZNK3kdk16ListViewDelegate8sizeHintERK20QStyleOptionViewItemRK11QModelIndex@Base 2.0.2.1
 _ZNK3kdk17KBallonTipPrivate10metaObjectEv@Base 1.2.0.3
 _ZNK3kdk17KBorderlessButton10metaObjectEv@Base 1.2.0.3
 _ZNK3kdk17KBorderlessButton8sizeHintEv@Base 1.2.0.3
 _ZNK3kdk17KButtonBoxPrivate10metaObjectEv@Base 2.0.2.1
 _ZNK3kdk17KListViewDelegate10metaObjectEv@Base 1.2.0.3
 _ZNK3kdk17KListViewDelegate5paintEP8QPainterRK20QStyleOptionViewItemRK11QModelIndex@Base 1.2.0.3
 _ZNK3kdk17KListViewDelegate8sizeHintERK20QStyleOptionViewItemRK11QModelIndex@Base 1.2.0.3
 _ZNK3kdk17KSecurityLevelBar10metaObjectEv@Base 1.2.0.3
 _ZNK3kdk17KTranslucentFloor10metaObjectEv@Base 2.0.0.0
 _ZNK3kdk18KBreadCrumbPrivate10metaObjectEv@Base 1.2.0.3
 _ZNK3kdk18KHLineFramePrivate10metaObjectEv@Base 2.0.2.1
 _ZNK3kdk18KItemWidgetPrivate10metaObjectEv@Base 1.2.0.3
 _ZNK3kdk18KListWidgetPrivate10metaObjectEv@Base 1.2.0.3
 _ZNK3kdk18KMenuButtonPrivate10metaObjectEv@Base 1.2.0.3
 _ZNK3kdk18KMessageBoxPrivate10metaObjectEv@Base 2.0.2.1
 _ZNK3kdk18KMessageBoxPrivate19dialogCodeForButtonEP15QAbstractButton@Base 2.0.2.1
 _ZNK3kdk18KPushButtonPrivate10metaObjectEv@Base 2.0.0.0
 _ZNK3kdk18KToolButtonPrivate10metaObjectEv@Base 1.2.0.3
 _ZNK3kdk18KVLineFramePrivate10metaObjectEv@Base 2.0.2.1
 _ZNK3kdk19KAboutDialogPrivate10metaObjectEv@Base 1.2.0.3
 _ZNK3kdk19KColorButtonPrivate10metaObjectEv@Base 2.0.2.1
 _ZNK3kdk19KInputDialogPrivate12listViewTextEv@Base 1.2.0.3
 _ZNK3kdk19KInputDialogSpinBox10metaObjectEv@Base 1.2.0.3
 _ZNK3kdk19KInputDialogSpinBox8sizeHintEv@Base 2.0.2.1
 _ZNK3kdk19KPressButtonPrivate10metaObjectEv@Base 2.0.0.0
 _ZNK3kdk19KProgressBarPrivate10metaObjectEv@Base 1.2.0.3
 _ZNK3kdk20KBorderButtonPrivate10metaObjectEv@Base 1.2.0.3
 _ZNK3kdk20KBubbleWidgetPrivate10metaObjectEv@Base 2.0.0.0
 _ZNK3kdk20KCommentPanelPrivate10metaObjectEv@Base 1.2.0.3
 _ZNK3kdk20KInputDialogLineEdit8sizeHintEv@Base 2.0.2.1
 _ZNK3kdk20KPasswordEditPrivate10metaObjectEv@Base 1.2.0.3
 _ZNK3kdk20KSwitchButtonPrivate10metaObjectEv@Base 1.2.0.3
 _ZNK3kdk21KColorComboBoxPrivate10metaObjectEv@Base 2.0.2.1
 _ZNK3kdk21KNavigationBarPrivate10metaObjectEv@Base 1.2.0.3
 _ZNK3kdk22KColorComboBoxDelegate10metaObjectEv@Base 2.0.2.1
 _ZNK3kdk22KColorComboBoxDelegate5paintEP8QPainterRK20QStyleOptionViewItemRK11QModelIndex@Base 2.0.2.1
 _ZNK3kdk22KColorComboBoxDelegate8sizeHintERK20QStyleOptionViewItemRK11QModelIndex@Base 2.0.2.1
 _ZNK3kdk22KProgressCirclePrivate10metaObjectEv@Base 1.2.0.3
 _ZNK3kdk22KProgressDialogPrivate10metaObjectEv@Base 1.2.0.3
 _ZNK3kdk22KSearchLineEditPrivate10metaObjectEv@Base 1.2.0.3
 _ZNK3kdk23KBackgroundGroupPrivate10metaObjectEv@Base 2.0.2.1
 _ZNK3kdk23KPixmapContainerPrivate10metaObjectEv@Base 1.2.0.3
 _ZNK3kdk23KUninstallDialogPrivate10metaObjectEv@Base 1.2.0.3
 _ZNK3kdk23KWindowButtonBarPrivate10metaObjectEv@Base 1.2.0.3
 _ZNK3kdk24KBorderlessButtonPrivate10metaObjectEv@Base 1.2.0.3
 _ZNK3kdk24KListViewDelegatePrivate10metaObjectEv@Base 1.2.0.3
 _ZNK3kdk24KSecurityLevelBarPrivate10metaObjectEv@Base 1.2.0.3
 _ZNK3kdk24KTranslucentFloorPrivate10metaObjectEv@Base 2.0.0.0
 _ZNK3kdk25KInputDialogDoubleSpinBox10metaObjectEv@Base 1.2.0.3
 _ZNK3kdk25KInputDialogDoubleSpinBox8sizeHintEv@Base 2.0.2.1
 _ZNK3kdk4KTag10metaObjectEv@Base 1.2.0.3
 _ZNK3kdk4KTag8sizeHintEv@Base 2.0.2.1
 _ZNK3kdk6KBadge10metaObjectEv@Base 1.2.0.3
 _ZNK3kdk6KBadge15isValueVisiableEv@Base 1.2.0.3
 _ZNK3kdk7KDialog10metaObjectEv@Base 1.2.0.3
 _ZNK3kdk7KSlider10metaObjectEv@Base 1.2.0.3
 _ZNK3kdk7KSlider12tickIntervalEv@Base 1.2.0.3
 _ZNK3kdk7KSlider7toolTipEv@Base 2.0.0.0
 _ZNK3kdk7KSlider8sizeHintEv@Base 2.0.2.1
 _ZNK3kdk7KTabBar10metaObjectEv@Base 1.2.0.3
 _ZNK3kdk7KTabBar11tabSizeHintEi@Base 2.0.2.1
 _ZNK3kdk7KTabBar18minimumTabSizeHintEi@Base 1.2.0.3
 _ZNK3kdk7KTabBar8sizeHintEv@Base 1.2.0.3
 _ZNK3kdk7KWidget10metaObjectEv@Base 1.2.0.3
 _ZNK3kdk7MyStyle11drawControlEN6QStyle14ControlElementEPK12QStyleOptionP8QPainterPK7QWidget@Base 2.0.2.1
 _ZNK3kdk7MyStyle14subElementRectEN6QStyle10SubElementEPK12QStyleOptionPK7QWidget@Base 2.0.2.1
 _ZNK3kdk7effects13KShadowHelper10metaObjectEv@Base 2.0.0.0
 _ZNK3kdk7effects20KShadowHelperPrivate10metaObjectEv@Base 2.0.0.0
 _ZNK3kdk8Delegate5paintEP8QPainterRK20QStyleOptionViewItemRK11QModelIndex@Base 1.2.0.3
 _ZNK3kdk8Delegate8sizeHintERK20QStyleOptionViewItemRK11QModelIndex@Base 1.2.0.3
 _ZNK3kdk8KIconBar10metaObjectEv@Base 1.2.0.3
 _ZNK3kdk8KIconBar8sizeHintEv@Base 2.0.2.1
 _ZNK3kdk9KListView10metaObjectEv@Base 1.2.0.3
 _ZNK3kdk9LinkLabel10metaObjectEv@Base 2.0.0.0
 _ZTI15ThemeController@Base 1.2.0.3
 _ZTIN3kdk10KBallonTipE@Base 1.2.0.3
 _ZTIN3kdk10KButtonBoxE@Base 2.0.2.1
 _ZTIN3kdk11KBreadCrumbE@Base 1.2.0.3
 _ZTIN3kdk11KComboStyleE@Base 2.0.2.1
 _ZTIN3kdk11KHLineFrameE@Base 2.0.2.1
 _ZTIN3kdk11KItemWidgetE@Base 1.2.0.3
 _ZTIN3kdk11KListWidgetE@Base 1.2.0.3
 _ZTIN3kdk11KMenuButtonE@Base 1.2.0.3
 _ZTIN3kdk11KMessageBoxE@Base 2.0.2.1
 _ZTIN3kdk11KPushButtonE@Base 2.0.0.0
 _ZTIN3kdk11KTagPrivateE@Base 1.2.0.3
 _ZTIN3kdk11KToolButtonE@Base 1.2.0.3
 _ZTIN3kdk11KVLineFrameE@Base 2.0.2.1
 _ZTIN3kdk11XAtomHelperE@Base 1.2.0.3
 _ZTIN3kdk12KAboutDialogE@Base 1.2.0.3
 _ZTIN3kdk12KColorButtonE@Base 2.0.2.1
 _ZTIN3kdk12KInputDialogE@Base 1.2.0.3
 _ZTIN3kdk12KPressButtonE@Base 2.0.0.0
 _ZTIN3kdk12KProgressBarE@Base 1.2.0.3
 _ZTIN3kdk13KBadgePrivateE@Base 1.2.0.3
 _ZTIN3kdk13KBorderButtonE@Base 1.2.0.3
 _ZTIN3kdk13KBubbleWidgetE@Base 2.0.0.0
 _ZTIN3kdk13KCommentPanelE@Base 1.2.0.3
 _ZTIN3kdk13KPasswordEditE@Base 1.2.0.3
 _ZTIN3kdk13KSwitchButtonE@Base 1.2.0.3
 _ZTIN3kdk14KColorComboBoxE@Base 2.0.2.1
 _ZTIN3kdk14KDialogPrivateE@Base 1.2.0.3
 _ZTIN3kdk14KNavigationBarE@Base 1.2.0.3
 _ZTIN3kdk14KSliderPrivateE@Base 1.2.0.3
 _ZTIN3kdk14KTabBarPrivateE@Base 1.2.0.3
 _ZTIN3kdk14KWidgetPrivateE@Base 1.2.0.3
 _ZTIN3kdk15KIconBarPrivateE@Base 1.2.0.3
 _ZTIN3kdk15KProgressCircleE@Base 1.2.0.3
 _ZTIN3kdk15KProgressDialogE@Base 1.2.0.3
 _ZTIN3kdk15KSearchLineEditE@Base 1.2.0.3
 _ZTIN3kdk15ParmscontrollerE@Base 2.0.2.1
 _ZTIN3kdk16KBackgroundGroupE@Base 2.0.2.1
 _ZTIN3kdk16KListViewPrivateE@Base 1.2.0.3
 _ZTIN3kdk16KPixmapContainerE@Base 1.2.0.3
 _ZTIN3kdk16KUninstallDialogE@Base 1.2.0.3
 _ZTIN3kdk16KWindowButtonBarE@Base 1.2.0.3
 _ZTIN3kdk16ListViewDelegateE@Base 2.0.2.1
 _ZTIN3kdk17KBallonTipPrivateE@Base 1.2.0.3
 _ZTIN3kdk17KBorderlessButtonE@Base 1.2.0.3
 _ZTIN3kdk17KButtonBoxPrivateE@Base 2.0.2.1
 _ZTIN3kdk17KListViewDelegateE@Base 1.2.0.3
 _ZTIN3kdk17KSecurityLevelBarE@Base 1.2.0.3
 _ZTIN3kdk17KTranslucentFloorE@Base 2.0.0.0
 _ZTIN3kdk18KBreadCrumbPrivateE@Base 1.2.0.3
 _ZTIN3kdk18KHLineFramePrivateE@Base 2.0.2.1
 _ZTIN3kdk18KItemWidgetPrivateE@Base 1.2.0.3
 _ZTIN3kdk18KListWidgetPrivateE@Base 1.2.0.3
 _ZTIN3kdk18KMenuButtonPrivateE@Base 1.2.0.3
 _ZTIN3kdk18KMessageBoxPrivateE@Base 2.0.2.1
 _ZTIN3kdk18KPushButtonPrivateE@Base 2.0.0.0
 _ZTIN3kdk18KToolButtonPrivateE@Base 1.2.0.3
 _ZTIN3kdk18KVLineFramePrivateE@Base 2.0.2.1
 _ZTIN3kdk19KAboutDialogPrivateE@Base 1.2.0.3
 _ZTIN3kdk19KColorButtonPrivateE@Base 2.0.2.1
 _ZTIN3kdk19KInputDialogSpinBoxE@Base 1.2.0.3
 _ZTIN3kdk19KPressButtonPrivateE@Base 2.0.0.0
 _ZTIN3kdk19KProgressBarPrivateE@Base 1.2.0.3
 _ZTIN3kdk20KBorderButtonPrivateE@Base 1.2.0.3
 _ZTIN3kdk20KBubbleWidgetPrivateE@Base 2.0.0.0
 _ZTIN3kdk20KCommentPanelPrivateE@Base 1.2.0.3
 _ZTIN3kdk20KInputDialogLineEditE@Base 2.0.2.1
 _ZTIN3kdk20KPasswordEditPrivateE@Base 1.2.0.3
 _ZTIN3kdk20KSwitchButtonPrivateE@Base 1.2.0.3
 _ZTIN3kdk21KColorComboBoxPrivateE@Base 2.0.2.1
 _ZTIN3kdk21KNavigationBarPrivateE@Base 1.2.0.3
 _ZTIN3kdk22KColorComboBoxDelegateE@Base 2.0.2.1
 _ZTIN3kdk22KProgressCirclePrivateE@Base 1.2.0.3
 _ZTIN3kdk22KProgressDialogPrivateE@Base 1.2.0.3
 _ZTIN3kdk22KSearchLineEditPrivateE@Base 1.2.0.3
 _ZTIN3kdk23KBackgroundGroupPrivateE@Base 2.0.2.1
 _ZTIN3kdk23KPixmapContainerPrivateE@Base 1.2.0.3
 _ZTIN3kdk23KUninstallDialogPrivateE@Base 1.2.0.3
 _ZTIN3kdk23KWindowButtonBarPrivateE@Base 1.2.0.3
 _ZTIN3kdk24KBorderlessButtonPrivateE@Base 1.2.0.3
 _ZTIN3kdk24KListViewDelegatePrivateE@Base 1.2.0.3
 _ZTIN3kdk24KSecurityLevelBarPrivateE@Base 1.2.0.3
 _ZTIN3kdk24KTranslucentFloorPrivateE@Base 2.0.0.0
 _ZTIN3kdk25KInputDialogDoubleSpinBoxE@Base 1.2.0.3
 _ZTIN3kdk4KTagE@Base 1.2.0.3
 _ZTIN3kdk6KBadgeE@Base 1.2.0.3
 _ZTIN3kdk7KDialogE@Base 1.2.0.3
 _ZTIN3kdk7KSliderE@Base 1.2.0.3
 _ZTIN3kdk7KTabBarE@Base 1.2.0.3
 _ZTIN3kdk7KWidgetE@Base 1.2.0.3
 _ZTIN3kdk7MyStyleE@Base 2.0.2.1
 _ZTIN3kdk7effects13KShadowHelperE@Base 2.0.0.0
 _ZTIN3kdk7effects20KShadowHelperPrivateE@Base 2.0.0.0
 _ZTIN3kdk8DelegateE@Base 1.2.0.3
 _ZTIN3kdk8KIconBarE@Base 1.2.0.3
 _ZTIN3kdk8ListViewE@Base 2.0.0.0
 _ZTIN3kdk9KListViewE@Base 1.2.0.3
 _ZTIN3kdk9LinkLabelE@Base 2.0.0.0
 _ZTS15ThemeController@Base 1.2.0.3
 _ZTSN3kdk10KBallonTipE@Base 1.2.0.3
 _ZTSN3kdk10KButtonBoxE@Base 2.0.2.1
 _ZTSN3kdk10StarWidgetE@Base 1.2.0.3
 _ZTSN3kdk11KBreadCrumbE@Base 1.2.0.3
 _ZTSN3kdk11KComboStyleE@Base 2.0.2.1
 _ZTSN3kdk11KHLineFrameE@Base 2.0.2.1
 _ZTSN3kdk11KItemWidgetE@Base 1.2.0.3
 _ZTSN3kdk11KListWidgetE@Base 1.2.0.3
 _ZTSN3kdk11KMenuButtonE@Base 1.2.0.3
 _ZTSN3kdk11KMessageBoxE@Base 2.0.2.1
 _ZTSN3kdk11KPushButtonE@Base 2.0.0.0
 _ZTSN3kdk11KTagPrivateE@Base 1.2.0.3
 _ZTSN3kdk11KToolButtonE@Base 1.2.0.3
 _ZTSN3kdk11KVLineFrameE@Base 2.0.2.1
 _ZTSN3kdk11XAtomHelperE@Base 1.2.0.3
 _ZTSN3kdk12KAboutDialogE@Base 1.2.0.3
 _ZTSN3kdk12KColorButtonE@Base 2.0.2.1
 _ZTSN3kdk12KInputDialogE@Base 1.2.0.3
 _ZTSN3kdk12KPressButtonE@Base 2.0.0.0
 _ZTSN3kdk12KProgressBarE@Base 1.2.0.3
 _ZTSN3kdk13KBadgePrivateE@Base 1.2.0.3
 _ZTSN3kdk13KBorderButtonE@Base 1.2.0.3
 _ZTSN3kdk13KBubbleWidgetE@Base 2.0.0.0
 _ZTSN3kdk13KCommentPanelE@Base 1.2.0.3
 _ZTSN3kdk13KPasswordEditE@Base 1.2.0.3
 _ZTSN3kdk13KSwitchButtonE@Base 1.2.0.3
 _ZTSN3kdk14KColorComboBoxE@Base 2.0.2.1
 _ZTSN3kdk14KDialogPrivateE@Base 1.2.0.3
 _ZTSN3kdk14KNavigationBarE@Base 1.2.0.3
 _ZTSN3kdk14KSliderPrivateE@Base 1.2.0.3
 _ZTSN3kdk14KTabBarPrivateE@Base 1.2.0.3
 _ZTSN3kdk14KWidgetPrivateE@Base 1.2.0.3
 _ZTSN3kdk15KIconBarPrivateE@Base 1.2.0.3
 _ZTSN3kdk15KProgressCircleE@Base 1.2.0.3
 _ZTSN3kdk15KProgressDialogE@Base 1.2.0.3
 _ZTSN3kdk15KSearchLineEditE@Base 1.2.0.3
 _ZTSN3kdk15ParmscontrollerE@Base 2.0.2.1
 _ZTSN3kdk16KBackgroundGroupE@Base 2.0.2.1
 _ZTSN3kdk16KListViewPrivateE@Base 1.2.0.3
 _ZTSN3kdk16KPixmapContainerE@Base 1.2.0.3
 _ZTSN3kdk16KUninstallDialogE@Base 1.2.0.3
 _ZTSN3kdk16KWindowButtonBarE@Base 1.2.0.3
 _ZTSN3kdk16ListViewDelegateE@Base 2.0.2.1
 _ZTSN3kdk17KBallonTipPrivateE@Base 1.2.0.3
 _ZTSN3kdk17KBorderlessButtonE@Base 1.2.0.3
 _ZTSN3kdk17KButtonBoxPrivateE@Base 2.0.2.1
 _ZTSN3kdk17KListViewDelegateE@Base 1.2.0.3
 _ZTSN3kdk17KSecurityLevelBarE@Base 1.2.0.3
 _ZTSN3kdk17KTranslucentFloorE@Base 2.0.0.0
 _ZTSN3kdk18KBreadCrumbPrivateE@Base 1.2.0.3
 _ZTSN3kdk18KHLineFramePrivateE@Base 2.0.2.1
 _ZTSN3kdk18KItemWidgetPrivateE@Base 1.2.0.3
 _ZTSN3kdk18KListWidgetPrivateE@Base 1.2.0.3
 _ZTSN3kdk18KMenuButtonPrivateE@Base 1.2.0.3
 _ZTSN3kdk18KMessageBoxPrivateE@Base 2.0.2.1
 _ZTSN3kdk18KPushButtonPrivateE@Base 2.0.0.0
 _ZTSN3kdk18KToolButtonPrivateE@Base 1.2.0.3
 _ZTSN3kdk18KVLineFramePrivateE@Base 2.0.2.1
 _ZTSN3kdk19KAboutDialogPrivateE@Base 1.2.0.3
 _ZTSN3kdk19KColorButtonPrivateE@Base 2.0.2.1
 _ZTSN3kdk19KInputDialogPrivateE@Base 1.2.0.3
 _ZTSN3kdk19KInputDialogSpinBoxE@Base 1.2.0.3
 _ZTSN3kdk19KPressButtonPrivateE@Base 2.0.0.0
 _ZTSN3kdk19KProgressBarPrivateE@Base 1.2.0.3
 _ZTSN3kdk20KBorderButtonPrivateE@Base 1.2.0.3
 _ZTSN3kdk20KBubbleWidgetPrivateE@Base 2.0.0.0
 _ZTSN3kdk20KCommentPanelPrivateE@Base 1.2.0.3
 _ZTSN3kdk20KInputDialogLineEditE@Base 2.0.2.1
 _ZTSN3kdk20KInputDialogListViewE@Base 1.2.0.3
 _ZTSN3kdk20KPasswordEditPrivateE@Base 1.2.0.3
 _ZTSN3kdk20KSwitchButtonPrivateE@Base 1.2.0.3
 _ZTSN3kdk21KColorComboBoxPrivateE@Base 2.0.2.1
 _ZTSN3kdk21KNavigationBarPrivateE@Base 1.2.0.3
 _ZTSN3kdk22KColorComboBoxDelegateE@Base 2.0.2.1
 _ZTSN3kdk22KProgressCirclePrivateE@Base 1.2.0.3
 _ZTSN3kdk22KProgressDialogPrivateE@Base 1.2.0.3
 _ZTSN3kdk22KSearchLineEditPrivateE@Base 1.2.0.3
 _ZTSN3kdk23KBackgroundGroupPrivateE@Base 2.0.2.1
 _ZTSN3kdk23KPixmapContainerPrivateE@Base 1.2.0.3
 _ZTSN3kdk23KUninstallDialogPrivateE@Base 1.2.0.3
 _ZTSN3kdk23KWindowButtonBarPrivateE@Base 1.2.0.3
 _ZTSN3kdk24KBorderlessButtonPrivateE@Base 1.2.0.3
 _ZTSN3kdk24KListViewDelegatePrivateE@Base 1.2.0.3
 _ZTSN3kdk24KSecurityLevelBarPrivateE@Base 1.2.0.3
 _ZTSN3kdk24KTranslucentFloorPrivateE@Base 2.0.0.0
 _ZTSN3kdk25KInputDialogDoubleSpinBoxE@Base 1.2.0.3
 _ZTSN3kdk4KTagE@Base 1.2.0.3
 _ZTSN3kdk6KBadgeE@Base 1.2.0.3
 _ZTSN3kdk7KDialogE@Base 1.2.0.3
 _ZTSN3kdk7KSliderE@Base 1.2.0.3
 _ZTSN3kdk7KTabBarE@Base 1.2.0.3
 _ZTSN3kdk7KWidgetE@Base 1.2.0.3
 _ZTSN3kdk7MyStyleE@Base 2.0.2.1
 _ZTSN3kdk7effects13KShadowHelperE@Base 2.0.0.0
 _ZTSN3kdk7effects20KShadowHelperPrivateE@Base 2.0.0.0
 _ZTSN3kdk8DelegateE@Base 1.2.0.3
 _ZTSN3kdk8KIconBarE@Base 1.2.0.3
 _ZTSN3kdk8ListViewE@Base 2.0.0.0
 _ZTSN3kdk9KListViewE@Base 1.2.0.3
 _ZTSN3kdk9LinkLabelE@Base 2.0.0.0
 _ZTVN3kdk10KBallonTipE@Base 1.2.0.3
 _ZTVN3kdk10KButtonBoxE@Base 2.0.2.1
 _ZTVN3kdk11KBreadCrumbE@Base 1.2.0.3
 _ZTVN3kdk11KComboStyleE@Base 2.0.2.1
 _ZTVN3kdk11KHLineFrameE@Base 2.0.2.1
 _ZTVN3kdk11KItemWidgetE@Base 1.2.0.3
 _ZTVN3kdk11KListWidgetE@Base 1.2.0.3
 _ZTVN3kdk11KMenuButtonE@Base 1.2.0.3
 _ZTVN3kdk11KMessageBoxE@Base 2.0.2.1
 _ZTVN3kdk11KPushButtonE@Base 2.0.0.0
 _ZTVN3kdk11KTagPrivateE@Base 1.2.0.3
 _ZTVN3kdk11KToolButtonE@Base 1.2.0.3
 _ZTVN3kdk11KVLineFrameE@Base 2.0.2.1
 _ZTVN3kdk11XAtomHelperE@Base 1.2.0.3
 _ZTVN3kdk12KAboutDialogE@Base 1.2.0.3
 _ZTVN3kdk12KColorButtonE@Base 2.0.2.1
 _ZTVN3kdk12KInputDialogE@Base 1.2.0.3
 _ZTVN3kdk12KPressButtonE@Base 2.0.0.0
 _ZTVN3kdk12KProgressBarE@Base 1.2.0.3
 _ZTVN3kdk13KBadgePrivateE@Base 1.2.0.3
 _ZTVN3kdk13KBorderButtonE@Base 1.2.0.3
 _ZTVN3kdk13KBubbleWidgetE@Base 2.0.0.0
 _ZTVN3kdk13KCommentPanelE@Base 1.2.0.3
 _ZTVN3kdk13KPasswordEditE@Base 1.2.0.3
 _ZTVN3kdk13KSwitchButtonE@Base 1.2.0.3
 _ZTVN3kdk14KColorComboBoxE@Base 2.0.2.1
 _ZTVN3kdk14KDialogPrivateE@Base 1.2.0.3
 _ZTVN3kdk14KNavigationBarE@Base 1.2.0.3
 _ZTVN3kdk14KSliderPrivateE@Base 1.2.0.3
 _ZTVN3kdk14KTabBarPrivateE@Base 1.2.0.3
 _ZTVN3kdk14KWidgetPrivateE@Base 1.2.0.3
 _ZTVN3kdk15KIconBarPrivateE@Base 1.2.0.3
 _ZTVN3kdk15KProgressCircleE@Base 1.2.0.3
 _ZTVN3kdk15KProgressDialogE@Base 1.2.0.3
 _ZTVN3kdk15KSearchLineEditE@Base 1.2.0.3
 _ZTVN3kdk15ParmscontrollerE@Base 2.0.2.1
 _ZTVN3kdk16KBackgroundGroupE@Base 2.0.2.1
 _ZTVN3kdk16KListViewPrivateE@Base 1.2.0.3
 _ZTVN3kdk16KPixmapContainerE@Base 1.2.0.3
 _ZTVN3kdk16KUninstallDialogE@Base 1.2.0.3
 _ZTVN3kdk16KWindowButtonBarE@Base 1.2.0.3
 _ZTVN3kdk16ListViewDelegateE@Base 2.0.2.1
 _ZTVN3kdk17KBallonTipPrivateE@Base 1.2.0.3
 _ZTVN3kdk17KBorderlessButtonE@Base 1.2.0.3
 _ZTVN3kdk17KButtonBoxPrivateE@Base 2.0.2.1
 _ZTVN3kdk17KListViewDelegateE@Base 1.2.0.3
 _ZTVN3kdk17KSecurityLevelBarE@Base 1.2.0.3
 _ZTVN3kdk17KTranslucentFloorE@Base 2.0.0.0
 _ZTVN3kdk18KBreadCrumbPrivateE@Base 1.2.0.3
 _ZTVN3kdk18KHLineFramePrivateE@Base 2.0.2.1
 _ZTVN3kdk18KItemWidgetPrivateE@Base 1.2.0.3
 _ZTVN3kdk18KListWidgetPrivateE@Base 1.2.0.3
 _ZTVN3kdk18KMenuButtonPrivateE@Base 1.2.0.3
 _ZTVN3kdk18KMessageBoxPrivateE@Base 2.0.2.1
 _ZTVN3kdk18KPushButtonPrivateE@Base 2.0.0.0
 _ZTVN3kdk18KToolButtonPrivateE@Base 1.2.0.3
 _ZTVN3kdk18KVLineFramePrivateE@Base 2.0.2.1
 _ZTVN3kdk19KAboutDialogPrivateE@Base 1.2.0.3
 _ZTVN3kdk19KColorButtonPrivateE@Base 2.0.2.1
 _ZTVN3kdk19KInputDialogSpinBoxE@Base 1.2.0.3
 _ZTVN3kdk19KPressButtonPrivateE@Base 2.0.0.0
 _ZTVN3kdk19KProgressBarPrivateE@Base 1.2.0.3
 _ZTVN3kdk20KBorderButtonPrivateE@Base 1.2.0.3
 _ZTVN3kdk20KBubbleWidgetPrivateE@Base 2.0.0.0
 _ZTVN3kdk20KCommentPanelPrivateE@Base 1.2.0.3
 _ZTVN3kdk20KInputDialogLineEditE@Base 2.0.2.1
 _ZTVN3kdk20KPasswordEditPrivateE@Base 1.2.0.3
 _ZTVN3kdk20KSwitchButtonPrivateE@Base 1.2.0.3
 _ZTVN3kdk21KColorComboBoxPrivateE@Base 2.0.2.1
 _ZTVN3kdk21KNavigationBarPrivateE@Base 1.2.0.3
 _ZTVN3kdk22KColorComboBoxDelegateE@Base 2.0.2.1
 _ZTVN3kdk22KProgressCirclePrivateE@Base 1.2.0.3
 _ZTVN3kdk22KProgressDialogPrivateE@Base 1.2.0.3
 _ZTVN3kdk22KSearchLineEditPrivateE@Base 1.2.0.3
 _ZTVN3kdk23KBackgroundGroupPrivateE@Base 2.0.2.1
 _ZTVN3kdk23KPixmapContainerPrivateE@Base 1.2.0.3
 _ZTVN3kdk23KUninstallDialogPrivateE@Base 1.2.0.3
 _ZTVN3kdk23KWindowButtonBarPrivateE@Base 1.2.0.3
 _ZTVN3kdk24KBorderlessButtonPrivateE@Base 1.2.0.3
 _ZTVN3kdk24KListViewDelegatePrivateE@Base 1.2.0.3
 _ZTVN3kdk24KSecurityLevelBarPrivateE@Base 1.2.0.3
 _ZTVN3kdk24KTranslucentFloorPrivateE@Base 2.0.0.0
 _ZTVN3kdk25KInputDialogDoubleSpinBoxE@Base 1.2.0.3
 _ZTVN3kdk4KTagE@Base 1.2.0.3
 _ZTVN3kdk6KBadgeE@Base 1.2.0.3
 _ZTVN3kdk7KDialogE@Base 1.2.0.3
 _ZTVN3kdk7KSliderE@Base 1.2.0.3
 _ZTVN3kdk7KTabBarE@Base 1.2.0.3
 _ZTVN3kdk7KWidgetE@Base 1.2.0.3
 _ZTVN3kdk7MyStyleE@Base 2.0.2.1
 _ZTVN3kdk7effects13KShadowHelperE@Base 2.0.0.0
 _ZTVN3kdk7effects20KShadowHelperPrivateE@Base 2.0.0.0
 _ZTVN3kdk8DelegateE@Base 1.2.0.3
 _ZTVN3kdk8KIconBarE@Base 1.2.0.3
 _ZTVN3kdk8ListViewE@Base 2.0.0.0
 _ZTVN3kdk9KListViewE@Base 1.2.0.3
 _ZTVN3kdk9LinkLabelE@Base 2.0.0.0
 (optional=templinst)_ZZN18QMetaTypeIdQObjectIP15QAbstractButtonLi8EE14qt_metatype_idEvE11metatype_id@Base 2.0.2.1
 (optional=templinst)_ZZN18QMetaTypeIdQObjectIP7QWidgetLi8EE14qt_metatype_idEvE11metatype_id@Base 2.0.2.1
 applist@Base 2.0.2.1
 (c++)"non-virtual thunk to kdk::KAboutDialog::changeTheme()@Base" 1.2.0.3
 (c++)"non-virtual thunk to kdk::KAboutDialog::~KAboutDialog()@Base" 1.2.0.3
 (c++)"non-virtual thunk to kdk::KBallonTipPrivate::changeTheme()@Base" 2.0.0.0
 (c++)"non-virtual thunk to kdk::KBorderButton::~KBorderButton()@Base" 1.2.0.3
 (c++)"non-virtual thunk to kdk::KBorderButtonPrivate::changeTheme()@Base" 1.2.0.3
 (c++)"non-virtual thunk to kdk::KBorderlessButton::~KBorderlessButton()@Base" 1.2.0.3
 (c++)"non-virtual thunk to kdk::KBorderlessButtonPrivate::changeTheme()@Base" 1.2.0.3
 (c++)"non-virtual thunk to kdk::KButtonBox::~KButtonBox()@Base" 2.0.2.1
 (c++)"non-virtual thunk to kdk::KColorButtonPrivate::changeTheme()@Base" 2.0.2.1
 (c++)"non-virtual thunk to kdk::KCommentPanelPrivate::changeTheme()@Base" 1.2.0.3
 (c++)"non-virtual thunk to kdk::KDialog::changeIconStyle()@Base" 1.2.0.3
 (c++)"non-virtual thunk to kdk::KDialog::changeTheme()@Base" 1.2.0.3
 (c++)"non-virtual thunk to kdk::KDialog::~KDialog()@Base" 1.2.0.3
 (c++)"non-virtual thunk to kdk::KHLineFrame::~KHLineFrame()@Base" 2.0.2.1
 (c++)"non-virtual thunk to kdk::KHLineFramePrivate::changeTheme()@Base" 2.0.2.1
 (c++)"non-virtual thunk to kdk::KIconBar::~KIconBar()@Base" 1.2.0.3
 (c++)"non-virtual thunk to kdk::KIconBarPrivate::changeIconStyle()@Base" 2.0.0.0
 (c++)"non-virtual thunk to kdk::KIconBarPrivate::changeTheme()@Base" 1.2.0.3
 (c++)"non-virtual thunk to kdk::KInputDialog::changeTheme()@Base" 1.2.0.3
 (c++)"non-virtual thunk to kdk::KInputDialog::~KInputDialog()@Base" 1.2.0.3
 (c++)"non-virtual thunk to kdk::KItemWidgetPrivate::changeTheme()@Base" 1.2.0.3
 (c++)"non-virtual thunk to kdk::KMenuButton::changeTheme()@Base" 1.2.0.3
 (c++)"non-virtual thunk to kdk::KMenuButton::~KMenuButton()@Base" 1.2.0.3
 (c++)"non-virtual thunk to kdk::KMessageBox::~KMessageBox()@Base" 2.0.2.1
 (c++)"non-virtual thunk to kdk::KMessageBoxPrivate::changeTheme()@Base" 2.0.2.1
 (c++)"non-virtual thunk to kdk::KPasswordEditPrivate::changeTheme()@Base" 1.2.0.3
 (c++)"non-virtual thunk to kdk::KPressButtonPrivate::changeTheme()@Base" 2.0.0.0
 (c++)"non-virtual thunk to kdk::KProgressBarPrivate::changeTheme()@Base" 1.2.0.3
 (c++)"non-virtual thunk to kdk::KProgressCirclePrivate::changeTheme()@Base" 1.2.0.3
 (c++)"non-virtual thunk to kdk::KProgressDialog::changeTheme()@Base" 1.2.0.3
 (c++)"non-virtual thunk to kdk::KProgressDialog::~KProgressDialog()@Base" 1.2.0.3
 (c++)"non-virtual thunk to kdk::KPushButton::~KPushButton()@Base" 2.0.0.0
 (c++)"non-virtual thunk to kdk::KPushButtonPrivate::changeTheme()@Base" 2.0.0.0
 (c++)"non-virtual thunk to kdk::KSearchLineEdit::~KSearchLineEdit()@Base" 1.2.0.3
 (c++)"non-virtual thunk to kdk::KSearchLineEditPrivate::changeTheme()@Base" 1.2.0.3
 (c++)"non-virtual thunk to kdk::KSliderPrivate::changeTheme()@Base" 1.2.0.3
 (c++)"non-virtual thunk to kdk::KSwitchButton::~KSwitchButton()@Base" 1.2.0.3
 (c++)"non-virtual thunk to kdk::KSwitchButtonPrivate::changeTheme()@Base" 1.2.0.3
 (c++)"non-virtual thunk to kdk::KTabBar::~KTabBar()@Base" 1.2.0.3
 (c++)"non-virtual thunk to kdk::KTabBarPrivate::changeTheme()@Base" 1.2.0.3
 (c++)"non-virtual thunk to kdk::KTagPrivate::changeTheme()@Base" 1.2.0.3
 (c++)"non-virtual thunk to kdk::KToolButtonPrivate::changeTheme()@Base" 1.2.0.3
 (c++)"non-virtual thunk to kdk::KUninstallDialog::changeTheme()@Base" 1.2.0.3
 (c++)"non-virtual thunk to kdk::KUninstallDialog::~KUninstallDialog()@Base" 1.2.0.3
 (c++)"non-virtual thunk to kdk::KVLineFrame::~KVLineFrame()@Base" 2.0.2.1
 (c++)"non-virtual thunk to kdk::KVLineFramePrivate::changeTheme()@Base" 2.0.2.1
 (c++)"non-virtual thunk to kdk::KWidget::changeIconStyle()@Base" 1.2.0.3
 (c++)"non-virtual thunk to kdk::KWidget::changeTheme()@Base" 1.2.0.3
 (c++)"non-virtual thunk to kdk::KWidget::~KWidget()@Base" 1.2.0.3
 (c++)"non-virtual thunk to kdk::KWindowButtonBar::~KWindowButtonBar()@Base" 1.2.0.3
 (c++)"non-virtual thunk to kdk::KWindowButtonBarPrivate::changeTheme()@Base" 1.2.0.3