# SymbolsHelper-Confirmed: 2.0.0.0 amd64
liblingmosdk-alm.so.1 liblingmosdk-alm #MINVER#
 _ZN3kdk11QtLocalPeer11qt_metacallEN11QMetaObject4CallEiPPv@Base 1.2.0.3
 _ZN3kdk11QtLocalPeer11qt_metacastEPKc@Base 1.2.0.3
 _ZN3kdk11QtLocalPeer11sendMessageERK7QStringi@Base 1.2.0.3
 _ZN3kdk11QtLocalPeer15messageReceivedERK7QString@Base 1.2.0.3
 _ZN3kdk11QtLocalPeer16staticMetaObjectE@Base 1.2.0.3
 _ZN3kdk11QtLocalPeer17receiveConnectionEv@Base 1.2.0.3
 _ZN3kdk11QtLocalPeer3ackE@Base 1.2.0.3
 _ZN3kdk11QtLocalPeer8isClientEv@Base 1.2.0.3
 _ZN3kdk11QtLocalPeerC1EP7QObjectRK7QString@Base 1.2.0.3
 _ZN3kdk11QtLocalPeerC2EP7QObjectRK7QString@Base 1.2.0.3
 _ZN3kdk12QtLP_Private12QtLockedFile4lockENS1_8LockModeEb@Base 1.2.0.3
 _ZN3kdk12QtLP_Private12QtLockedFile4openE6QFlagsIN9QIODevice12OpenModeFlagEE@Base 1.2.0.3
 _ZN3kdk12QtLP_Private12QtLockedFile6unlockEv@Base 1.2.0.3
 _ZN3kdk12QtLP_Private12QtLockedFileC1ERK7QString@Base 1.2.0.3
 _ZN3kdk12QtLP_Private12QtLockedFileC1Ev@Base 1.2.0.3
 _ZN3kdk12QtLP_Private12QtLockedFileC2ERK7QString@Base 1.2.0.3
 _ZN3kdk12QtLP_Private12QtLockedFileC2Ev@Base 1.2.0.3
 _ZN3kdk12QtLP_Private12QtLockedFileD0Ev@Base 1.2.0.3
 _ZN3kdk12QtLP_Private12QtLockedFileD1Ev@Base 1.2.0.3
 _ZN3kdk12QtLP_Private12QtLockedFileD2Ev@Base 1.2.0.3
 _ZN3kdk19QtSingleApplication11qt_metacallEN11QMetaObject4CallEiPPv@Base 1.2.0.3
 _ZN3kdk19QtSingleApplication11qt_metacastEPKc@Base 1.2.0.3
 _ZN3kdk19QtSingleApplication11sendMessageERK7QStringi@Base 1.2.0.3
 _ZN3kdk19QtSingleApplication14activateWindowEv@Base 1.2.0.3
 _ZN3kdk19QtSingleApplication15messageReceivedERK7QString@Base 1.2.0.3
 _ZN3kdk19QtSingleApplication16staticMetaObjectE@Base 1.2.0.3
 _ZN3kdk19QtSingleApplication19setActivationWindowEP7QWidgetb@Base 1.2.0.3
 _ZN3kdk19QtSingleApplication7sysInitERK7QString@Base 1.2.0.3
 _ZN3kdk19QtSingleApplication9isRunningEv@Base 1.2.0.3
 _ZN3kdk19QtSingleApplicationC1ERK7QStringRiPPc@Base 1.2.0.3
 _ZN3kdk19QtSingleApplicationC1ERiPPcb@Base 1.2.0.3
 _ZN3kdk19QtSingleApplicationC2ERK7QStringRiPPc@Base 1.2.0.3
 _ZN3kdk19QtSingleApplicationC2ERiPPcb@Base 1.2.0.3
 _ZNK3kdk11QtLocalPeer10metaObjectEv@Base 1.2.0.3
 _ZNK3kdk12QtLP_Private12QtLockedFile8isLockedEv@Base 1.2.0.3
 _ZNK3kdk12QtLP_Private12QtLockedFile8lockModeEv@Base 1.2.0.3
 _ZNK3kdk19QtSingleApplication10metaObjectEv@Base 1.2.0.3
 _ZNK3kdk19QtSingleApplication16activationWindowEv@Base 1.2.0.3
 _ZNK3kdk19QtSingleApplication2idEv@Base 1.2.0.3
 _ZTIN3kdk11QtLocalPeerE@Base 1.2.0.3
 _ZTIN3kdk12QtLP_Private12QtLockedFileE@Base 1.2.0.3
 _ZTIN3kdk19QtSingleApplicationE@Base 1.2.0.3
 _ZTSN3kdk11QtLocalPeerE@Base 1.2.0.3
 _ZTSN3kdk12QtLP_Private12QtLockedFileE@Base 1.2.0.3
 _ZTSN3kdk19QtSingleApplicationE@Base 1.2.0.3
 _ZTVN3kdk11QtLocalPeerE@Base 1.2.0.3
 _ZTVN3kdk12QtLP_Private12QtLockedFileE@Base 1.2.0.3
 _ZTVN3kdk19QtSingleApplicationE@Base 1.2.0.3
