# SymbolsHelper-Confirmed: 2.0.0.0 amd64
liblingmosdk-ukenv.so.1 liblingmosdk-ukenv #MINVER#
 _ZN3kdk10UserManual14callUserManualE7QString@Base 1.2.0.3
 _ZN3kdk10UserManualC1Ev@Base 1.2.0.3
 _ZN3kdk10UserManualC2Ev@Base 1.2.0.3
 _ZN3kdk10UserManualD1Ev@Base 1.2.0.3
 _ZN3kdk10UserManualD2Ev@Base 1.2.0.3
 _ZN3kdk15GsettingMonitor11getInstanceEv@Base 1.2.0.3
 _ZN3kdk15GsettingMonitor11qt_metacallEN11QMetaObject4CallEiPPv@Base 1.2.0.3
 _ZN3kdk15GsettingMonitor11qt_metacastEPKc@Base 1.2.0.3
 _ZN3kdk15GsettingMonitor11themeChangeE7QString@Base 1.2.0.3
 _ZN3kdk15GsettingMonitor14getSystemThemeEv@Base 1.2.0.3
 _ZN3kdk15GsettingMonitor16registerGsettingE7QString10QByteArray@Base 1.2.0.3
 _ZN3kdk15GsettingMonitor16staticMetaObjectE@Base 1.2.0.3
 _ZN3kdk15GsettingMonitor17getSystemFontSizeEv@Base 1.2.0.3
 _ZN3kdk15GsettingMonitor17m_gsettingMonitorE@Base 1.2.0.3
 _ZN3kdk15GsettingMonitor17systemThemeChangeEv@Base 1.2.0.3
 _ZN3kdk15GsettingMonitor20systemFontSizeChangeEv@Base 1.2.0.3
 _ZN3kdk15GsettingMonitor21getSystemTransparencyEv@Base 1.2.0.3
 _ZN3kdk15GsettingMonitor24systemTransparencyChangeEv@Base 1.2.0.3
 _ZN3kdk15GsettingMonitor30controlCenterPersonaliseChangeE7QString@Base 1.2.0.3
 _ZN3kdk15GsettingMonitor4connEv@Base 1.2.0.3
 _ZN3kdk15GsettingMonitorC1Ev@Base 1.2.0.3
 _ZN3kdk15GsettingMonitorC2Ev@Base 1.2.0.3
 _ZN3kdk15GsettingMonitorD0Ev@Base 1.2.0.3
 _ZN3kdk15GsettingMonitorD1Ev@Base 1.2.0.3
 _ZN3kdk15GsettingMonitorD2Ev@Base 1.2.0.3
 _ZN3kdk8Currency10getAppNameENS_7AppNameE@Base 1.2.0.3
 _ZN3kdk8CurrencyC1Ev@Base 1.2.0.3
 _ZN3kdk8CurrencyC2Ev@Base 1.2.0.3
 _ZN3kdk8CurrencyD1Ev@Base 1.2.0.3
 _ZN3kdk8CurrencyD2Ev@Base 1.2.0.3
 (optional=templinst)_ZN5QHashI7QStringP10QGSettingsE11deleteNode2EPN9QHashData4NodeE@Base 1.2.0.3
 (optional=templinst)_ZN5QHashI7QStringP10QGSettingsE13duplicateNodeEPN9QHashData4NodeEPv@Base 1.2.0.3
 (optional=templinst)_ZN9QtPrivate11QSlotObjectIMN3kdk15GsettingMonitorEFv7QStringENS_4ListIJRKS3_EEEvE4implEiPNS_15QSlotObjectBaseEP7QObjectPPvPb@Base 1.2.0.3
 _ZNK3kdk15GsettingMonitor10metaObjectEv@Base 1.2.0.3
 _ZTIN3kdk15GsettingMonitorE@Base 1.2.0.3
 _ZTSN3kdk15GsettingMonitorE@Base 1.2.0.3
 _ZTVN3kdk15GsettingMonitorE@Base 1.2.0.3
