# SymbolsHelper-Confirmed: 2.3.1.0 amd64
liblingmosdk-kabase.so.1 liblingmosdk-kabase #MINVER#
 _ZN11XAtomHelper11getInstanceEv@Base 1.2.0.3
 _ZN11XAtomHelper11qt_metacallEN11QMetaObject4CallEiPPv@Base 1.2.0.3
 _ZN11XAtomHelper11qt_metacastEPKc@Base 1.2.0.3
 _ZN11XAtomHelper16staticMetaObjectE@Base 1.2.0.3
 _ZN11XAtomHelper17isFrameLessWindowEi@Base 1.2.0.3
 _ZN11XAtomHelper18getWindowMotifHintEi@Base 1.2.0.3
 _ZN11XAtomHelper18isLINGMOCsdSupportedEv@Base 1.2.0.3
 _ZN11XAtomHelper18setWindowMotifHintEiRK12MotifWmHints@Base 1.2.0.3
 _ZN11XAtomHelper21getWindowBorderRadiusEi@Base 1.2.0.3
 _ZN11XAtomHelper21setLINGMODecoraiontHintEib@Base 1.2.0.3
 _ZN11XAtomHelper21setWindowBorderRadiusEiRK12UnityCorners@Base 1.2.0.3
 _ZN11XAtomHelper21setWindowBorderRadiusEiiiii@Base 1.2.0.3
 _ZN11XAtomHelper22isLINGMODecorationWindowEi@Base 1.2.0.3
 _ZN11XAtomHelper26isWindowDecorateBorderOnlyEi@Base 1.2.0.3
 _ZN11XAtomHelper31registerLINGMOCsdNetWmSupportAtomEv@Base 1.2.0.3
 _ZN11XAtomHelper33unregisterLINGMOCsdNetWmSupportAtomEv@Base 1.2.0.3
 _ZN11XAtomHelper35isWindowMotifHintDecorateBorderOnlyERK12MotifWmHints@Base 1.2.0.3
 _ZN11XAtomHelperC1EP7QObject@Base 1.2.0.3
 _ZN11XAtomHelperC2EP7QObject@Base 1.2.0.3
 _ZN3kdk6kabase11BuriedPoint13uploadMessageENS0_7AppNameENS1_15BuriedPointTypeE11QJsonObject@Base 2.3.1.0
 _ZN3kdk6kabase11BuriedPoint18getBuriedPointDataE11QJsonObject@Base 2.3.1.0
 _ZN3kdk6kabase11BuriedPoint18getBuriedPointTypeENS1_15BuriedPointTypeE@Base 2.3.1.0
 _ZN3kdk6kabase11BuriedPoint19functionBuriedPointENS0_7AppNameENS1_2PTE@Base 2.3.1.0
 _ZN3kdk6kabase11BuriedPoint7encryptERK10QByteArrayS4_@Base 2.3.1.0
 _ZN3kdk6kabase11BuriedPoint8checkDirEv@Base 2.3.1.0
 _ZN3kdk6kabase11BuriedPoint8decToHexEi@Base 2.3.1.0
 _ZN3kdk6kabase11BuriedPoint8evpErrorEv@Base 2.3.1.0
 _ZN3kdk6kabase11BuriedPointC1Ev@Base 2.3.1.0
 _ZN3kdk6kabase11BuriedPointC2Ev@Base 2.3.1.0
 _ZN3kdk6kabase11BuriedPointD1Ev@Base 2.3.1.0
 _ZN3kdk6kabase11BuriedPointD2Ev@Base 2.3.1.0
 _ZN3kdk6kabase11QtLocalPeer11qt_metacallEN11QMetaObject4CallEiPPv@Base 1.2.0.3
 _ZN3kdk6kabase11QtLocalPeer11qt_metacastEPKc@Base 1.2.0.3
 _ZN3kdk6kabase11QtLocalPeer11sendMessageERK7QStringi@Base 1.2.0.3
 _ZN3kdk6kabase11QtLocalPeer15messageReceivedERK7QString@Base 1.2.0.3
 _ZN3kdk6kabase11QtLocalPeer16staticMetaObjectE@Base 1.2.0.3
 _ZN3kdk6kabase11QtLocalPeer17receiveConnectionEv@Base 1.2.0.3
 _ZN3kdk6kabase11QtLocalPeer3ackE@Base 1.2.0.3
 _ZN3kdk6kabase11QtLocalPeer8isClientEv@Base 1.2.0.3
 _ZN3kdk6kabase11QtLocalPeerC1EP7QObjectRK7QString@Base 1.2.0.3
 _ZN3kdk6kabase11QtLocalPeerC2EP7QObjectRK7QString@Base 1.2.0.3
 _ZN3kdk6kabase12QtLP_Private12QtLockedFile4lockENS2_8LockModeEb@Base 1.2.0.3
 _ZN3kdk6kabase12QtLP_Private12QtLockedFile4openE6QFlagsIN9QIODevice12OpenModeFlagEE@Base 1.2.0.3
 _ZN3kdk6kabase12QtLP_Private12QtLockedFile6unlockEv@Base 1.2.0.3
 _ZN3kdk6kabase12QtLP_Private12QtLockedFileC1ERK7QString@Base 1.2.0.3
 _ZN3kdk6kabase12QtLP_Private12QtLockedFileC1Ev@Base 1.2.0.3
 _ZN3kdk6kabase12QtLP_Private12QtLockedFileC2ERK7QString@Base 1.2.0.3
 _ZN3kdk6kabase12QtLP_Private12QtLockedFileC2Ev@Base 1.2.0.3
 _ZN3kdk6kabase12QtLP_Private12QtLockedFileD0Ev@Base 1.2.0.3
 _ZN3kdk6kabase12QtLP_Private12QtLockedFileD1Ev@Base 1.2.0.3
 _ZN3kdk6kabase12QtLP_Private12QtLockedFileD2Ev@Base 1.2.0.3
 _ZN3kdk6kabase15LingmoImageCodec10m_savePathE@Base 1.2.0.3
 _ZN3kdk6kabase15LingmoImageCodec11m_signalObjE@Base 1.2.0.3
 _ZN3kdk6kabase15LingmoImageCodec11qt_metacallEN11QMetaObject4CallEiPPv@Base 1.2.0.3
 _ZN3kdk6kabase15LingmoImageCodec11qt_metacastEPKc@Base 1.2.0.3
 _ZN3kdk6kabase15LingmoImageCodec12converFormatERKN2cv3MatE@Base 1.2.0.3
 _ZN3kdk6kabase15LingmoImageCodec12creatFormatsEv@Base 1.2.0.3
 _ZN3kdk6kabase15LingmoImageCodec12getSignalObjEv@Base 1.2.0.3
 _ZN3kdk6kabase15LingmoImageCodec12mat2fibitmapEN2cv3MatE17FREE_IMAGE_FORMAT7QString@Base 1.2.0.3
 _ZN3kdk6kabase15LingmoImageCodec13allSaveFinishEv@Base 1.2.0.3
 _ZN3kdk6kabase15LingmoImageCodec13saveFreeImageERK7QStringN2cv3MatE17FREE_IMAGE_FORMAT@Base 1.2.0.3
 _ZN3kdk6kabase15LingmoImageCodec14loadImageToMatE7QString@Base 1.2.0.3
 _ZN3kdk6kabase15LingmoImageCodec14loadImageToMatE7QStringN2cv11ImreadModesES2_5QSize@Base 1.2.0.3
 _ZN3kdk6kabase15LingmoImageCodec14loadMovieToMatE7QStringN2cv11ImreadModesES2_@Base 1.2.0.3
 _ZN3kdk6kabase15LingmoImageCodec15get_real_formatERK7QString@Base 1.2.0.3
 _ZN3kdk6kabase15LingmoImageCodec15mat2RgbFipImageEN2cv3MatE@Base 1.2.0.3
 _ZN3kdk6kabase15LingmoImageCodec16m_supportFormatsE@Base 1.2.0.3
 _ZN3kdk6kabase15LingmoImageCodec16staticMetaObjectE@Base 1.2.0.3
 _ZN3kdk6kabase15LingmoImageCodec17getSupportFormatsEv@Base 1.2.0.3
 _ZN3kdk6kabase15LingmoImageCodec18getOpenFileFormatsEv@Base 1.2.0.3
 _ZN3kdk6kabase15LingmoImageCodec18loadThumbnailToMatE7QStringN2cv11ImreadModesE5QSize@Base 1.2.0.3
 _ZN3kdk6kabase15LingmoImageCodec19loadFreeimageFormatEPKc@Base 1.2.0.3
 _ZN3kdk6kabase15LingmoImageCodec21m_otherSupportFormatsE@Base 1.2.0.3
 _ZN3kdk6kabase15LingmoImageCodec22m_opencvSupportFormatsE@Base 1.2.0.3
 _ZN3kdk6kabase15LingmoImageCodec23m_supportFrmatsClassifyE@Base 1.2.0.3
 _ZN3kdk6kabase15LingmoImageCodec25m_freeimageSupportFormatsE@Base 1.2.0.3
 _ZN3kdk6kabase15LingmoImageCodec4saveEP5QListIN2cv3MatEERKiRK7QString@Base 1.2.0.3
 _ZN3kdk6kabase15LingmoImageCodec4saveERKN2cv3MatERK7QStringS8_@Base 1.2.0.3
 _ZN3kdk6kabase15LingmoImageCodec6FI2MATEP8FIBITMAP@Base 1.2.0.3
 _ZN3kdk6kabase15LingmoImageCodec6m_listE@Base 1.2.0.3
 _ZN3kdk6kabase15LingmoImageCodec7saveWayERK7QStringb@Base 1.2.0.3
 _ZN3kdk6kabase15LingmoImageCodec8getDelayERK7QStringS4_@Base 1.2.0.3
 _ZN3kdk6kabase15LingmoImageCodec8gifDelayERK7QString@Base 1.2.0.3
 _ZN3kdk6kabase15LingmoImageCodec8isSavingERK7QString@Base 1.2.0.3
 _ZN3kdk6kabase15LingmoImageCodec8savePathEv@Base 1.2.0.3
 _ZN3kdk6kabase15LingmoImageCodec9m_formatsE@Base 1.2.0.3
 _ZN3kdk6kabase15LingmoImageCodec9saveImageEP5QListIN2cv3MatEERKiRK7QStringb@Base 1.2.0.3
 _ZN3kdk6kabase15LingmoImageCodec9saveImageERKN2cv3MatERK7QStringb@Base 1.2.0.3
 _ZN3kdk6kabase15LingmoImageCodec9saveMovieEP5QListIN2cv3MatEERKiRK7QString@Base 1.2.0.3
 _ZN3kdk6kabase15ThemeManagement10setMaxIconEP15QAbstractButton@Base 1.2.0.3
 _ZN3kdk6kabase15ThemeManagement10setMinIconEP15QAbstractButton@Base 1.2.0.3
 _ZN3kdk6kabase15ThemeManagement11setPropertyEP7QObjectNS1_8PropertyE@Base 1.2.0.3
 _ZN3kdk6kabase15ThemeManagement12setCloseIconEP15QAbstractButton@Base 1.2.0.3
 _ZN3kdk6kabase15ThemeManagement15setPaletteColorEP7QWidget@Base 1.2.0.3
 _ZN3kdk6kabase15ThemeManagementC1Ev@Base 1.2.0.3
 _ZN3kdk6kabase15ThemeManagementC2Ev@Base 1.2.0.3
 _ZN3kdk6kabase15ThemeManagementD1Ev@Base 1.2.0.3
 _ZN3kdk6kabase15ThemeManagementD2Ev@Base 1.2.0.3
 _ZN3kdk6kabase16WindowManagement18setWindowMotifHintEi@Base 1.2.0.3
 _ZN3kdk6kabase16WindowManagement20setScalingPropertiesEv@Base 1.2.0.3
 _ZN3kdk6kabase16WindowManagementC1Ev@Base 1.2.0.3
 _ZN3kdk6kabase16WindowManagementC2Ev@Base 1.2.0.3
 _ZN3kdk6kabase16WindowManagementD1Ev@Base 1.2.0.3
 _ZN3kdk6kabase16WindowManagementD2Ev@Base 1.2.0.3
 _ZN3kdk6kabase17ApplicationAccess10callMethodENS0_7AppNameE7QString5QListI8QVariantE@Base 1.2.0.3
 _ZN3kdk6kabase17ApplicationAccess10exportFuncENS0_7AppNameEP7QObject@Base 1.2.0.3
 _ZN3kdk6kabase17ApplicationAccess13getObjectPathENS0_7AppNameE@Base 1.2.0.3
 _ZN3kdk6kabase17ApplicationAccess14getServiceNameENS0_7AppNameE@Base 1.2.0.3
 _ZN3kdk6kabase17ApplicationAccess16getInterfaceNameENS0_7AppNameE@Base 1.2.0.3
 _ZN3kdk6kabase17ApplicationAccessC1Ev@Base 1.2.0.3
 _ZN3kdk6kabase17ApplicationAccessC2Ev@Base 1.2.0.3
 _ZN3kdk6kabase17ApplicationAccessD1Ev@Base 1.2.0.3
 _ZN3kdk6kabase17ApplicationAccessD2Ev@Base 1.2.0.3
 _ZN3kdk6kabase17SessionManagement19unInhibitLockScreenEj@Base 1.2.0.3
 _ZN3kdk6kabase17SessionManagement20setInhibitLockScreenENS0_7AppNameE7QString@Base 1.2.0.3
 _ZN3kdk6kabase17SessionManagementC1Ev@Base 1.2.0.3
 _ZN3kdk6kabase17SessionManagementC2Ev@Base 1.2.0.3
 _ZN3kdk6kabase17SessionManagementD1Ev@Base 1.2.0.3
 _ZN3kdk6kabase17SessionManagementD2Ev@Base 1.2.0.3
 _ZN3kdk6kabase17SystemInformation13getHdPlatformEv@Base 1.2.0.3
 _ZN3kdk6kabase17SystemInformation15getCpuModelNameEv@Base 1.2.0.3
 _ZN3kdk6kabase17SystemInformation18getProjectCodeNameEv@Base 1.2.0.3
 _ZN3kdk6kabase17SystemInformation23getOsReleaseInformationE7QString@Base 1.2.0.3
 _ZN3kdk6kabase17SystemInformation24getLsbReleaseInformationE7QString@Base 1.2.0.3
 _ZN3kdk6kabase17SystemInformationC1Ev@Base 1.2.0.3
 _ZN3kdk6kabase17SystemInformationC2Ev@Base 1.2.0.3
 _ZN3kdk6kabase17SystemInformationD1Ev@Base 1.2.0.3
 _ZN3kdk6kabase17SystemInformationD2Ev@Base 1.2.0.3
 _ZN3kdk6kabase19QtSingleApplication11qt_metacallEN11QMetaObject4CallEiPPv@Base 1.2.0.3
 _ZN3kdk6kabase19QtSingleApplication11qt_metacastEPKc@Base 1.2.0.3
 _ZN3kdk6kabase19QtSingleApplication11sendMessageERK7QStringi@Base 1.2.0.3
 _ZN3kdk6kabase19QtSingleApplication14activateWindowEv@Base 1.2.0.3
 _ZN3kdk6kabase19QtSingleApplication15messageReceivedERK7QString@Base 1.2.0.3
 _ZN3kdk6kabase19QtSingleApplication16staticMetaObjectE@Base 1.2.0.3
 _ZN3kdk6kabase19QtSingleApplication19setActivationWindowEP7QWidgetb@Base 1.2.0.3
 _ZN3kdk6kabase19QtSingleApplication7sysInitERK7QString@Base 1.2.0.3
 _ZN3kdk6kabase19QtSingleApplication9isRunningEv@Base 1.2.0.3
 _ZN3kdk6kabase19QtSingleApplicationC1ERK7QStringRiPPc@Base 1.2.0.3
 _ZN3kdk6kabase19QtSingleApplicationC1ERiPPcb@Base 1.2.0.3
 _ZN3kdk6kabase19QtSingleApplicationC2ERK7QStringRiPPc@Base 1.2.0.3
 _ZN3kdk6kabase19QtSingleApplicationC2ERiPPcb@Base 1.2.0.3
 _ZN3kdk6kabase20UserManualManagement14adapterAppNameE7QString@Base 1.2.0.3
 _ZN3kdk6kabase20UserManualManagement14callUserManualE7QString@Base 1.2.0.3
 _ZN3kdk6kabase20UserManualManagement14callUserManualENS0_7AppNameE@Base 1.2.0.3
 _ZN3kdk6kabase20UserManualManagementC1Ev@Base 1.2.0.3
 _ZN3kdk6kabase20UserManualManagementC2Ev@Base 1.2.0.3
 _ZN3kdk6kabase20UserManualManagementD1Ev@Base 1.2.0.3
 _ZN3kdk6kabase20UserManualManagementD2Ev@Base 1.2.0.3
 _ZN3kdk6kabase22LingmoImageCodecSignals11qt_metacallEN11QMetaObject4CallEiPPv@Base 1.2.0.3
 _ZN3kdk6kabase22LingmoImageCodecSignals11qt_metacastEPKc@Base 1.2.0.3
 _ZN3kdk6kabase22LingmoImageCodecSignals15loadMovieFinishERK7QString@Base 1.2.0.3
 _ZN3kdk6kabase22LingmoImageCodecSignals15saveMovieFinishERK7QString@Base 1.2.0.3
 _ZN3kdk6kabase22LingmoImageCodecSignals16staticMetaObjectE@Base 1.2.0.3
 _ZN3kdk6kabase3Log9logOutputE9QtMsgTypeRK18QMessageLogContextRK7QString@Base 1.2.0.3
 _ZN3kdk6kabase3LogC1ENS1_8LogLevelE@Base 1.2.0.3
 _ZN3kdk6kabase3LogC1Ev@Base 1.2.0.3
 _ZN3kdk6kabase3LogC2ENS1_8LogLevelE@Base 1.2.0.3
 _ZN3kdk6kabase3LogC2Ev@Base 1.2.0.3
 _ZN3kdk6kabase3LogD1Ev@Base 1.2.0.3
 _ZN3kdk6kabase3LogD2Ev@Base 1.2.0.3
 _ZN3kdk6kabase4DBus10callMethodE7QStringS2_S2_S2_5QListI8QVariantE@Base 1.2.0.3
 _ZN3kdk6kabase4DBus14registerObjectE7QStringP7QObject@Base 1.2.0.3
 _ZN3kdk6kabase4DBus15registerServiceE7QString@Base 1.2.0.3
 _ZN3kdk6kabase4DBusC1Ev@Base 1.2.0.3
 _ZN3kdk6kabase4DBusC2Ev@Base 1.2.0.3
 _ZN3kdk6kabase4DBusD1Ev@Base 1.2.0.3
 _ZN3kdk6kabase4DBusD2Ev@Base 1.2.0.3
 _ZN3kdk6kabase4infoE@Base 1.2.0.3
 _ZN3kdk6kabase5debugE@Base 1.2.0.3
 _ZN3kdk6kabase5errorE@Base 1.2.0.3
 _ZN3kdk6kabase5fatalE@Base 1.2.0.3
 _ZN3kdk6kabase7warningE@Base 1.2.0.3
 _ZN3kdk6kabase8Currency10getAppNameENS0_7AppNameE@Base 1.2.0.3
 _ZN3kdk6kabase8CurrencyC1Ev@Base 1.2.0.3
 _ZN3kdk6kabase8CurrencyC2Ev@Base 1.2.0.3
 _ZN3kdk6kabase8CurrencyD1Ev@Base 1.2.0.3
 _ZN3kdk6kabase8CurrencyD2Ev@Base 1.2.0.3
 _ZN3kdk6kabase9Gsettings11qt_metacallEN11QMetaObject4CallEiPPv@Base 1.2.0.3
 _ZN3kdk6kabase9Gsettings11qt_metacastEPKc@Base 1.2.0.3
 _ZN3kdk6kabase9Gsettings14cancelRegisterE7QString@Base 1.2.0.3
 _ZN3kdk6kabase9Gsettings14getSystemThemeEv@Base 1.2.0.3
 _ZN3kdk6kabase9Gsettings14registerObjectE7QString10QByteArray@Base 1.2.0.3
 _ZN3kdk6kabase9Gsettings15slotThemeChangeE7QString@Base 1.2.0.3
 _ZN3kdk6kabase9Gsettings16staticMetaObjectE@Base 1.2.0.3
 _ZN3kdk6kabase9Gsettings17getSystemFontSizeEv@Base 1.2.0.3
 _ZN3kdk6kabase9Gsettings17systemThemeChangeEv@Base 1.2.0.3
 _ZN3kdk6kabase9Gsettings20systemFontSizeChangeEv@Base 1.2.0.3
 _ZN3kdk6kabase9Gsettings21getSystemTransparencyEv@Base 1.2.0.3
 _ZN3kdk6kabase9Gsettings24systemTransparencyChangeEv@Base 1.2.0.3
 _ZN3kdk6kabase9Gsettings34slotControlCenterPersonaliseChangeE7QString@Base 1.2.0.3
 _ZN3kdk6kabase9Gsettings3getE7QStringS2_@Base 1.2.0.3
 _ZN3kdk6kabase9Gsettings3setE7QStringS2_8QVariant@Base 1.2.0.3
 _ZN3kdk6kabase9Gsettings4connEv@Base 1.2.0.3
 _ZN3kdk6kabase9Gsettings4keysE7QString@Base 1.2.0.3
 _ZN3kdk6kabase9Gsettings5resetE7QStringS2_@Base 1.2.0.3
 _ZN3kdk6kabase9Gsettings8getPointEv@Base 1.2.0.3
 _ZN3kdk6kabase9GsettingsC1Ev@Base 1.2.0.3
 _ZN3kdk6kabase9GsettingsC2Ev@Base 1.2.0.3
 _ZN3kdk6kabase9GsettingsD0Ev@Base 1.2.0.3
 _ZN3kdk6kabase9GsettingsD1Ev@Base 1.2.0.3
 _ZN3kdk6kabase9GsettingsD2Ev@Base 1.2.0.3
 _ZN3kdk6kabase9LoadMovie11qt_metacallEN11QMetaObject4CallEiPPv@Base 1.2.0.3
 _ZN3kdk6kabase9LoadMovie11qt_metacastEPKc@Base 1.2.0.3
 _ZN3kdk6kabase9LoadMovie15loadMovieFinishERK7QString@Base 1.2.0.3
 _ZN3kdk6kabase9LoadMovie16staticMetaObjectE@Base 1.2.0.3
 _ZN3kdk6kabase9LoadMovie3runEv@Base 1.2.0.3
 _ZN3kdk6kabase9LoadMovieC1EP5QListIN2cv3MatEEP6QMovie@Base 1.2.0.3
 _ZN3kdk6kabase9LoadMovieC2EP5QListIN2cv3MatEEP6QMovie@Base 1.2.0.3
 _ZN3kdk6kabase9SaveMovie10processLogEv@Base 1.2.0.3
 _ZN3kdk6kabase9SaveMovie10saveFinishEv@Base 1.2.0.3
 _ZN3kdk6kabase9SaveMovie11qt_metacallEN11QMetaObject4CallEiPPv@Base 1.2.0.3
 _ZN3kdk6kabase9SaveMovie11qt_metacastEPKc@Base 1.2.0.3
 _ZN3kdk6kabase9SaveMovie13creatTempPathEv@Base 1.2.0.3
 _ZN3kdk6kabase9SaveMovie15saveMovieFinishERK7QString@Base 1.2.0.3
 _ZN3kdk6kabase9SaveMovie16staticMetaObjectE@Base 1.2.0.3
 _ZN3kdk6kabase9SaveMovie3runEv@Base 1.2.0.3
 _ZN3kdk6kabase9SaveMovie9TEMP_PATHE@Base 1.2.0.3
 _ZN3kdk6kabase9SaveMovieC1EP5QListIN2cv3MatEERKiRK7QStringP11QStringList@Base 1.2.0.3
 _ZN3kdk6kabase9SaveMovieC2EP5QListIN2cv3MatEERKiRK7QStringP11QStringList@Base 1.2.0.3
 (optional=templinst)_ZN5QHashI7QStringP10QGSettingsE11deleteNode2EPN9QHashData4NodeE@Base 1.2.0.3
 (optional=templinst)_ZN5QHashI7QStringP10QGSettingsE13duplicateNodeEPN9QHashData4NodeEPv@Base 1.2.0.3
 (optional=templinst)_ZN5QHashI7QStringiE11deleteNode2EPN9QHashData4NodeE@Base 1.2.0.3
 (optional=templinst)_ZN5QHashI7QStringiE13duplicateNodeEPN9QHashData4NodeEPv@Base 1.2.0.3
 (optional=templinst)_ZN9QtPrivate11QSlotObjectIM7QObjectFvvENS_4ListIJEEEvE4implEiPNS_15QSlotObjectBaseEPS1_PPvPb@Base 1.2.0.3
 (optional=templinst)_ZN9QtPrivate11QSlotObjectIMN3kdk6kabase22LingmoImageCodecSignalsEFvRK7QStringENS_4ListIJS6_EEEvE4implEiPNS_15QSlotObjectBaseEP7QObjectPPvPb@Base 1.2.0.3
 (optional=templinst)_ZN9QtPrivate11QSlotObjectIMN3kdk6kabase9GsettingsEFv7QStringENS_4ListIJRKS4_EEEvE4implEiPNS_15QSlotObjectBaseEP7QObjectPPvPb@Base 1.2.0.3
 (optional=templinst)_ZN9QtPrivate11QSlotObjectIMN3kdk6kabase9SaveMovieEFvvENS_4ListIJEEEvE4implEiPNS_15QSlotObjectBaseEP7QObjectPPvPb@Base 1.2.0.3
 _ZNK11XAtomHelper10metaObjectEv@Base 1.2.0.3
 _ZNK3kdk6kabase11QtLocalPeer10metaObjectEv@Base 1.2.0.3
 _ZNK3kdk6kabase12QtLP_Private12QtLockedFile8isLockedEv@Base 1.2.0.3
 _ZNK3kdk6kabase12QtLP_Private12QtLockedFile8lockModeEv@Base 1.2.0.3
 _ZNK3kdk6kabase15LingmoImageCodec10metaObjectEv@Base 1.2.0.3
 _ZNK3kdk6kabase19QtSingleApplication10metaObjectEv@Base 1.2.0.3
 _ZNK3kdk6kabase19QtSingleApplication16activationWindowEv@Base 1.2.0.3
 _ZNK3kdk6kabase19QtSingleApplication2idEv@Base 1.2.0.3
 _ZNK3kdk6kabase22LingmoImageCodecSignals10metaObjectEv@Base 1.2.0.3
 _ZNK3kdk6kabase3LoglsE7QString@Base 1.2.0.3
 _ZNK3kdk6kabase3LoglsENSt7__cxx1112basic_stringIcSt11char_traitsIcESaIcEEE@Base 1.2.0.3
 _ZNK3kdk6kabase3LoglsEPKc@Base 1.2.0.3
 _ZNK3kdk6kabase3LoglsEPc@Base 1.2.0.3
 _ZNK3kdk6kabase3LoglsEPv@Base 1.2.0.3
 _ZNK3kdk6kabase3LoglsEb@Base 1.2.0.3
 _ZNK3kdk6kabase3LoglsEd@Base 1.2.0.3
 _ZNK3kdk6kabase3LoglsEf@Base 1.2.0.3
 _ZNK3kdk6kabase3LoglsEi@Base 1.2.0.3
 _ZNK3kdk6kabase9Gsettings10metaObjectEv@Base 1.2.0.3
 _ZNK3kdk6kabase9LoadMovie10metaObjectEv@Base 1.2.0.3
 _ZNK3kdk6kabase9SaveMovie10metaObjectEv@Base 1.2.0.3
 _ZTI11XAtomHelper@Base 1.2.0.3
 _ZTIN3kdk6kabase11QtLocalPeerE@Base 1.2.0.3
 _ZTIN3kdk6kabase12QtLP_Private12QtLockedFileE@Base 1.2.0.3
 _ZTIN3kdk6kabase15LingmoImageCodecE@Base 1.2.0.3
 _ZTIN3kdk6kabase19QtSingleApplicationE@Base 1.2.0.3
 _ZTIN3kdk6kabase22LingmoImageCodecSignalsE@Base 1.2.0.3
 _ZTIN3kdk6kabase9GsettingsE@Base 1.2.0.3
 _ZTIN3kdk6kabase9LoadMovieE@Base 1.2.0.3
 _ZTIN3kdk6kabase9SaveMovieE@Base 1.2.0.3
 _ZTS11XAtomHelper@Base 1.2.0.3
 _ZTSN3kdk6kabase11QtLocalPeerE@Base 1.2.0.3
 _ZTSN3kdk6kabase12QtLP_Private12QtLockedFileE@Base 1.2.0.3
 _ZTSN3kdk6kabase15LingmoImageCodecE@Base 1.2.0.3
 _ZTSN3kdk6kabase19QtSingleApplicationE@Base 1.2.0.3
 _ZTSN3kdk6kabase22LingmoImageCodecSignalsE@Base 1.2.0.3
 _ZTSN3kdk6kabase9GsettingsE@Base 1.2.0.3
 _ZTSN3kdk6kabase9LoadMovieE@Base 1.2.0.3
 _ZTSN3kdk6kabase9SaveMovieE@Base 1.2.0.3
 _ZTV11XAtomHelper@Base 1.2.0.3
 _ZTVN3kdk6kabase11QtLocalPeerE@Base 1.2.0.3
 _ZTVN3kdk6kabase12QtLP_Private12QtLockedFileE@Base 1.2.0.3
 _ZTVN3kdk6kabase15LingmoImageCodecE@Base 1.2.0.3
 _ZTVN3kdk6kabase19QtSingleApplicationE@Base 1.2.0.3
 _ZTVN3kdk6kabase22LingmoImageCodecSignalsE@Base 1.2.0.3
 _ZTVN3kdk6kabase9GsettingsE@Base 1.2.0.3
 _ZTVN3kdk6kabase9LoadMovieE@Base 1.2.0.3
 _ZTVN3kdk6kabase9SaveMovieE@Base 1.2.0.3
