# SymbolsHelper-Confirmed: 2.3.1.0 amd64
liblingmosdk-waylandhelper.so.1 liblingmosdk-waylandhelper #MINVER#
 _ZN11XAtomHelper11getInstanceEv@Base 1.2.0.3
 _ZN11XAtomHelper11qt_metacallEN11QMetaObject4CallEiPPv@Base 1.2.0.3
 _ZN11XAtomHelper11qt_metacastEPKc@Base 1.2.0.3
 _ZN11XAtomHelper16staticMetaObjectE@Base 1.2.0.3
 _ZN11XAtomHelper17isFrameLessWindowEi@Base 1.2.0.3
 _ZN11XAtomHelper18getWindowMotifHintEi@Base 1.2.0.3
 _ZN11XAtomHelper18isLINGMOCsdSupportedEv@Base 1.2.0.3
 _ZN11XAtomHelper18setWindowMotifHintEiRK12MotifWmHints@Base 1.2.0.3
 _ZN11XAtomHelper21getWindowBorderRadiusEi@Base 1.2.0.3
 _ZN11XAtomHelper21setLINGMODecoraiontHintEib@Base 1.2.0.3
 _ZN11XAtomHelper21setWindowBorderRadiusEiRK12UnityCorners@Base 1.2.0.3
 _ZN11XAtomHelper21setWindowBorderRadiusEiiiii@Base 1.2.0.3
 _ZN11XAtomHelper22isLINGMODecorationWindowEi@Base 1.2.0.3
 _ZN11XAtomHelper26isWindowDecorateBorderOnlyEi@Base 1.2.0.3
 _ZN11XAtomHelper31registerLINGMOCsdNetWmSupportAtomEv@Base 1.2.0.3
 _ZN11XAtomHelper33unregisterLINGMOCsdNetWmSupportAtomEv@Base 1.2.0.3
 _ZN11XAtomHelper35isWindowMotifHintDecorateBorderOnlyERK12MotifWmHints@Base 1.2.0.3
 _ZN11XAtomHelperC1EP7QObject@Base 1.2.0.3
 _ZN11XAtomHelperC2EP7QObject@Base 1.2.0.3
 _ZN21LINGMODecorationManager10moveWindowEP7QWindow@Base 1.2.0.3
 _ZN21LINGMODecorationManager11getInstanceEv@Base 1.2.0.3
 _ZN21LINGMODecorationManager15removeHeaderBarEP7QWindow@Base 1.2.0.3
 _ZN21LINGMODecorationManager15setCornerRadiusEP7QWindowiiii@Base 1.2.0.3
 _ZN21LINGMODecorationManager21supportLINGMODecorationEv@Base 1.2.0.3
 _ZN21LINGMODecorationManagerC1Ev@Base 1.2.0.3
 _ZN21LINGMODecorationManagerC2Ev@Base 1.2.0.3
 _ZN3kdk10WmRegister12winInterfaceEv@Base 1.2.0.3
 _ZN3kdk10WmRegisterC1EP7QObject@Base 1.2.0.3
 _ZN3kdk10WmRegisterC2EP7QObject@Base 1.2.0.3
 _ZN3kdk10WmRegisterD0Ev@Base 1.2.0.3
 _ZN3kdk10WmRegisterD1Ev@Base 1.2.0.3
 _ZN3kdk10WmRegisterD2Ev@Base 1.2.0.3
 _ZN3kdk13WaylandHelper15isWaylandClientEv@Base 1.2.0.3
 _ZN3kdk13WaylandHelper15isWaylandServerEv@Base 1.2.0.3
 _ZN3kdk13WaylandHelper4selfEv@Base 1.2.0.3
 _ZN3kdk13WaylandHelperC1EP7QObject@Base 1.2.0.3
 _ZN3kdk13WaylandHelperC2EP7QObject@Base 1.2.0.3
 _ZN3kdk13WindowManager11closeWindowERK8QVariant@Base 1.2.0.3
 _ZN3kdk13WindowManager11hideDesktopEv@Base 1.2.0.3
 _ZN3kdk13WindowManager11iconChangedERK8QVariant@Base 2.3.1.0
 _ZN3kdk13WindowManager11isOnDesktopERK8QVarianti@Base 2.1.1.0
 _ZN3kdk13WindowManager11qt_metacallEN11QMetaObject4CallEiPPv@Base 1.2.0.3
 _ZN3kdk13WindowManager11qt_metacastEPKc@Base 1.2.0.3
 _ZN3kdk13WindowManager11setGeometryEP7QWindowRK5QRect@Base 1.2.0.3
 _ZN3kdk13WindowManager11showDesktopEv@Base 1.2.0.3
 _ZN3kdk13WindowManager11skipTaskBarERK8QVariant@Base 1.2.0.3
 _ZN3kdk13WindowManager11windowAddedERK8QVariant@Base 1.2.0.3
 _ZN3kdk13WindowManager12skipSwitcherERK8QVariant@Base 1.2.0.3
 _ZN3kdk13WindowManager12titleChangedERK8QVariant@Base 2.3.1.0
 _ZN3kdk13WindowManager13activeChangedERK8QVariant@Base 2.3.1.0
 _ZN3kdk13WindowManager13getWindowIconERK8QVariant@Base 1.2.0.3
 _ZN3kdk13WindowManager13getWindowTypeERK8QVariant@Base 1.2.0.3
 _ZN3kdk13WindowManager13getwindowInfoERK8QVariant@Base 1.2.0.3
 _ZN3kdk13WindowManager13windowChangedERK8QVariant@Base 1.2.0.3
 _ZN3kdk13WindowManager13windowRemovedERK8QVariant@Base 1.2.0.3
 _ZN3kdk13WindowManager14activateWindowERK8QVariant@Base 1.2.0.3
 _ZN3kdk13WindowManager14currentDesktopEv@Base 1.2.0.3
 _ZN3kdk13WindowManager14getWindowGroupERK8QVariant@Base 1.2.0.3
 _ZN3kdk13WindowManager14getWindowTitleERK8QVariant@Base 1.2.0.3
 _ZN3kdk13WindowManager14maximizeWindowERK8QVariant@Base 1.2.0.3
 _ZN3kdk13WindowManager14minimizeWindowERK8QVariant@Base 1.2.0.3
 _ZN3kdk13WindowManager14setSkipTaskBarEP7QWindowb@Base 1.2.0.3
 _ZN3kdk13WindowManager15demandAttentionERK8QVariant@Base 2.3.1.0
 _ZN3kdk13WindowManager15geometryChangedERK8QVariant@Base 2.3.1.0
 _ZN3kdk13WindowManager15isOnAllDesktopsERK8QVariant@Base 2.0.0.0
 _ZN3kdk13WindowManager15keepWindowAboveERK8QVariant@Base 1.2.0.3
 _ZN3kdk13WindowManager15setSkipSwitcherEP7QWindowb@Base 1.2.0.3
 _ZN3kdk13WindowManager16isShowingDesktopEv@Base 2.0.0.0
 _ZN3kdk13WindowManager16keepAboveChangedERK8QVariant@Base 2.3.1.0
 _ZN3kdk13WindowManager16maximizedChangedERK8QVariant@Base 2.3.1.0
 _ZN3kdk13WindowManager16minimizedChangedERK8QVariant@Base 2.3.1.0
 _ZN3kdk13WindowManager16setOnAllDesktopsERK8QVariant@Base 2.0.0.0
 _ZN3kdk13WindowManager16staticMetaObjectE@Base 1.2.0.3
 _ZN3kdk13WindowManager17fullscreenChangedERK8QVariant@Base 2.3.1.0
 _ZN3kdk13WindowManager17setPanelTakefocusEP7QWindowb@Base 2.3.1.0
 _ZN3kdk13WindowManager18isOnCurrentDesktopERK8QVariant@Base 2.1.1.0
 _ZN3kdk13WindowManager18skipTaskbarChangedERK8QVariant@Base 2.3.1.0
 _ZN3kdk13WindowManager19activeWindowChangedERK8QVariant@Base 1.2.0.3
 _ZN3kdk13WindowManager19currentActiveWindowEv@Base 1.2.0.3
 _ZN3kdk13WindowManager19skipSwitcherChangedERK8QVariant@Base 2.3.1.0
 _ZN3kdk13WindowManager20onAllDesktopsChangedERK8QVariant@Base 2.3.1.0
 _ZN3kdk13WindowManager21currentDesktopChangedEv@Base 1.2.0.3
 _ZN3kdk13WindowManager23demandsAttentionChangedERK8QVariant@Base 2.3.1.0
 _ZN3kdk13WindowManager23isShowingDesktopChangedEv@Base 2.0.0.0
 _ZN3kdk13WindowManager4selfEv@Base 1.2.0.3
 _ZN3kdk13WindowManager6getPidERK8QVariant@Base 1.2.0.3
 _ZN3kdk13WindowManager7windowsEv@Base 1.2.0.3
 _ZN3kdk13WindowManagerC1EP7QObject@Base 1.2.0.3
 _ZN3kdk13WindowManagerC2EP7QObject@Base 1.2.0.3
 _ZN3kdk15LingmoUIStyleHelper11eventFilterEP7QObjectP6QEvent@Base 1.2.0.3
 _ZN3kdk15LingmoUIStyleHelper12removeHeaderEP7QWidget@Base 1.2.0.3
 _ZN3kdk15LingmoUIStyleHelper4selfEv@Base 1.2.0.3
 _ZN3kdk15LingmoUIStyleHelperC1Ev@Base 1.2.0.3
 _ZN3kdk15LingmoUIStyleHelperC2Ev@Base 1.2.0.3
 _ZN3kdk17AbstractInterface10isValidForERK8QVariant@Base 1.2.0.3
 _ZN3kdk17AbstractInterface11iconChangedE8QVariant@Base 2.3.1.0
 _ZN3kdk17AbstractInterface11qt_metacallEN11QMetaObject4CallEiPPv@Base 1.2.0.3
 _ZN3kdk17AbstractInterface11qt_metacastEPKc@Base 1.2.0.3
 _ZN3kdk17AbstractInterface11windowAddedE8QVariant@Base 1.2.0.3
 _ZN3kdk17AbstractInterface12titleChangedE8QVariant@Base 2.3.1.0
 _ZN3kdk17AbstractInterface13activeChangedE8QVariant@Base 2.3.1.0
 _ZN3kdk17AbstractInterface13windowChangedE8QVariant@Base 1.2.0.3
 _ZN3kdk17AbstractInterface13windowRemovedE8QVariant@Base 1.2.0.3
 _ZN3kdk17AbstractInterface14currentDesktopEv@Base 1.2.0.3
 _ZN3kdk17AbstractInterface15currentActivityEv@Base 1.2.0.3
 _ZN3kdk17AbstractInterface15geometryChangedE8QVariant@Base 2.3.1.0
 _ZN3kdk17AbstractInterface15isPlasmaDesktopERK5QRect@Base 1.2.0.3
 _ZN3kdk17AbstractInterface16keepAboveChangedE8QVariant@Base 2.3.1.0
 _ZN3kdk17AbstractInterface16maximizedChangedE8QVariant@Base 2.3.1.0
 _ZN3kdk17AbstractInterface16minimizedChangedE8QVariant@Base 2.3.1.0
 _ZN3kdk17AbstractInterface16setPlasmaDesktopE8QVariant@Base 1.2.0.3
 _ZN3kdk17AbstractInterface16staticMetaObjectE@Base 1.2.0.3
 _ZN3kdk17AbstractInterface17fullscreenChangedE8QVariant@Base 2.3.1.0
 _ZN3kdk17AbstractInterface18skipTaskbarChangedE8QVariant@Base 2.3.1.0
 _ZN3kdk17AbstractInterface19activeWindowChangedE8QVariant@Base 1.2.0.3
 _ZN3kdk17AbstractInterface19skipSwitcherChangedE8QVariant@Base 2.3.1.0
 _ZN3kdk17AbstractInterface20onAllDesktopsChangedE8QVariant@Base 2.3.1.0
 _ZN3kdk17AbstractInterface21currentDesktopChangedEv@Base 1.2.0.3
 _ZN3kdk17AbstractInterface23demandsAttentionChangedE8QVariant@Base 2.3.1.0
 _ZN3kdk17AbstractInterface23isShowingDesktopChangedEv@Base 2.0.0.0
 _ZN3kdk17AbstractInterface24inCurrentDesktopActivityERKNS_10WindowInfoE@Base 1.2.0.3
 _ZN3kdk17AbstractInterface7windowsEv@Base 1.2.0.3
 _ZN3kdk17AbstractInterfaceC1EP7QObject@Base 1.2.0.3
 _ZN3kdk17AbstractInterfaceC2EP7QObject@Base 1.2.0.3
 _ZN3kdk17AbstractInterfaceD0Ev@Base 1.2.0.3
 _ZN3kdk17AbstractInterfaceD1Ev@Base 1.2.0.3
 _ZN3kdk17AbstractInterfaceD2Ev@Base 1.2.0.3
 (optional=templinst)_ZN9QtPrivate11QSlotObjectIMN3kdk13WindowManagerEFvRK8QVariantENS_4ListIJS3_EEEvE4implEiPNS_15QSlotObjectBaseEP7QObjectPPvPb@Base 1.2.0.3
 (optional=templinst)_ZN9QtPrivate11QSlotObjectIMN3kdk13WindowManagerEFvvENS_4ListIJEEEvE4implEiPNS_15QSlotObjectBaseEP7QObjectPPvPb@Base 1.2.0.3
 (optional=templinst)_ZN9QtPrivate11QSlotObjectIMN3kdk17AbstractInterfaceEFv8QVariantENS_4ListIJyEEEvE4implEiPNS_15QSlotObjectBaseEP7QObjectPPvPb@Base 1.2.0.3
 (optional=templinst)_ZN9QtPrivate11QSlotObjectIMN3kdk17AbstractInterfaceEFvvENS_4ListIJEEEvE4implEiPNS_15QSlotObjectBaseEP7QObjectPPvPb@Base 2.0.0.0
 _ZNK11XAtomHelper10metaObjectEv@Base 1.2.0.3
 _ZNK3kdk13WindowManager10metaObjectEv@Base 1.2.0.3
 _ZNK3kdk17AbstractInterface10metaObjectEv@Base 1.2.0.3
 _ZTI11XAtomHelper@Base 1.2.0.3
 _ZTIN3kdk10WmRegisterE@Base 1.2.0.3
 _ZTIN3kdk13WindowManagerE@Base 1.2.0.3
 _ZTIN3kdk15LingmoUIStyleHelperE@Base 1.2.0.3
 _ZTIN3kdk17AbstractInterfaceE@Base 1.2.0.3
 _ZTS11XAtomHelper@Base 1.2.0.3
 _ZTSN3kdk10WmRegisterE@Base 1.2.0.3
 _ZTSN3kdk13WaylandHelperE@Base 1.2.0.3
 _ZTSN3kdk13WindowManagerE@Base 1.2.0.3
 _ZTSN3kdk15LingmoUIStyleHelperE@Base 1.2.0.3
 _ZTSN3kdk17AbstractInterfaceE@Base 1.2.0.3
 _ZTV11XAtomHelper@Base 1.2.0.3
 _ZTVN3kdk10WmRegisterE@Base 1.2.0.3
 _ZTVN3kdk13WindowManagerE@Base 1.2.0.3
 _ZTVN3kdk15LingmoUIStyleHelperE@Base 1.2.0.3
 _ZTVN3kdk17AbstractInterfaceE@Base 1.2.0.3
 org_kde_plasma_activation_feedback_interface@Base 2.3.1.0
 org_kde_plasma_activation_interface@Base 2.3.1.0
 org_kde_plasma_window_interface@Base 2.3.1.0
 org_kde_plasma_window_management_interface@Base 2.3.1.0
