# SymbolsHelper-Confirmed: 5.103.0 amd64
libKF5Plasma.so.5 libkf5plasma5 #MINVER#, libkf5plasma5 (>= 5.53~)
* Build-Depends-Package: libkf5plasma-dev
 _ZN6Plasma10DataEngine10removeDataERK7QStringS3_@Base 4.96.0
 _ZN6Plasma10DataEngine10timerEventEP11QTimerEvent@Base 4.96.0
 _ZN6Plasma10DataEngine11qt_metacallEN11QMetaObject4CallEiPPv@Base 4.96.0
 _ZN6Plasma10DataEngine11qt_metacastEPKc@Base 4.96.0
 _ZN6Plasma10DataEngine11sourceAddedERK7QString@Base 4.96.0
 _ZN6Plasma10DataEngine12removeSourceERK7QString@Base 4.96.0
 _ZN6Plasma10DataEngine13removeAllDataERK7QString@Base 4.96.0
 _ZN6Plasma10DataEngine13sourceRemovedERK7QString@Base 4.96.0
 _ZN6Plasma10DataEngine14modelForSourceERK7QString@Base 4.96.0
 _ZN6Plasma10DataEngine16removeAllSourcesEv@Base 4.96.0
 _ZN6Plasma10DataEngine16serviceForSourceERK7QString@Base 4.96.0
 _ZN6Plasma10DataEngine16staticMetaObjectE@Base 4.96.0
 _ZN6Plasma10DataEngine16updateAllSourcesEv@Base 4.96.0
 _ZN6Plasma10DataEngine17setStorageEnabledERK7QStringb@Base 4.96.0
 _ZN6Plasma10DataEngine17updateSourceEventERK7QString@Base 4.96.0
 _ZN6Plasma10DataEngine18containerForSourceERK7QString@Base 4.96.0
 _ZN6Plasma10DataEngine18setPollingIntervalEj@Base 4.96.0
 _ZN6Plasma10DataEngine18sourceRequestEventERK7QString@Base 4.96.0
 _ZN6Plasma10DataEngine25setMinimumPollingIntervalEi@Base 4.96.0
 _ZN6Plasma10DataEngine39forceImmediateUpdateOfAllVisualizationsEv@Base 4.96.0
 _ZN6Plasma10DataEngine7setDataERK7QStringRK4QMapIS1_8QVariantE@Base 4.96.0
 _ZN6Plasma10DataEngine7setDataERK7QStringRK8QVariant@Base 4.96.0
 _ZN6Plasma10DataEngine7setDataERK7QStringS3_RK8QVariant@Base 4.96.0
 _ZN6Plasma10DataEngine8setModelERK7QStringP18QAbstractItemModel@Base 4.96.0
 _ZN6Plasma10DataEngine8setValidEb@Base 4.96.0
 _ZN6Plasma10DataEngine9addSourceEPNS_13DataContainerE@Base 4.96.0
 _ZN6Plasma10DataEngineC1EP7QObjectRK5QListI8QVariantE@Base 4.96.0
 _ZN6Plasma10DataEngineC1ERK11KPluginInfoP7QObject@Base 4.96.0
 _ZN6Plasma10DataEngineC1ERK15KPluginMetaDataP7QObject@Base 5.69.0
 _ZN6Plasma10DataEngineC2EP7QObjectRK5QListI8QVariantE@Base 4.96.0
 _ZN6Plasma10DataEngineC2ERK11KPluginInfoP7QObject@Base 4.96.0
 _ZN6Plasma10DataEngineC2ERK15KPluginMetaDataP7QObject@Base 5.69.0
 _ZN6Plasma10DataEngineD0Ev@Base 4.96.0
 _ZN6Plasma10DataEngineD1Ev@Base 4.96.0
 _ZN6Plasma10DataEngineD2Ev@Base 4.96.0
 _ZN6Plasma10ServiceJob11qt_metacallEN11QMetaObject4CallEiPPv@Base 4.96.0
 _ZN6Plasma10ServiceJob11qt_metacastEPKc@Base 4.96.0
 _ZN6Plasma10ServiceJob16staticMetaObjectE@Base 4.96.0
 _ZN6Plasma10ServiceJob5startEv@Base 4.96.0
 _ZN6Plasma10ServiceJob9setResultERK8QVariant@Base 4.96.0
 _ZN6Plasma10ServiceJobC1ERK7QStringS3_RK4QMapIS1_8QVariantEP7QObject@Base 4.96.0
 _ZN6Plasma10ServiceJobC2ERK7QStringS3_RK4QMapIS1_8QVariantEP7QObject@Base 4.96.0
 _ZN6Plasma10ServiceJobD0Ev@Base 4.96.0
 _ZN6Plasma10ServiceJobD1Ev@Base 4.96.0
 _ZN6Plasma10ServiceJobD2Ev@Base 4.96.0
 _ZN6Plasma11Containment11appletAddedEPNS_6AppletE@Base 4.96.0
 _ZN6Plasma11Containment11qt_metacallEN11QMetaObject4CallEiPPv@Base 4.96.0
 _ZN6Plasma11Containment11qt_metacastEPKc@Base 4.96.0
 _ZN6Plasma11Containment11setActivityERK7QString@Base 4.96.0
 _ZN6Plasma11Containment11setLocationENS_5Types8LocationE@Base 4.96.0
 _ZN6Plasma11Containment12createAppletERK7QStringRK5QListI8QVariantE@Base 4.96.0
 _ZN6Plasma11Containment12setWallpaperERK7QString@Base 4.96.0
 _ZN6Plasma11Containment13appletCreatedEPNS_6AppletE@Base 5.16.0
 _ZN6Plasma11Containment13appletRemovedEPNS_6AppletE@Base 4.96.0
 _ZN6Plasma11Containment13screenChangedEi@Base 4.96.0
 _ZN6Plasma11Containment13setFormFactorENS_5Types10FormFactorE@Base 4.96.0
 _ZN6Plasma11Containment14uiReadyChangedEb@Base 4.96.0
 _ZN6Plasma11Containment15activityChangedERK7QString@Base 4.96.0
 _ZN6Plasma11Containment15locationChangedENS_5Types8LocationE@Base 4.96.0
 _ZN6Plasma11Containment15restoreContentsER12KConfigGroup@Base 4.96.0
 _ZN6Plasma11Containment16staticMetaObjectE@Base 4.96.0
 _ZN6Plasma11Containment16wallpaperChangedEv@Base 4.96.0
 _ZN6Plasma11Containment17formFactorChangedENS_5Types10FormFactorE@Base 4.96.0
 _ZN6Plasma11Containment18configureRequestedEPNS_6AppletE@Base 4.96.0
 _ZN6Plasma11Containment18containmentActionsEv@Base 4.96.0
 _ZN6Plasma11Containment18setContainmentTypeENS_5Types15ContainmentTypeE@Base 4.96.0
 _ZN6Plasma11Containment19reactToScreenChangeEv@Base 4.96.0
 _ZN6Plasma11Containment21setContainmentActionsERK7QStringS3_@Base 4.96.0
 _ZN6Plasma11Containment22containmentTypeChangedEv@Base 4.96.0
 _ZN6Plasma11Containment23showAddWidgetsInterfaceERK7QPointF@Base 4.96.0
 _ZN6Plasma11Containment26setContainmentDisplayHintsE6QFlagsINS_5Types22ContainmentDisplayHintEE@Base 5.77.0
 _ZN6Plasma11Containment27appletAlternativesRequestedEPNS_6AppletE@Base 5.1.0
 _ZN6Plasma11Containment4initEv@Base 4.96.0
 _ZN6Plasma11Containment7restoreER12KConfigGroup@Base 4.96.0
 _ZN6Plasma11Containment9addAppletEPNS_6AppletE@Base 4.96.0
 _ZN6Plasma11ContainmentC1EP7QObjectRK15KPluginMetaDataRK5QListI8QVariantE@Base 5.90.0
 _ZN6Plasma11ContainmentC1EP7QObjectRK5QListI8QVariantE@Base 4.96.0
 _ZN6Plasma11ContainmentC1EP7QObjectRK7QStringj@Base 4.96.0
 _ZN6Plasma11ContainmentC1ERK15KPluginMetaDataj@Base 5.28.0
 _ZN6Plasma11ContainmentC2EP7QObjectRK15KPluginMetaDataRK5QListI8QVariantE@Base 5.90.0
 _ZN6Plasma11ContainmentC2EP7QObjectRK5QListI8QVariantE@Base 4.96.0
 _ZN6Plasma11ContainmentC2EP7QObjectRK7QStringj@Base 4.96.0
 _ZN6Plasma11ContainmentC2ERK15KPluginMetaDataj@Base 5.28.0
 _ZN6Plasma11ContainmentD0Ev@Base 4.96.0
 _ZN6Plasma11ContainmentD1Ev@Base 4.96.0
 _ZN6Plasma11ContainmentD2Ev@Base 4.96.0
 _ZN6Plasma11TimeTracker11qt_metacallEN11QMetaObject4CallEiPPv@Base 5.1.0
 _ZN6Plasma11TimeTracker11qt_metacastEPKc@Base 5.1.0
 _ZN6Plasma11TimeTracker15propertyChangedEv@Base 5.1.0
 _ZN6Plasma11TimeTracker16staticMetaObjectE@Base 5.1.0
 _ZN6Plasma11TimeTracker4initEv@Base 5.1.0
 _ZN6Plasma11TimeTracker4syncEv@Base 5.1.0
 _ZN6Plasma11TimeTrackerC1EP7QObject@Base 5.1.0
 _ZN6Plasma11TimeTrackerC2EP7QObject@Base 5.1.0
 _ZN6Plasma11TimeTrackerD0Ev@Base 5.1.0
 _ZN6Plasma11TimeTrackerD1Ev@Base 5.1.0
 _ZN6Plasma11TimeTrackerD2Ev@Base 5.1.0
 _ZN6Plasma12AppletScript11qt_metacallEN11QMetaObject4CallEiPPv@Base 4.96.0
 _ZN6Plasma12AppletScript11qt_metacastEPKc@Base 4.96.0
 _ZN6Plasma12AppletScript13configChangedEv@Base 4.96.0
 _ZN6Plasma12AppletScript14uiReadyChangedEb@Base 4.96.0
 _ZN6Plasma12AppletScript16constraintsEventE6QFlagsINS_5Types10ConstraintEE@Base 4.96.0
 _ZN6Plasma12AppletScript16staticMetaObjectE@Base 4.96.0
 _ZN6Plasma12AppletScript17contextualActionsEv@Base 4.96.0
 _ZN6Plasma12AppletScript18setContainmentTypeENS_5Types15ContainmentTypeE@Base 4.96.0
 _ZN6Plasma12AppletScript21setLaunchErrorMessageERK7QString@Base 4.96.0
 _ZN6Plasma12AppletScript24setConfigurationRequiredEbRK7QString@Base 4.96.0
 _ZN6Plasma12AppletScript28setHasConfigurationInterfaceEb@Base 4.96.0
 _ZN6Plasma12AppletScript9setAppletEPNS_6AppletE@Base 4.96.0
 _ZN6Plasma12AppletScriptC1EP7QObject@Base 4.96.0
 _ZN6Plasma12AppletScriptC2EP7QObject@Base 4.96.0
 _ZN6Plasma12AppletScriptD0Ev@Base 4.96.0
 _ZN6Plasma12AppletScriptD1Ev@Base 4.96.0
 _ZN6Plasma12AppletScriptD2Ev@Base 4.96.0
 _ZN6Plasma12PluginLoader10loadAppletERK7QStringjRK5QListI8QVariantE@Base 4.99.0
 _ZN6Plasma12PluginLoader11loadPackageERK7QStringS3_@Base 4.96.0
 _ZN6Plasma12PluginLoader11loadServiceERK7QStringRK5QListI8QVariantEP7QObject@Base 4.96.0
 _ZN6Plasma12PluginLoader14appletCategoryERK7QString@Base 4.96.0
 _ZN6Plasma12PluginLoader14listAllEnginesERK7QString@Base 4.96.0
 _ZN6Plasma12PluginLoader14listAppletInfoERK7QStringS3_@Base 4.96.0
 _ZN6Plasma12PluginLoader14listEngineInfoERK7QString@Base 4.96.0
 _ZN6Plasma12PluginLoader14loadDataEngineERK7QString@Base 4.96.0
 _ZN6Plasma12PluginLoader15setPluginLoaderEPS0_@Base 4.96.0
 _ZN6Plasma12PluginLoader16listContainmentsERK7QStringS3_@Base 4.96.0
 _ZN6Plasma12PluginLoader18internalLoadAppletERK7QStringjRK5QListI8QVariantE@Base 4.96.0
 _ZN6Plasma12PluginLoader18listAppletMetaDataERK7QString@Base 5.90.0
 _ZN6Plasma12PluginLoader18listAppletMetaDataERK7QStringS3_@Base 5.28.0
 _ZN6Plasma12PluginLoader18listDataEngineInfoERK7QString@Base 4.96.0
 _ZN6Plasma12PluginLoader19internalLoadPackageERK7QStringS3_@Base 4.96.0
 _ZN6Plasma12PluginLoader19internalLoadServiceERK7QStringRK5QListI8QVariantEP7QObject@Base 4.96.0
 _ZN6Plasma12PluginLoader20listAppletCategoriesERK7QStringb@Base 4.96.0
 _ZN6Plasma12PluginLoader20listAppletInfoForUrlERK4QUrl@Base 4.96.0
 _ZN6Plasma12PluginLoader20listContainmentTypesEv@Base 4.96.0
 _ZN6Plasma12PluginLoader22internalLoadDataEngineERK7QString@Base 4.96.0
 _ZN6Plasma12PluginLoader22listContainmentsOfTypeERK7QStringS3_S3_@Base 4.96.0
 _ZN6Plasma12PluginLoader22listDataEngineMetaDataERK7QString@Base 5.77.0
 _ZN6Plasma12PluginLoader22loadContainmentActionsEPNS_11ContainmentERK7QStringRK5QListI8QVariantE@Base 4.96.0
 _ZN6Plasma12PluginLoader24listAppletMetaDataForUrlERK4QUrl@Base 5.36.0
 _ZN6Plasma12PluginLoader24listContainmentsMetaDataESt8functionIFbRK15KPluginMetaDataEE@Base 5.81.0
 _ZN6Plasma12PluginLoader24listEngineInfoByCategoryERK7QStringS3_@Base 4.96.0
 _ZN6Plasma12PluginLoader25listAppletInfoForMimeTypeERK7QString@Base 4.96.0
 _ZN6Plasma12PluginLoader25setCustomAppletCategoriesERK11QStringList@Base 4.96.0
 _ZN6Plasma12PluginLoader26listContainmentActionsInfoERK7QString@Base 4.96.0
 _ZN6Plasma12PluginLoader27listContainmentsForMimeTypeERK7QString@Base 4.96.0
 _ZN6Plasma12PluginLoader29listAppletMetaDataForMimeTypeERK7QString@Base 5.36.0
 _ZN6Plasma12PluginLoader30internalLoadContainmentActionsEPNS_11ContainmentERK7QStringRK5QListI8QVariantE@Base 4.96.0
 _ZN6Plasma12PluginLoader30listContainmentActionsMetaDataERK7QString@Base 5.77.0
 _ZN6Plasma12PluginLoader30listContainmentsMetaDataOfTypeERK7QString@Base 5.81.0
 _ZN6Plasma12PluginLoader4selfEv@Base 4.96.0
 _ZN6Plasma12PluginLoaderC1Ev@Base 4.96.0
 _ZN6Plasma12PluginLoaderC2Ev@Base 4.96.0
 _ZN6Plasma12PluginLoaderD0Ev@Base 4.96.0
 _ZN6Plasma12PluginLoaderD1Ev@Base 4.96.0
 _ZN6Plasma12PluginLoaderD2Ev@Base 4.96.0
 _ZN6Plasma12ScriptEngine11qt_metacallEN11QMetaObject4CallEiPPv@Base 4.96.0
 _ZN6Plasma12ScriptEngine11qt_metacastEPKc@Base 4.96.0
 _ZN6Plasma12ScriptEngine16staticMetaObjectE@Base 4.96.0
 _ZN6Plasma12ScriptEngine4initEv@Base 4.96.0
 _ZN6Plasma12ScriptEngineC1EP7QObject@Base 4.96.0
 _ZN6Plasma12ScriptEngineC2EP7QObject@Base 4.96.0
 _ZN6Plasma12ScriptEngineD0Ev@Base 4.96.0
 _ZN6Plasma12ScriptEngineD1Ev@Base 4.96.0
 _ZN6Plasma12ScriptEngineD2Ev@Base 4.96.0
 _ZN6Plasma12versionMajorEv@Base 4.96.0
 _ZN6Plasma12versionMinorEv@Base 4.96.0
 _ZN6Plasma13DataContainer10timerEventEP11QTimerEvent@Base 4.96.0
 _ZN6Plasma13DataContainer11dataUpdatedERK7QStringRK4QMapIS1_8QVariantE@Base 4.96.0
 _ZN6Plasma13DataContainer11qt_metacallEN11QMetaObject4CallEiPPv@Base 4.96.0
 _ZN6Plasma13DataContainer11qt_metacastEPKc@Base 4.96.0
 _ZN6Plasma13DataContainer12becameUnusedERK7QString@Base 4.96.0
 _ZN6Plasma13DataContainer12modelChangedERK7QStringP18QAbstractItemModel@Base 4.96.0
 _ZN6Plasma13DataContainer13getDataEngineEv@Base 4.96.0
 _ZN6Plasma13DataContainer13removeAllDataEv@Base 4.96.0
 _ZN6Plasma13DataContainer14checkForUpdateEv@Base 4.96.0
 _ZN6Plasma13DataContainer14setNeedsUpdateEb@Base 4.96.0
 _ZN6Plasma13DataContainer15updateRequestedEPS0_@Base 4.96.0
 _ZN6Plasma13DataContainer16staticMetaObjectE@Base 4.96.0
 _ZN6Plasma13DataContainer17setStorageEnabledEb@Base 4.96.0
 _ZN6Plasma13DataContainer18setNeedsToBeStoredEb@Base 4.96.0
 _ZN6Plasma13DataContainer20connectVisualizationEP7QObjectjNS_5Types17IntervalAlignmentE@Base 4.96.0
 _ZN6Plasma13DataContainer20forceImmediateUpdateEv@Base 4.96.0
 _ZN6Plasma13DataContainer23disconnectVisualizationEP7QObject@Base 4.96.0
 _ZN6Plasma13DataContainer5modelEv@Base 4.96.0
 _ZN6Plasma13DataContainer7setDataERK7QStringRK8QVariant@Base 4.96.0
 _ZN6Plasma13DataContainer8setModelEP18QAbstractItemModel@Base 4.96.0
 _ZN6Plasma13DataContainerC1EP7QObject@Base 4.96.0
 _ZN6Plasma13DataContainerC2EP7QObject@Base 4.96.0
 _ZN6Plasma13DataContainerD0Ev@Base 4.96.0
 _ZN6Plasma13DataContainerD1Ev@Base 4.96.0
 _ZN6Plasma13DataContainerD2Ev@Base 4.96.0
 _ZN6Plasma13versionStringEv@Base 4.97.0
 _ZN6Plasma14knownLanguagesE6QFlagsINS_5Types13ComponentTypeEE@Base 4.96.0
 _ZN6Plasma14versionReleaseEv@Base 4.96.0
 _ZN6Plasma16DataEngineScript10removeDataERK7QStringS3_@Base 4.96.0
 _ZN6Plasma16DataEngineScript11qt_metacallEN11QMetaObject4CallEiPPv@Base 4.96.0
 _ZN6Plasma16DataEngineScript11qt_metacastEPKc@Base 4.96.0
 _ZN6Plasma16DataEngineScript12removeSourceERK7QString@Base 4.96.0
 _ZN6Plasma16DataEngineScript13removeAllDataERK7QString@Base 4.96.0
 _ZN6Plasma16DataEngineScript13setDataEngineEPNS_10DataEngineE@Base 4.96.0
 _ZN6Plasma16DataEngineScript16removeAllSourcesEv@Base 4.96.0
 _ZN6Plasma16DataEngineScript16serviceForSourceERK7QString@Base 4.96.0
 _ZN6Plasma16DataEngineScript16staticMetaObjectE@Base 4.96.0
 _ZN6Plasma16DataEngineScript16updateAllSourcesEv@Base 4.96.0
 _ZN6Plasma16DataEngineScript17updateSourceEventERK7QString@Base 4.96.0
 _ZN6Plasma16DataEngineScript18setPollingIntervalEj@Base 4.96.0
 _ZN6Plasma16DataEngineScript18sourceRequestEventERK7QString@Base 4.96.0
 _ZN6Plasma16DataEngineScript25setMinimumPollingIntervalEi@Base 4.96.0
 _ZN6Plasma16DataEngineScript39forceImmediateUpdateOfAllVisualizationsEv@Base 4.96.0
 _ZN6Plasma16DataEngineScript7setDataERK7QStringRK4QMapIS1_8QVariantE@Base 4.96.0
 _ZN6Plasma16DataEngineScript7setDataERK7QStringRK8QVariant@Base 4.96.0
 _ZN6Plasma16DataEngineScript7setDataERK7QStringS3_RK8QVariant@Base 4.96.0
 _ZN6Plasma16DataEngineScript9addSourceEPNS_13DataContainerE@Base 4.96.0
 _ZN6Plasma16DataEngineScriptC1EP7QObject@Base 4.96.0
 _ZN6Plasma16DataEngineScriptC2EP7QObject@Base 4.96.0
 _ZN6Plasma16DataEngineScriptD0Ev@Base 4.96.0
 _ZN6Plasma16DataEngineScriptD1Ev@Base 4.96.0
 _ZN6Plasma16DataEngineScriptD2Ev@Base 4.96.0
 _ZN6Plasma16PackageStructure11initPackageEPNS_7PackageE@Base 4.96.0
 _ZN6Plasma16PackageStructure11pathChangedEPNS_7PackageE@Base 4.96.0
 _ZN6Plasma16PackageStructure11qt_metacallEN11QMetaObject4CallEiPPv@Base 4.96.0
 _ZN6Plasma16PackageStructure11qt_metacastEPKc@Base 4.96.0
 _ZN6Plasma16PackageStructure16staticMetaObjectE@Base 4.96.0
 _ZN6Plasma16PackageStructure7installEPNS_7PackageERK7QStringS5_@Base 4.96.0
 _ZN6Plasma16PackageStructure9uninstallEPNS_7PackageERK7QString@Base 4.96.0
 _ZN6Plasma16PackageStructureC1EP7QObjectRK5QListI8QVariantE@Base 4.96.0
 _ZN6Plasma16PackageStructureC2EP7QObjectRK5QListI8QVariantE@Base 4.96.0
 _ZN6Plasma16PackageStructureD0Ev@Base 4.96.0
 _ZN6Plasma16PackageStructureD1Ev@Base 4.96.0
 _ZN6Plasma16PackageStructureD2Ev@Base 4.96.0
 _ZN6Plasma16loadScriptEngineERK7QStringPNS_10DataEngineERK5QListI8QVariantE@Base 4.100.0
 _ZN6Plasma16loadScriptEngineERK7QStringPNS_6AppletERK5QListI8QVariantE@Base 4.100.0
 _ZN6Plasma18ContainmentActions11containmentEv@Base 4.96.0
 _ZN6Plasma18ContainmentActions11qt_metacallEN11QMetaObject4CallEiPPv@Base 4.96.0
 _ZN6Plasma18ContainmentActions11qt_metacastEPKc@Base 4.96.0
 _ZN6Plasma18ContainmentActions13eventToStringEP6QEvent@Base 4.96.0
 _ZN6Plasma18ContainmentActions14setContainmentEPNS_11ContainmentE@Base 4.96.0
 _ZN6Plasma18ContainmentActions16staticMetaObjectE@Base 4.96.0
 _ZN6Plasma18ContainmentActions17contextualActionsEv@Base 4.96.0
 _ZN6Plasma18ContainmentActions17performNextActionEv@Base 4.96.0
 _ZN6Plasma18ContainmentActions21configurationAcceptedEv@Base 4.96.0
 _ZN6Plasma18ContainmentActions21performPreviousActionEv@Base 4.96.0
 _ZN6Plasma18ContainmentActions28createConfigurationInterfaceEP7QWidget@Base 4.96.0
 _ZN6Plasma18ContainmentActions4saveER12KConfigGroup@Base 4.96.0
 _ZN6Plasma18ContainmentActions7restoreERK12KConfigGroup@Base 4.96.0
 _ZN6Plasma18ContainmentActionsC1EP7QObject@Base 4.96.0
 _ZN6Plasma18ContainmentActionsC1EP7QObjectRK5QListI8QVariantE@Base 4.96.0
 _ZN6Plasma18ContainmentActionsC2EP7QObject@Base 4.96.0
 _ZN6Plasma18ContainmentActionsC2EP7QObjectRK5QListI8QVariantE@Base 4.96.0
 _ZN6Plasma18ContainmentActionsD0Ev@Base 4.96.0
 _ZN6Plasma18ContainmentActionsD1Ev@Base 4.96.0
 _ZN6Plasma18ContainmentActionsD2Ev@Base 4.96.0
 _ZN6Plasma18DataEngineConsumer10dataEngineERK7QString@Base 4.96.0
 _ZN6Plasma18DataEngineConsumerC1Ev@Base 4.96.0
 _ZN6Plasma18DataEngineConsumerC2Ev@Base 4.96.0
 _ZN6Plasma18DataEngineConsumerD1Ev@Base 4.96.0
 _ZN6Plasma18DataEngineConsumerD2Ev@Base 4.96.0
 _ZN6Plasma19locationToDirectionENS_5Types8LocationE@Base 4.96.0
 _ZN6Plasma20visualPopupPlacementENS_5Types14PopupPlacementEN2Qt15LayoutDirectionE@Base 5.103.0
 _ZN6Plasma25isPluginVersionCompatibleEj@Base 4.96.0
 _ZN6Plasma26locationToInverseDirectionENS_5Types8LocationE@Base 4.96.0
 _ZN6Plasma3Svg11eventFilterEP7QObjectP6QEvent@Base 4.96.0
 _ZN6Plasma3Svg11qt_metacallEN11QMetaObject4CallEiPPv@Base 4.96.0
 _ZN6Plasma3Svg11qt_metacastEPKc@Base 4.96.0
 _ZN6Plasma3Svg11sizeChangedEv@Base 4.96.0
 _ZN6Plasma3Svg12setImagePathERK7QString@Base 4.96.0
 _ZN6Plasma3Svg13repaintNeededEv@Base 4.96.0
 _ZN6Plasma3Svg13setColorGroupENS_5Theme10ColorGroupE@Base 5.0.0
 _ZN6Plasma3Svg13statusChangedENS0_6StatusE@Base 5.23.0
 _ZN6Plasma3Svg14setScaleFactorEd@Base 5.8.0+git20150317.1235+15.04
 _ZN6Plasma3Svg16colorHintChangedEv@Base 5.0.0
 _ZN6Plasma3Svg16devicePixelRatioEv@Base 4.97.0
 _ZN6Plasma3Svg16imagePathChangedEv@Base 4.96.0
 _ZN6Plasma3Svg16staticMetaObjectE@Base 4.96.0
 _ZN6Plasma3Svg17colorGroupChangedEv@Base 5.0.0
 _ZN6Plasma3Svg18setUseSystemColorsEb@Base 5.16.0
 _ZN6Plasma3Svg19setDevicePixelRatioEd@Base 4.97.0
 _ZN6Plasma3Svg22setUsingRenderingCacheEb@Base 4.96.0
 _ZN6Plasma3Svg23fromCurrentThemeChangedEb@Base 5.3.0+git20141013
 _ZN6Plasma3Svg25setContainsMultipleImagesEb@Base 4.96.0
 _ZN6Plasma3Svg5imageERK5QSizeRK7QString@Base 4.97.0
 _ZN6Plasma3Svg5paintEP8QPainterRK6QRectFRK7QString@Base 4.96.0
 _ZN6Plasma3Svg5paintEP8QPainterRK7QPointFRK7QString@Base 4.96.0
 _ZN6Plasma3Svg5paintEP8QPainteriiRK7QString@Base 4.96.0
 _ZN6Plasma3Svg5paintEP8QPainteriiiiRK7QString@Base 4.96.0
 _ZN6Plasma3Svg6pixmapERK7QString@Base 4.96.0
 _ZN6Plasma3Svg6resizeERK6QSizeF@Base 4.96.0
 _ZN6Plasma3Svg6resizeEdd@Base 4.96.0
 _ZN6Plasma3Svg6resizeEv@Base 4.96.0
 _ZN6Plasma3Svg8setThemeEPNS_5ThemeE@Base 4.96.0
 _ZN6Plasma3Svg9setStatusENS0_6StatusE@Base 5.23.0
 _ZN6Plasma3SvgC1EP7QObject@Base 4.96.0
 _ZN6Plasma3SvgC2EP7QObject@Base 4.96.0
 _ZN6Plasma3SvgD0Ev@Base 4.96.0
 _ZN6Plasma3SvgD1Ev@Base 4.96.0
 _ZN6Plasma3SvgD2Ev@Base 4.96.0
 _ZN6Plasma5Theme11findInCacheERK7QStringR7QPixmapj@Base 4.96.0
 _ZN6Plasma5Theme11qt_metacallEN11QMetaObject4CallEiPPv@Base 4.96.0
 _ZN6Plasma5Theme11qt_metacastEPKc@Base 4.96.0
 _ZN6Plasma5Theme12setThemeNameERK7QString@Base 4.96.0
 _ZN6Plasma5Theme12themeChangedEv@Base 4.96.0
 _ZN6Plasma5Theme13globalPaletteEv@Base 5.90.0
 _ZN6Plasma5Theme13setCacheLimitEi@Base 4.96.0
 _ZN6Plasma5Theme15insertIntoCacheERK7QStringRK7QPixmap@Base 4.96.0
 _ZN6Plasma5Theme15insertIntoCacheERK7QStringRK7QPixmapS3_@Base 4.96.0
 _ZN6Plasma5Theme16staticMetaObjectE@Base 4.96.0
 _ZN6Plasma5Theme17releaseRectsCacheERK7QString@Base 4.96.0
 _ZN6Plasma5Theme18defaultFontChangedEv@Base 4.96.0
 _ZN6Plasma5Theme19smallestFontChangedEv@Base 4.96.0
 _ZN6Plasma5Theme20insertIntoRectsCacheERK7QStringS3_RK6QRectF@Base 4.96.0
 _ZN6Plasma5Theme20invalidateRectsCacheERK7QString@Base 4.96.0
 _ZN6Plasma5Theme20setUseGlobalSettingsEb@Base 4.96.0
 _ZN6Plasma5ThemeC1EP7QObject@Base 4.96.0
 _ZN6Plasma5ThemeC1ERK7QStringP7QObject@Base 4.96.0
 _ZN6Plasma5ThemeC2EP7QObject@Base 4.96.0
 _ZN6Plasma5ThemeC2ERK7QStringP7QObject@Base 4.96.0
 _ZN6Plasma5ThemeD0Ev@Base 4.96.0
 _ZN6Plasma5ThemeD1Ev@Base 4.96.0
 _ZN6Plasma5ThemeD2Ev@Base 4.96.0
 _ZN6Plasma5Types11qt_metacallEN11QMetaObject4CallEiPPv@Base 4.96.0
 _ZN6Plasma5Types11qt_metacastEPKc@Base 4.96.0
 _ZN6Plasma5Types16staticMetaObjectE@Base 4.96.0
 _ZN6Plasma5TypesC1EP7QObject@Base 4.96.0
 _ZN6Plasma5TypesC2EP7QObject@Base 4.96.0
 _ZN6Plasma5TypesD0Ev@Base 4.96.0
 _ZN6Plasma5TypesD1Ev@Base 4.96.0
 _ZN6Plasma5TypesD2Ev@Base 4.96.0
 _ZN6Plasma6Applet10timerEventEP11QTimerEvent@Base 4.96.0
 _ZN6Plasma6Applet11busyChangedEb@Base 5.21.0
 _ZN6Plasma6Applet11iconChangedERK7QString@Base 5.21.0
 _ZN6Plasma6Applet11qt_metacallEN11QMetaObject4CallEiPPv@Base 4.96.0
 _ZN6Plasma6Applet11qt_metacastEPKc@Base 4.96.0
 _ZN6Plasma6Applet12loadPlasmoidERK7QStringj@Base 4.96.0
 _ZN6Plasma6Applet12titleChangedERK7QString@Base 5.21.0
 _ZN6Plasma6Applet13appletDeletedEPS0_@Base 4.96.0
 _ZN6Plasma6Applet13configChangedEv@Base 4.96.0
 _ZN6Plasma6Applet13statusChangedENS_5Types10ItemStatusE@Base 4.96.0
 _ZN6Plasma6Applet15locationChangedENS_5Types8LocationE@Base 4.98.0
 _ZN6Plasma6Applet15setImmutabilityENS_5Types16ImmutabilityTypeE@Base 4.96.0
 _ZN6Plasma6Applet16constraintsEventE6QFlagsINS_5Types10ConstraintEE@Base 4.96.0
 _ZN6Plasma6Applet16destroyedChangedEb@Base 5.4.0+git20141112.1353+15.04
 _ZN6Plasma6Applet16staticMetaObjectE@Base 4.96.0
 _ZN6Plasma6Applet17configNeedsSavingEv@Base 4.96.0
 _ZN6Plasma6Applet17contextualActionsEv@Base 4.96.0
 _ZN6Plasma6Applet17formFactorChangedENS_5Types10FormFactorE@Base 4.98.0
 _ZN6Plasma6Applet17setGlobalShortcutERK12QKeySequence@Base 4.96.0
 _ZN6Plasma6Applet17updateConstraintsE6QFlagsINS_5Types10ConstraintEE@Base 4.96.0
 _ZN6Plasma6Applet18setBackgroundHintsENS_5Types15BackgroundHintsE@Base 5.69.0
 _ZN6Plasma6Applet18setUserConfiguringEb@Base 4.96.0
 _ZN6Plasma6Applet19immutabilityChangedENS_5Types16ImmutabilityTypeE@Base 4.96.0
 _ZN6Plasma6Applet21setLaunchErrorMessageERK7QString@Base 4.96.0
 _ZN6Plasma6Applet22backgroundHintsChangedEv@Base 5.69.0
 _ZN6Plasma6Applet22setUserBackgroundHintsENS_5Types15BackgroundHintsE@Base 5.69.0
 _ZN6Plasma6Applet22userConfiguringChangedEb@Base 4.96.0
 _ZN6Plasma6Applet24runAssociatedApplicationEv@Base 4.96.0
 _ZN6Plasma6Applet24setAssociatedApplicationERK7QString@Base 4.96.0
 _ZN6Plasma6Applet24setConfigurationRequiredEbRK7QString@Base 4.96.0
 _ZN6Plasma6Applet26userBackgroundHintsChangedEv@Base 5.69.0
 _ZN6Plasma6Applet28configurationRequiredChangedEbRK7QString@Base 5.20.0
 _ZN6Plasma6Applet28contextualActionsAboutToShowEv@Base 5.20.0
 _ZN6Plasma6Applet28setAssociatedApplicationUrlsERK5QListI4QUrlE@Base 4.96.0
 _ZN6Plasma6Applet28setHasConfigurationInterfaceEb@Base 4.96.0
 _ZN6Plasma6Applet29flushPendingConstraintsEventsEv@Base 4.96.0
 _ZN6Plasma6Applet30containmentDisplayHintsChangedE6QFlagsINS_5Types22ContainmentDisplayHintEE@Base 5.77.0
 _ZN6Plasma6Applet31effectiveBackgroundHintsChangedEv@Base 5.69.0
 _ZN6Plasma6Applet4initEv@Base 4.96.0
 _ZN6Plasma6Applet7destroyEv@Base 4.96.0
 _ZN6Plasma6Applet7restoreER12KConfigGroup@Base 4.96.0
 _ZN6Plasma6Applet7setBusyEb@Base 5.21.0
 _ZN6Plasma6Applet7setIconERK7QString@Base 4.96.0
 _ZN6Plasma6Applet8setTitleERK7QString@Base 5.21.0
 _ZN6Plasma6Applet9activatedEv@Base 4.97.0
 _ZN6Plasma6Applet9setStatusENS_5Types10ItemStatusE@Base 4.96.0
 _ZN6Plasma6AppletC1EP7QObjectRK15KPluginMetaDataRK5QListI8QVariantE@Base 5.90.0
 _ZN6Plasma6AppletC1EP7QObjectRK5QListI8QVariantE@Base 4.96.0
 _ZN6Plasma6AppletC1EP7QObjectRK7QStringj@Base 4.96.0
 _ZN6Plasma6AppletC1ERK11KPluginInfoP7QObjectj@Base 4.96.0
 _ZN6Plasma6AppletC1ERK15KPluginMetaDataP7QObjectj@Base 5.28.0
 _ZN6Plasma6AppletC1ERK7QStringj@Base 4.96.0
 _ZN6Plasma6AppletC2EP7QObjectRK15KPluginMetaDataRK5QListI8QVariantE@Base 5.90.0
 _ZN6Plasma6AppletC2EP7QObjectRK5QListI8QVariantE@Base 4.96.0
 _ZN6Plasma6AppletC2EP7QObjectRK7QStringj@Base 4.96.0
 _ZN6Plasma6AppletC2ERK11KPluginInfoP7QObjectj@Base 4.96.0
 _ZN6Plasma6AppletC2ERK15KPluginMetaDataP7QObjectj@Base 5.28.0
 _ZN6Plasma6AppletC2ERK7QStringj@Base 4.96.0
 _ZN6Plasma6AppletD0Ev@Base 4.96.0
 _ZN6Plasma6AppletD1Ev@Base 4.96.0
 _ZN6Plasma6AppletD2Ev@Base 4.96.0
 _ZN6Plasma6Corona10loadLayoutERK7QString@Base 4.96.0
 _ZN6Plasma6Corona10setPackageERKNS_7PackageE@Base 4.96.0
 _ZN6Plasma6Corona11qt_metacallEN11QMetaObject4CallEiPPv@Base 4.96.0
 _ZN6Plasma6Corona11qt_metacastEPKc@Base 4.96.0
 _ZN6Plasma6Corona11screenAddedEi@Base 5.41.0
 _ZN6Plasma6Corona11setEditModeEb@Base 5.69.0
 _ZN6Plasma6Corona11setKPackageERKN8KPackage7PackageE@Base 5.5.0+git20150104.1955+15.04
 _ZN6Plasma6Corona12configSyncedEv@Base 4.96.0
 _ZN6Plasma6Corona12exportLayoutER12KConfigGroup5QListIPNS_11ContainmentEE@Base 4.96.0
 _ZN6Plasma6Corona12importLayoutERK12KConfigGroup@Base 4.96.0
 _ZN6Plasma6Corona13screenRemovedEi@Base 5.41.0
 _ZN6Plasma6Corona14packageChangedERKNS_7PackageE@Base 4.96.0
 _ZN6Plasma6Corona15editModeChangedEb@Base 5.69.0
 _ZN6Plasma6Corona15kPackageChangedERKN8KPackage7PackageE@Base 5.5.0+git20150104.1955+15.04
 _ZN6Plasma6Corona15setImmutabilityENS_5Types16ImmutabilityTypeE@Base 4.96.0
 _ZN6Plasma6Corona16containmentAddedEPNS_11ContainmentE@Base 4.96.0
 _ZN6Plasma6Corona16startupCompletedEv@Base 4.99.0
 _ZN6Plasma6Corona16staticMetaObjectE@Base 4.96.0
 _ZN6Plasma6Corona17createContainmentERK7QStringRK5QListI8QVariantE@Base 4.96.0
 _ZN6Plasma6Corona17loadDefaultLayoutEv@Base 4.96.0
 _ZN6Plasma6Corona17requestConfigSyncEv@Base 4.96.0
 _ZN6Plasma6Corona17requireConfigSyncEv@Base 4.96.0
 _ZN6Plasma6Corona18containmentCreatedEPNS_11ContainmentE@Base 5.16.0
 _ZN6Plasma6Corona18screenOwnerChangedEi@Base 4.96.0
 _ZN6Plasma6Corona19immutabilityChangedENS_5Types16ImmutabilityTypeE@Base 4.96.0
 _ZN6Plasma6Corona20containmentForScreenEiRK7QStringRK5QListI8QVariantE@Base 5.1.0
 _ZN6Plasma6Corona20containmentForScreenEiRK7QStringS3_RK5QListI8QVariantE@Base 5.46.0
 _ZN6Plasma6Corona21containmentsForScreenEi@Base 5.46.0
 _ZN6Plasma6Corona21screenGeometryChangedEi@Base 5.35.0
 _ZN6Plasma6Corona23containmentsForActivityERK7QString@Base 5.46.0
 _ZN6Plasma6Corona24createContainmentDelayedERK7QStringRK5QListI8QVariantE@Base 4.99.0
 _ZN6Plasma6Corona26availableScreenRectChangedEv@Base 4.98.0
 _ZN6Plasma6Corona28availableScreenRegionChangedEv@Base 4.96.0
 _ZN6Plasma6CoronaC1EP7QObject@Base 4.96.0
 _ZN6Plasma6CoronaC2EP7QObject@Base 4.96.0
 _ZN6Plasma6CoronaD0Ev@Base 4.96.0
 _ZN6Plasma6CoronaD1Ev@Base 4.96.0
 _ZN6Plasma6CoronaD2Ev@Base 4.96.0
 _ZN6Plasma7Package11setRequiredEPKcb@Base 4.96.0
 _ZN6Plasma7Package12setMimeTypesEPKc11QStringList@Base 4.96.0
 _ZN6Plasma7Package16removeDefinitionEPKc@Base 4.96.0
 _ZN6Plasma7Package16setServicePrefixERK7QString@Base 4.96.0
 _ZN6Plasma7Package17addFileDefinitionEPKcRK7QStringS5_@Base 4.96.0
 _ZN6Plasma7Package18setFallbackPackageERKS0_@Base 5.2.0
 _ZN6Plasma7Package19setDefaultMimeTypesE11QStringList@Base 4.96.0
 _ZN6Plasma7Package21setAllowExternalPathsEb@Base 4.96.0
 _ZN6Plasma7Package21setDefaultPackageRootERK7QString@Base 4.96.0
 _ZN6Plasma7Package22addDirectoryDefinitionEPKcRK7QStringS5_@Base 4.96.0
 _ZN6Plasma7Package22setContentsPrefixPathsERK11QStringList@Base 4.96.0
 _ZN6Plasma7Package7installERK7QStringS3_@Base 4.96.0
 _ZN6Plasma7Package7setPathERK7QString@Base 4.96.0
 _ZN6Plasma7Package9uninstallERK7QStringS3_@Base 4.96.0
 _ZN6Plasma7PackageC1EPNS_16PackageStructureE@Base 4.96.0
 _ZN6Plasma7PackageC1ERKN8KPackage7PackageE@Base 5.36.0
 _ZN6Plasma7PackageC1ERKS0_@Base 4.96.0
 _ZN6Plasma7PackageC2EPNS_16PackageStructureE@Base 4.96.0
 _ZN6Plasma7PackageC2ERKN8KPackage7PackageE@Base 5.36.0
 _ZN6Plasma7PackageC2ERKS0_@Base 4.96.0
 _ZN6Plasma7PackageD1Ev@Base 4.96.0
 _ZN6Plasma7PackageD2Ev@Base 4.96.0
 _ZN6Plasma7PackageaSERKS0_@Base 4.96.0
 _ZN6Plasma7Service11qt_metacallEN11QMetaObject4CallEiPPv@Base 4.96.0
 _ZN6Plasma7Service11qt_metacastEPKc@Base 4.96.0
 _ZN6Plasma7Service12serviceReadyEPS0_@Base 4.96.0
 _ZN6Plasma7Service14setDestinationERK7QString@Base 4.96.0
 _ZN6Plasma7Service16staticMetaObjectE@Base 4.96.0
 _ZN6Plasma7Service18startOperationCallERK4QMapI7QString8QVariantEP7QObject@Base 4.96.0
 _ZN6Plasma7Service19setOperationEnabledERK7QStringb@Base 4.96.0
 _ZN6Plasma7Service19setOperationsSchemeEP9QIODevice@Base 4.96.0
 _ZN6Plasma7Service20operationDescriptionERK7QString@Base 4.96.0
 _ZN6Plasma7Service23operationEnabledChangedERK7QStringb@Base 4.96.0
 _ZN6Plasma7Service24registerOperationsSchemeEv@Base 4.96.0
 _ZN6Plasma7Service7setNameERK7QString@Base 4.96.0
 _ZN6Plasma7ServiceC1EP7QObject@Base 4.96.0
 _ZN6Plasma7ServiceC1EP7QObjectRK5QListI8QVariantE@Base 4.96.0
 _ZN6Plasma7ServiceC2EP7QObject@Base 4.96.0
 _ZN6Plasma7ServiceC2EP7QObjectRK5QListI8QVariantE@Base 4.96.0
 _ZN6Plasma7ServiceD0Ev@Base 4.96.0
 _ZN6Plasma7ServiceD1Ev@Base 4.96.0
 _ZN6Plasma7ServiceD2Ev@Base 4.96.0
 _ZN6Plasma7versionEv@Base 4.96.0
 _ZN6Plasma8FrameSvg10clearCacheEv@Base 4.96.0
 _ZN6Plasma8FrameSvg10paintFrameEP8QPainterRK6QRectFS5_@Base 4.96.0
 _ZN6Plasma8FrameSvg10paintFrameEP8QPainterRK7QPointF@Base 4.96.0
 _ZN6Plasma8FrameSvg11framePixmapEv@Base 4.96.0
 _ZN6Plasma8FrameSvg11qt_metacallEN11QMetaObject4CallEiPPv@Base 4.96.0
 _ZN6Plasma8FrameSvg11qt_metacastEPKc@Base 4.96.0
 _ZN6Plasma8FrameSvg11resizeFrameERK6QSizeF@Base 4.96.0
 _ZN6Plasma8FrameSvg12setImagePathERK7QString@Base 4.96.0
 _ZN6Plasma8FrameSvg16setElementPrefixENS_5Types8LocationE@Base 4.96.0
 _ZN6Plasma8FrameSvg16setElementPrefixERK7QString@Base 4.96.0
 _ZN6Plasma8FrameSvg16staticMetaObjectE@Base 4.96.0
 _ZN6Plasma8FrameSvg17setEnabledBordersE6QFlagsINS0_13EnabledBorderEE@Base 4.96.0
 _ZN6Plasma8FrameSvg17setRepaintBlockedEb@Base 5.35.0
 _ZN6Plasma8FrameSvg19minimumDrawingWidthEv@Base 5.101.0
 _ZN6Plasma8FrameSvg20minimumDrawingHeightEv@Base 5.101.0
 _ZN6Plasma8FrameSvg25setCacheAllRenderedFramesEb@Base 4.96.0
 _ZN6Plasma8FrameSvg6prefixEv@Base 4.96.0
 _ZN6Plasma8FrameSvgC1EP7QObject@Base 4.96.0
 _ZN6Plasma8FrameSvgC2EP7QObject@Base 4.96.0
 _ZN6Plasma8FrameSvgD0Ev@Base 4.96.0
 _ZN6Plasma8FrameSvgD1Ev@Base 4.96.0
 _ZN6Plasma8FrameSvgD2Ev@Base 4.96.0
 (optional=templinst|arch=arm64 armel armhf hurd-i386 i386 kfreebsd-i386 m68k mips mipsel powerpc powerpcspe ppc64el sparc64)_ZNK12KConfigGroup9readEntryI6QRectFEET_PKcRKS2_@Base 4.100.0
 (optional=templinst|arch=!hurd-i386 !i386 !m68k !mipsel !ppc64 !s390x)_ZNK12KConfigGroup9readEntryI6QSizeFEET_PKcRKS2_@Base 5.81.0
 (optional=templinst)_ZNK12KConfigGroup9readEntryIbEET_PKcRKS1_@Base 5.61.0
 (optional=templinst)_ZNK12KConfigGroup9readEntryIdEET_PKcRKS1_@Base 5.17.0
 (optional=templinst)_ZNK12KConfigGroup9readEntryIiEET_PKcRKS1_@Base 4.100.0
 _ZNK12KConfigGroup9readEntryIjEE5QListIT_EPKcRKS3_@Base 5.80.0
 _ZNK6Plasma10DataEngine10metaObjectEv@Base 4.96.0
 _ZNK6Plasma10DataEngine10pluginInfoEv@Base 4.96.0
 _ZNK6Plasma10DataEngine13connectSourceERK7QStringP7QObjectjNS_5Types17IntervalAlignmentE@Base 4.96.0
 _ZNK6Plasma10DataEngine13containerDictEv@Base 4.96.0
 _ZNK6Plasma10DataEngine16disconnectSourceERK7QStringP7QObject@Base 4.96.0
 _ZNK6Plasma10DataEngine17connectAllSourcesEP7QObjectjNS_5Types17IntervalAlignmentE@Base 4.96.0
 _ZNK6Plasma10DataEngine22minimumPollingIntervalEv@Base 4.96.0
 _ZNK6Plasma10DataEngine7isEmptyEv@Base 4.96.0
 _ZNK6Plasma10DataEngine7isValidEv@Base 4.96.0
 _ZNK6Plasma10DataEngine7packageEv@Base 4.96.0
 _ZNK6Plasma10DataEngine7sourcesEv@Base 4.96.0
 _ZNK6Plasma10DataEngine8metadataEv@Base 5.69.0
 _ZNK6Plasma10ServiceJob10metaObjectEv@Base 4.96.0
 _ZNK6Plasma10ServiceJob10parametersEv@Base 4.96.0
 _ZNK6Plasma10ServiceJob11destinationEv@Base 4.96.0
 _ZNK6Plasma10ServiceJob13operationNameEv@Base 4.96.0
 _ZNK6Plasma10ServiceJob6resultEv@Base 4.96.0
 _ZNK6Plasma11Containment10lastScreenEv@Base 4.96.0
 _ZNK6Plasma11Containment10metaObjectEv@Base 4.96.0
 _ZNK6Plasma11Containment12saveContentsER12KConfigGroup@Base 4.96.0
 _ZNK6Plasma11Containment15containmentTypeEv@Base 4.96.0
 _ZNK6Plasma11Containment4saveER12KConfigGroup@Base 4.96.0
 _ZNK6Plasma11Containment6coronaEv@Base 4.96.0
 _ZNK6Plasma11Containment6screenEv@Base 4.96.0
 _ZNK6Plasma11Containment7appletsEv@Base 4.96.0
 _ZNK6Plasma11Containment8activityEv@Base 4.96.0
 _ZNK6Plasma11Containment9isUiReadyEv@Base 4.96.0
 _ZNK6Plasma11Containment9wallpaperEv@Base 4.96.0
 _ZNK6Plasma11TimeTracker10metaObjectEv@Base 5.1.0
 _ZNK6Plasma12AppletScript10mainScriptEv@Base 4.96.0
 _ZNK6Plasma12AppletScript10metaObjectEv@Base 4.96.0
 _ZNK6Plasma12AppletScript11descriptionEv@Base 4.96.0
 _ZNK6Plasma12AppletScript15containmentTypeEv@Base 4.96.0
 _ZNK6Plasma12AppletScript17configNeedsSavingEv@Base 4.96.0
 _ZNK6Plasma12AppletScript6appletEv@Base 4.96.0
 _ZNK6Plasma12AppletScript7packageEv@Base 4.96.0
 _ZNK6Plasma12AppletScript9saveStateER12KConfigGroup@Base 4.96.0
 _ZNK6Plasma12PluginLoader18internalAppletInfoERK7QString@Base 4.96.0
 _ZNK6Plasma12PluginLoader19internalServiceInfoEv@Base 4.96.0
 _ZNK6Plasma12PluginLoader22customAppletCategoriesEv@Base 4.96.0
 _ZNK6Plasma12PluginLoader22internalDataEngineInfoEv@Base 4.96.0
 _ZNK6Plasma12PluginLoader26standardInternalAppletInfoERK7QString@Base 4.96.0
 _ZNK6Plasma12PluginLoader27standardInternalServiceInfoEv@Base 4.96.0
 _ZNK6Plasma12PluginLoader30internalContainmentActionsInfoEv@Base 4.96.0
 _ZNK6Plasma12PluginLoader30standardInternalDataEngineInfoEv@Base 4.96.0
 _ZNK6Plasma12ScriptEngine10mainScriptEv@Base 4.96.0
 _ZNK6Plasma12ScriptEngine10metaObjectEv@Base 4.96.0
 _ZNK6Plasma12ScriptEngine7packageEv@Base 4.96.0
 _ZNK6Plasma13DataContainer10metaObjectEv@Base 4.96.0
 _ZNK6Plasma13DataContainer15needsToBeStoredEv@Base 4.96.0
 _ZNK6Plasma13DataContainer16isStorageEnabledEv@Base 4.96.0
 _ZNK6Plasma13DataContainer19timeSinceLastUpdateEv@Base 4.96.0
 _ZNK6Plasma13DataContainer24visualizationIsConnectedEP7QObject@Base 4.96.0
 _ZNK6Plasma13DataContainer4dataEv@Base 4.96.0
 _ZNK6Plasma13DataContainer6isUsedEv@Base 4.96.0
 _ZNK6Plasma16DataEngineScript10dataEngineEv@Base 4.96.0
 _ZNK6Plasma16DataEngineScript10mainScriptEv@Base 4.96.0
 _ZNK6Plasma16DataEngineScript10metaObjectEv@Base 4.96.0
 _ZNK6Plasma16DataEngineScript11descriptionEv@Base 4.96.0
 _ZNK6Plasma16DataEngineScript13containerDictEv@Base 4.96.0
 _ZNK6Plasma16DataEngineScript22minimumPollingIntervalEv@Base 4.96.0
 _ZNK6Plasma16DataEngineScript7packageEv@Base 4.96.0
 _ZNK6Plasma16DataEngineScript7sourcesEv@Base 4.96.0
 _ZNK6Plasma16DataEngineScript8metadataEv@Base 5.69.0
 _ZNK6Plasma16PackageStructure10metaObjectEv@Base 4.96.0
 _ZNK6Plasma18ContainmentActions10metaObjectEv@Base 4.96.0
 _ZNK6Plasma18ContainmentActions10pluginInfoEv@Base 4.96.0
 _ZNK6Plasma18ContainmentActions8metadataEv@Base 5.69.0
 _ZNK6Plasma3Svg10colorGroupEv@Base 5.0.0
 _ZNK6Plasma3Svg10hasElementE11QStringView@Base 5.101.0
 _ZNK6Plasma3Svg10hasElementERK7QString@Base 4.96.0
 _ZNK6Plasma3Svg10metaObjectEv@Base 4.96.0
 _ZNK6Plasma3Svg11elementRectE11QStringView@Base 5.101.0
 _ZNK6Plasma3Svg11elementRectERK7QString@Base 4.96.0
 _ZNK6Plasma3Svg11elementSizeE11QStringView@Base 5.101.0
 _ZNK6Plasma3Svg11elementSizeERK7QString@Base 4.96.0
 _ZNK6Plasma3Svg11scaleFactorEv@Base 5.8.0+git20150317.1235+15.04
 _ZNK6Plasma3Svg15useSystemColorsEv@Base 5.16.0
 _ZNK6Plasma3Svg16fromCurrentThemeEv@Base 5.3.0+git20141013
 _ZNK6Plasma3Svg21isUsingRenderingCacheEv@Base 4.96.0
 _ZNK6Plasma3Svg22containsMultipleImagesEv@Base 4.96.0
 _ZNK6Plasma3Svg4sizeEv@Base 4.96.0
 _ZNK6Plasma3Svg5themeEv@Base 4.96.0
 _ZNK6Plasma3Svg6statusEv@Base 5.23.0
 _ZNK6Plasma3Svg7isValidEv@Base 4.96.0
 _ZNK6Plasma3Svg9imagePathEv@Base 4.96.0
 _ZNK6Plasma5Theme10metaObjectEv@Base 4.96.0
 _ZNK6Plasma5Theme10pluginInfoEv@Base 4.96.0
 _ZNK6Plasma5Theme10styleSheetERK7QString@Base 4.96.0
 _ZNK6Plasma5Theme11colorSchemeEv@Base 4.96.0
 _ZNK6Plasma5Theme11defaultFontEv@Base 4.96.0
 _ZNK6Plasma5Theme12smallestFontEv@Base 4.96.0
 _ZNK6Plasma5Theme13wallpaperPathERK5QSize@Base 4.96.0
 _ZNK6Plasma5Theme14backgroundPathERK7QString@Base 4.99.0
 _ZNK6Plasma5Theme16findInRectsCacheERK7QStringS3_R6QRectF@Base 4.96.0
 _ZNK6Plasma5Theme17blurBehindEnabledEv@Base 5.61.0
 _ZNK6Plasma5Theme17useGlobalSettingsEv@Base 4.96.0
 _ZNK6Plasma5Theme18backgroundContrastEv@Base 4.97.0
 _ZNK6Plasma5Theme18listCachedRectKeysERK7QString@Base 4.96.0
 _ZNK6Plasma5Theme19backgroundIntensityEv@Base 4.97.0
 _ZNK6Plasma5Theme20backgroundSaturationEv@Base 4.97.0
 _ZNK6Plasma5Theme20currentThemeHasImageERK7QString@Base 4.96.0
 _ZNK6Plasma5Theme20wallpaperPathForSizeEii@Base 4.96.0
 _ZNK6Plasma5Theme25backgroundContrastEnabledEv@Base 4.97.0
 _ZNK6Plasma5Theme27adaptiveTransparencyEnabledEv@Base 5.80.0
 _ZNK6Plasma5Theme5colorENS0_9ColorRoleENS0_10ColorGroupE@Base 5.0.0
 _ZNK6Plasma5Theme5mSizeERK5QFont@Base 4.96.0
 _ZNK6Plasma5Theme7paletteEv@Base 5.69.0
 _ZNK6Plasma5Theme8metadataEv@Base 5.96.0
 _ZNK6Plasma5Theme9imagePathERK7QString@Base 4.96.0
 _ZNK6Plasma5Theme9themeNameEv@Base 4.96.0
 _ZNK6Plasma5Types10metaObjectEv@Base 4.96.0
 _ZNK6Plasma6Applet10formFactorEv@Base 4.96.0
 _ZNK6Plasma6Applet10metaObjectEv@Base 4.96.0
 _ZNK6Plasma6Applet10pluginInfoEv@Base 4.96.0
 _ZNK6Plasma6Applet11containmentEv@Base 4.96.0
 _ZNK6Plasma6Applet12configSchemeEv@Base 4.96.0
 _ZNK6Plasma6Applet12globalConfigEv@Base 4.96.0
 _ZNK6Plasma6Applet12immutabilityEv@Base 4.96.0
 _ZNK6Plasma6Applet13isContainmentEv@Base 4.96.0
 _ZNK6Plasma6Applet14failedToLaunchEv@Base 4.96.0
 _ZNK6Plasma6Applet14globalShortcutEv@Base 4.96.0
 _ZNK6Plasma6Applet14pluginMetaDataEv@Base 5.28.0
 _ZNK6Plasma6Applet15backgroundHintsEv@Base 5.69.0
 _ZNK6Plasma6Applet17isUserConfiguringEv@Base 4.96.0
 _ZNK6Plasma6Applet18launchErrorMessageEv@Base 4.96.0
 _ZNK6Plasma6Applet19userBackgroundHintsEv@Base 5.69.0
 _ZNK6Plasma6Applet21associatedApplicationEv@Base 4.96.0
 _ZNK6Plasma6Applet21configurationRequiredEv@Base 4.96.0
 _ZNK6Plasma6Applet23containmentDisplayHintsEv@Base 5.77.0
 _ZNK6Plasma6Applet24effectiveBackgroundHintsEv@Base 5.69.0
 _ZNK6Plasma6Applet25associatedApplicationUrlsEv@Base 4.96.0
 _ZNK6Plasma6Applet25hasConfigurationInterfaceEv@Base 4.96.0
 _ZNK6Plasma6Applet27configurationRequiredReasonEv@Base 5.20.0
 _ZNK6Plasma6Applet29hasValidAssociatedApplicationEv@Base 4.96.0
 _ZNK6Plasma6Applet2idEv@Base 4.96.0
 _ZNK6Plasma6Applet4iconEv@Base 4.96.0
 _ZNK6Plasma6Applet4saveER12KConfigGroup@Base 4.96.0
 _ZNK6Plasma6Applet5titleEv@Base 4.96.0
 _ZNK6Plasma6Applet6configEv@Base 4.96.0
 _ZNK6Plasma6Applet6isBusyEv@Base 5.21.0
 _ZNK6Plasma6Applet6statusEv@Base 4.96.0
 _ZNK6Plasma6Applet7actionsEv@Base 4.96.0
 _ZNK6Plasma6Applet7packageEv@Base 4.96.0
 _ZNK6Plasma6Applet8filePathERK10QByteArrayRK7QString@Base 5.100.0
 _ZNK6Plasma6Applet8kPackageEv@Base 5.5.0+git20150104.1955+15.04
 _ZNK6Plasma6Applet8locationEv@Base 4.96.0
 _ZNK6Plasma6Applet9destroyedEv@Base 4.96.0
 _ZNK6Plasma6Applet9saveStateER12KConfigGroup@Base 4.96.0
 _ZNK6Plasma6Corona10isEditModeEv@Base 5.69.0
 _ZNK6Plasma6Corona10metaObjectEv@Base 4.96.0
 _ZNK6Plasma6Corona10numScreensEv@Base 4.96.0
 _ZNK6Plasma6Corona10saveLayoutERK7QString@Base 4.96.0
 _ZNK6Plasma6Corona12containmentsEv@Base 4.96.0
 _ZNK6Plasma6Corona12immutabilityEv@Base 4.96.0
 _ZNK6Plasma6Corona18isStartupCompletedEv@Base 4.99.0
 _ZNK6Plasma6Corona19availableScreenRectEi@Base 4.98.0
 _ZNK6Plasma6Corona20containmentForScreenEi@Base 4.96.0
 _ZNK6Plasma6Corona20screenForContainmentEPKNS_11ContainmentE@Base 4.96.0
 _ZNK6Plasma6Corona21availableScreenRegionEi@Base 4.96.0
 _ZNK6Plasma6Corona6configEv@Base 4.96.0
 _ZNK6Plasma6Corona7actionsEv@Base 4.96.0
 _ZNK6Plasma6Corona7packageEv@Base 4.96.0
 _ZNK6Plasma6Corona8kPackageEv@Base 5.5.0+git20150104.1955+15.04
 _ZNK6Plasma6Corona9freeEdgesEi@Base 4.96.0
 _ZNK6Plasma7Package10isRequiredEPKc@Base 4.96.0
 _ZNK6Plasma7Package11directoriesEv@Base 4.96.0
 _ZNK6Plasma7Package12contentsHashEv@Base 4.96.0
 _ZNK6Plasma7Package13requiredFilesEv@Base 4.96.0
 _ZNK6Plasma7Package13servicePrefixEv@Base 4.96.0
 _ZNK6Plasma7Package15fallbackPackageEv@Base 5.2.0
 _ZNK6Plasma7Package17hasValidStructureEv@Base 5.2.0
 _ZNK6Plasma7Package18allowExternalPathsEv@Base 4.96.0
 _ZNK6Plasma7Package18defaultPackageRootEv@Base 4.96.0
 _ZNK6Plasma7Package19contentsPrefixPathsEv@Base 4.96.0
 _ZNK6Plasma7Package19requiredDirectoriesEv@Base 4.96.0
 _ZNK6Plasma7Package4nameEPKc@Base 4.96.0
 _ZNK6Plasma7Package4pathEv@Base 4.96.0
 _ZNK6Plasma7Package5filesEv@Base 4.96.0
 _ZNK6Plasma7Package7isValidEv@Base 4.96.0
 _ZNK6Plasma7Package8filePathEPKcRK7QString@Base 4.96.0
 _ZNK6Plasma7Package8kPackageEv@Base 5.28.0
 _ZNK6Plasma7Package8metadataEv@Base 4.96.0
 _ZNK6Plasma7Package9entryListEPKc@Base 4.96.0
 _ZNK6Plasma7Package9mimeTypesEPKc@Base 4.96.0
 _ZNK6Plasma7Service10metaObjectEv@Base 4.96.0
 _ZNK6Plasma7Service11destinationEv@Base 4.96.0
 _ZNK6Plasma7Service14operationNamesEv@Base 4.96.0
 _ZNK6Plasma7Service18isOperationEnabledERK7QString@Base 4.96.0
 _ZNK6Plasma7Service4nameEv@Base 4.96.0
 _ZNK6Plasma8FrameSvg10getMarginsERdS1_S1_S1_@Base 4.96.0
 _ZNK6Plasma8FrameSvg10marginSizeENS_5Types10MarginEdgeE@Base 4.96.0
 _ZNK6Plasma8FrameSvg10metaObjectEv@Base 4.96.0
 _ZNK6Plasma8FrameSvg12actualPrefixEv@Base 5.1.0
 _ZNK6Plasma8FrameSvg12contentsRectEv@Base 4.96.0
 _ZNK6Plasma8FrameSvg14enabledBordersEv@Base 4.96.0
 _ZNK6Plasma8FrameSvg15fixedMarginSizeENS_5Types10MarginEdgeE@Base 4.97.0
 _ZNK6Plasma8FrameSvg15getFixedMarginsERdS1_S1_S1_@Base 4.97.0
 _ZNK6Plasma8FrameSvg16hasElementPrefixENS_5Types8LocationE@Base 4.96.0
 _ZNK6Plasma8FrameSvg16hasElementPrefixERK7QString@Base 4.96.0
 _ZNK6Plasma8FrameSvg16isRepaintBlockedEv@Base 5.35.0
 _ZNK6Plasma8FrameSvg22cacheAllRenderedFramesEv@Base 4.96.0
 _ZNK6Plasma8FrameSvg4maskEv@Base 4.96.0
 _ZNK6Plasma8FrameSvg8getInsetERdS1_S1_S1_@Base 5.77.0
 _ZNK6Plasma8FrameSvg9alphaMaskEv@Base 4.96.0
 _ZNK6Plasma8FrameSvg9frameSizeEv@Base 4.96.0
 _ZNK6Plasma8FrameSvg9insetSizeENS_5Types10MarginEdgeE@Base 5.77.0
 _ZTI11QSharedData@Base 4.96.0
 _ZTI16KSharedDataCache@Base 4.96.0
 _ZTIN6Plasma10DataEngineE@Base 4.96.0
 _ZTIN6Plasma10ServiceJobE@Base 4.96.0
 _ZTIN6Plasma11ContainmentE@Base 4.96.0
 _ZTIN6Plasma11TimeTrackerE@Base 5.1.0
 _ZTIN6Plasma12AppletScriptE@Base 4.96.0
 _ZTIN6Plasma12PluginLoaderE@Base 4.96.0
 _ZTIN6Plasma12ScriptEngineE@Base 4.96.0
 _ZTIN6Plasma13DataContainerE@Base 4.96.0
 _ZTIN6Plasma16DataEngineScriptE@Base 4.96.0
 _ZTIN6Plasma16PackageStructureE@Base 4.96.0
 _ZTIN6Plasma18ContainmentActionsE@Base 4.96.0
 _ZTIN6Plasma3SvgE@Base 4.96.0
 _ZTIN6Plasma5ThemeE@Base 4.96.0
 _ZTIN6Plasma5TypesE@Base 4.96.0
 _ZTIN6Plasma6AppletE@Base 4.96.0
 _ZTIN6Plasma6CoronaE@Base 4.96.0
 _ZTIN6Plasma7ServiceE@Base 4.96.0
 _ZTIN6Plasma8FrameSvgE@Base 4.96.0
 _ZTS11QSharedData@Base 4.96.0
 _ZTS16KSharedDataCache@Base 4.96.0
 _ZTSN6Plasma10DataEngineE@Base 4.96.0
 _ZTSN6Plasma10ServiceJobE@Base 4.96.0
 _ZTSN6Plasma11ContainmentE@Base 4.96.0
 _ZTSN6Plasma11TimeTrackerE@Base 5.1.0
 _ZTSN6Plasma12AppletScriptE@Base 4.96.0
 _ZTSN6Plasma12PluginLoaderE@Base 4.96.0
 _ZTSN6Plasma12ScriptEngineE@Base 4.96.0
 _ZTSN6Plasma13DataContainerE@Base 4.96.0
 _ZTSN6Plasma16DataEngineScriptE@Base 4.96.0
 _ZTSN6Plasma16PackageStructureE@Base 4.96.0
 _ZTSN6Plasma18ContainmentActionsE@Base 4.96.0
 _ZTSN6Plasma3SvgE@Base 4.96.0
 _ZTSN6Plasma5ThemeE@Base 4.96.0
 _ZTSN6Plasma5TypesE@Base 4.96.0
 _ZTSN6Plasma6AppletE@Base 4.96.0
 _ZTSN6Plasma6CoronaE@Base 4.96.0
 _ZTSN6Plasma7ServiceE@Base 4.96.0
 _ZTSN6Plasma8FrameSvgE@Base 4.96.0
 _ZTVN6Plasma10DataEngineE@Base 4.96.0
 _ZTVN6Plasma10ServiceJobE@Base 4.96.0
 _ZTVN6Plasma11ContainmentE@Base 4.96.0
 _ZTVN6Plasma11TimeTrackerE@Base 5.1.0
 _ZTVN6Plasma12AppletScriptE@Base 4.96.0
 _ZTVN6Plasma12PluginLoaderE@Base 4.96.0
 _ZTVN6Plasma12ScriptEngineE@Base 4.96.0
 _ZTVN6Plasma13DataContainerE@Base 4.96.0
 _ZTVN6Plasma16DataEngineScriptE@Base 4.96.0
 _ZTVN6Plasma16PackageStructureE@Base 4.96.0
 _ZTVN6Plasma18ContainmentActionsE@Base 4.96.0
 _ZTVN6Plasma3SvgE@Base 4.96.0
 _ZTVN6Plasma5ThemeE@Base 4.96.0
 _ZTVN6Plasma5TypesE@Base 4.96.0
 _ZTVN6Plasma6AppletE@Base 4.96.0
 _ZTVN6Plasma6CoronaE@Base 4.96.0
 _ZTVN6Plasma7ServiceE@Base 4.96.0
 _ZTVN6Plasma8FrameSvgE@Base 4.96.0
 _ZZZN14KPluginFactory17instantiatePluginIN6Plasma10DataEngineEEENS_6ResultIT_EERK15KPluginMetaDataP7QObjectRK5QListI8QVariantEENKUlvE_clEvE15qstring_literal@Base 5.90.0
 _ZZZN14KPluginFactory17instantiatePluginIN6Plasma12ScriptEngineEEENS_6ResultIT_EERK15KPluginMetaDataP7QObjectRK5QListI8QVariantEENKUlvE_clEvE15qstring_literal@Base 5.90.0
 _ZZZN14KPluginFactory17instantiatePluginIN6Plasma16PackageStructureEEENS_6ResultIT_EERK15KPluginMetaDataP7QObjectRK5QListI8QVariantEENKUlvE_clEvE15qstring_literal@Base 5.90.0
 _ZZZN14KPluginFactory17instantiatePluginIN6Plasma18ContainmentActionsEEENS_6ResultIT_EERK15KPluginMetaDataP7QObjectRK5QListI8QVariantEENKUlvE_clEvE15qstring_literal@Base 5.90.0
 _ZZZN14KPluginFactory17instantiatePluginIN6Plasma7ServiceEEENS_6ResultIT_EERK15KPluginMetaDataP7QObjectRK5QListI8QVariantEENKUlvE_clEvE15qstring_literal@Base 5.90.0
