# SymbolsHelper-Confirmed: 4:5.24.2 amd64
libcolorcorrect.so.5 libcolorcorrect5 #MINVER#
* Build-Depends-Package: lingmo-workspace-dev
 _ZN12ColorCorrect10Geolocator11dataUpdatedERK7QStringRK4QMapIS1_8QVariantE@Base 4:5.12.0
 _ZN12ColorCorrect10Geolocator11qt_metacallEN11QMetaObject4CallEiPPv@Base 4:5.12.0
 _ZN12ColorCorrect10Geolocator11qt_metacastEPKc@Base 4:5.12.0
 _ZN12ColorCorrect10Geolocator15latitudeChangedEv@Base 4:5.12.0
 _ZN12ColorCorrect10Geolocator15locationChangedEdd@Base 4:5.12.0
 _ZN12ColorCorrect10Geolocator16longitudeChangedEv@Base 4:5.12.0
 _ZN12ColorCorrect10Geolocator16staticMetaObjectE@Base 4:5.12.0
 _ZN12ColorCorrect10GeolocatorC1EP7QObject@Base 4:5.12.0
 _ZN12ColorCorrect10GeolocatorC2EP7QObject@Base 4:5.12.0
 _ZN12ColorCorrect17CompositorAdaptor11qt_metacallEN11QMetaObject4CallEiPPv@Base 4:5.12.0
 _ZN12ColorCorrect17CompositorAdaptor11qt_metacastEPKc@Base 4:5.12.0
 _ZN12ColorCorrect17CompositorAdaptor11stopPreviewEv@Base 4:5.24.90
 _ZN12ColorCorrect17CompositorAdaptor12errorChangedEv@Base 4:5.12.0
 _ZN12ColorCorrect17CompositorAdaptor14runningChangedEv@Base 4:5.12.0
 _ZN12ColorCorrect17CompositorAdaptor16errorTextChangedEv@Base 4:5.12.0
 _ZN12ColorCorrect17CompositorAdaptor16staticMetaObjectE@Base 4:5.12.0
 _ZN12ColorCorrect17CompositorAdaptor16updatePropertiesERK4QMapI7QString8QVariantE@Base 4:5.24.2
 _ZN12ColorCorrect17CompositorAdaptor22sendAutoLocationUpdateEdd@Base 4:5.12.0
 _ZN12ColorCorrect17CompositorAdaptor23handlePropertiesChangedERK7QStringRK4QMapIS1_8QVariantERK11QStringList@Base 4:5.24.2
 _ZN12ColorCorrect17CompositorAdaptor7previewEi@Base 4:5.24.90
 _ZN12ColorCorrect17CompositorAdaptor8setErrorENS0_9ErrorCodeE@Base 4:5.12.0
 _ZN12ColorCorrect17CompositorAdaptorC1EP7QObject@Base 4:5.12.0
 _ZN12ColorCorrect17CompositorAdaptorC2EP7QObject@Base 4:5.12.0
 _ZN12ColorCorrect7SunCalc11qt_metacallEN11QMetaObject4CallEiPPv@Base 4:5.12.0
 _ZN12ColorCorrect7SunCalc11qt_metacastEPKc@Base 4:5.12.0
 _ZN12ColorCorrect7SunCalc16staticMetaObjectE@Base 4:5.12.0
 _ZN12ColorCorrect7SunCalc17getEveningTimingsEdd@Base 4:5.12.0
 _ZN12ColorCorrect7SunCalc17getMorningTimingsEdd@Base 4:5.12.0
 _ZNK12ColorCorrect10Geolocator10metaObjectEv@Base 4:5.12.0
 _ZNK12ColorCorrect17CompositorAdaptor10metaObjectEv@Base 4:5.12.0
 _ZNK12ColorCorrect7SunCalc10metaObjectEv@Base 4:5.12.0
 _ZTIN12ColorCorrect10GeolocatorE@Base 4:5.12.0
 _ZTIN12ColorCorrect17CompositorAdaptorE@Base 4:5.12.0
 _ZTIN12ColorCorrect7SunCalcE@Base 4:5.12.0
 _ZTIN6Plasma18DataEngineConsumerE@Base 4:5.12.0
 _ZTSN12ColorCorrect10GeolocatorE@Base 4:5.12.0
 _ZTSN12ColorCorrect17CompositorAdaptorE@Base 4:5.12.0
 _ZTSN12ColorCorrect7SunCalcE@Base 4:5.12.0
 _ZTSN6Plasma18DataEngineConsumerE@Base 4:5.12.0
 _ZTVN12ColorCorrect10GeolocatorE@Base 4:5.12.0
 _ZTVN12ColorCorrect17CompositorAdaptorE@Base 4:5.12.0
 _ZTVN12ColorCorrect7SunCalcE@Base 4:5.12.0
