# SymbolsHelper-Confirmed: 4:5.17.5 amd64
libkworkspace5.so.5 libkworkspace5-5 #MINVER#
* Build-Depends-Package: lingmo-workspace-dev
 _ZN10KWorkSpace11canShutDownENS_15ShutdownConfirmENS_12ShutdownTypeENS_12ShutdownModeE@Base 4:5.8.1
 _ZN10KWorkSpace14detectPlatformEiPPc@Base 4:5.13.1
 _ZN10KWorkSpace14isShuttingDownEv@Base 4:5.8.1
 _ZN10KWorkSpace15requestShutDownENS_15ShutdownConfirmENS_12ShutdownTypeENS_12ShutdownModeE@Base 4:5.8.1
 _ZN10KWorkSpace23propagateSessionManagerEv@Base 4:5.8.1
 _ZN14SessionBackend11qt_metacallEN11QMetaObject4CallEiPPv@Base 4:5.17.5
 _ZN14SessionBackend11qt_metacastEPKc@Base 4:5.17.5
 _ZN14SessionBackend12stateChangedEv@Base 4:5.17.5
 _ZN14SessionBackend14aboutToSuspendEv@Base 4:5.17.5
 _ZN14SessionBackend16canRebootChangedEv@Base 4:5.17.5
 _ZN14SessionBackend16staticMetaObjectE@Base 4:5.17.5
 _ZN14SessionBackend17canSuspendChangedEv@Base 4:5.17.5
 _ZN14SessionBackend18canShutdownChangedEv@Base 4:5.17.5
 _ZN14SessionBackend19canHibernateChangedEv@Base 4:5.17.5
 _ZN14SessionBackend19resumingFromSuspendEv@Base 4:5.17.5
 _ZN14SessionBackend23canHybridSuspendChangedEv@Base 4:5.17.5
 _ZN14SessionBackend4selfEv@Base 4:5.17.5
 _ZN14SessionBackendC1Ev@Base 4:5.17.5
 _ZN14SessionBackendC2Ev@Base 4:5.17.5
 _ZN15KDisplayManager10numReserveEv@Base 4:5.8.1
 _ZN15KDisplayManager11bootOptionsER11QStringListRiS2_@Base 4:5.8.1
 _ZN15KDisplayManager11canShutdownEv@Base 4:5.8.1
 _ZN15KDisplayManager12isSwitchableEv@Base 4:5.8.1
 _ZN15KDisplayManager12lockSwitchVTEi@Base 4:5.8.1
 _ZN15KDisplayManager12startReserveEv@Base 4:5.8.1
 _ZN15KDisplayManager13localSessionsER5QListI7SessEntE@Base 4:5.8.1
 _ZN15KDisplayManager15GDMAuthenticateEv@Base 4:5.8.1
 _ZN15KDisplayManager4execEPKc@Base 4:5.8.1
 _ZN15KDisplayManager4execEPKcR10QByteArray@Base 4:5.8.1
 _ZN15KDisplayManager8sess2StrERK7SessEnt@Base 4:5.8.1
 _ZN15KDisplayManager8shutdownEN10KWorkSpace12ShutdownTypeENS0_12ShutdownModeERK7QString@Base 4:5.8.1
 _ZN15KDisplayManager8switchVTEi@Base 4:5.8.1
 _ZN15KDisplayManager9sess2Str2ERK7SessEntR7QStringS4_@Base 4:5.8.1
 _ZN15KDisplayManagerC1Ev@Base 4:5.8.1
 _ZN15KDisplayManagerC2Ev@Base 4:5.8.1
 _ZN15KDisplayManagerD1Ev@Base 4:5.8.1
 _ZN15KDisplayManagerD2Ev@Base 4:5.8.1
 _ZN17SessionManagement10switchUserEv@Base 4:5.17.5
 _ZN17SessionManagement11qt_metacallEN11QMetaObject4CallEiPPv@Base 4:5.17.5
 _ZN17SessionManagement11qt_metacastEPKc@Base 4:5.17.5
 _ZN17SessionManagement11saveSessionEv@Base 4:5.17.5
 _ZN17SessionManagement12stateChangedEv@Base 4:5.17.5
 _ZN17SessionManagement13hybridSuspendEv@Base 4:5.17.5
 _ZN17SessionManagement13requestLogoutENS_16ConfirmationModeE@Base 4:5.17.5
 _ZN17SessionManagement13requestRebootENS_16ConfirmationModeE@Base 4:5.17.5
 _ZN17SessionManagement14aboutToSuspendEv@Base 4:5.17.5
 _ZN17SessionManagement14canLockChangedEv@Base 4:5.17.5
 _ZN17SessionManagement15requestShutdownENS_16ConfirmationModeE@Base 4:5.17.5
 _ZN17SessionManagement16canLogoutChangedEv@Base 4:5.17.5
 _ZN17SessionManagement16canRebootChangedEv@Base 4:5.17.5
 _ZN17SessionManagement16staticMetaObjectE@Base 4:5.17.5
 _ZN17SessionManagement17canSuspendChangedEv@Base 4:5.17.5
 _ZN17SessionManagement18canShutdownChangedEv@Base 4:5.17.5
 _ZN17SessionManagement19canHibernateChangedEv@Base 4:5.17.5
 _ZN17SessionManagement19resumingFromSuspendEv@Base 4:5.17.5
 _ZN17SessionManagement20canSwitchUserChangedEv@Base 4:5.17.5
 _ZN17SessionManagement21canSaveSessionChangedEv@Base 4:5.17.5
 _ZN17SessionManagement23canHybridSuspendChangedEv@Base 4:5.17.5
 _ZN17SessionManagement4lockEv@Base 4:5.17.5
 _ZN17SessionManagement7suspendEv@Base 4:5.17.5
 _ZN17SessionManagement9hibernateEv@Base 4:5.17.5
 _ZN17SessionManagementC1EP7QObject@Base 4:5.17.5
 _ZN17SessionManagementC2EP7QObject@Base 4:5.17.5
 _ZN18UpdateLaunchEnvJob11qt_metacallEN11QMetaObject4CallEiPPv@Base 4:5.19.2
 _ZN18UpdateLaunchEnvJob11qt_metacastEPKc@Base 4:5.19.2
 _ZN18UpdateLaunchEnvJob16staticMetaObjectE@Base 4:5.19.2
 _ZN18UpdateLaunchEnvJob5startEv@Base 4:5.19.2
 _ZN18UpdateLaunchEnvJobC1ERK19QProcessEnvironment@Base 4:5.20.3
 _ZN18UpdateLaunchEnvJobC1ERK7QStringS2_@Base 4:5.19.2
 _ZN18UpdateLaunchEnvJobC2ERK19QProcessEnvironment@Base 4:5.20.3
 _ZN18UpdateLaunchEnvJobC2ERK7QStringS2_@Base 4:5.19.2
 _ZN18UpdateLaunchEnvJobD0Ev@Base 4:5.19.2
 _ZN18UpdateLaunchEnvJobD1Ev@Base 4:5.19.2
 _ZN18UpdateLaunchEnvJobD2Ev@Base 4:5.19.2
 _ZN26AutostartScriptDesktopFile17autostartLocationEv@Base 4:5.21.90
 _ZN26AutostartScriptDesktopFile17isAutostartScriptERK12KDesktopFile@Base 4:5.21.90
 _ZN26AutostartScriptDesktopFileC1ERK7QStringS2_@Base 4:5.21.90
 _ZN26AutostartScriptDesktopFileC2ERK7QStringS2_@Base 4:5.21.90
 _ZNK14SessionBackend10metaObjectEv@Base 4:5.17.5
 _ZNK14SessionBackend13canSwitchUserEv@Base 4:5.17.5
 _ZNK14SessionBackend13confirmLogoutEv@Base 4:5.17.5
 _ZNK17SessionManagement10canSuspendEv@Base 4:5.17.5
 _ZNK17SessionManagement10metaObjectEv@Base 4:5.17.5
 _ZNK17SessionManagement11canShutdownEv@Base 4:5.17.5
 _ZNK17SessionManagement12canHibernateEv@Base 4:5.17.5
 _ZNK17SessionManagement13canSwitchUserEv@Base 4:5.17.5
 _ZNK17SessionManagement14canSaveSessionEv@Base 4:5.17.5
 _ZNK17SessionManagement16canHybridSuspendEv@Base 4:5.17.5
 _ZNK17SessionManagement5stateEv@Base 4:5.17.5
 _ZNK17SessionManagement7canLockEv@Base 4:5.17.5
 _ZNK17SessionManagement9canLogoutEv@Base 4:5.17.5
 _ZNK17SessionManagement9canRebootEv@Base 4:5.17.5
 _ZNK18UpdateLaunchEnvJob10metaObjectEv@Base 4:5.19.2
 _ZTI14SessionBackend@Base 4:5.17.5
 _ZTI17SessionManagement@Base 4:5.17.5
 _ZTI18UpdateLaunchEnvJob@Base 4:5.19.2
 _ZTI26AutostartScriptDesktopFile@Base 4:5.21.90
 _ZTS14SessionBackend@Base 4:5.17.5
 _ZTS17SessionManagement@Base 4:5.17.5
 _ZTS18UpdateLaunchEnvJob@Base 4:5.19.2
 _ZTS26AutostartScriptDesktopFile@Base 4:5.21.90
 _ZTV14SessionBackend@Base 4:5.17.5
 _ZTV17SessionManagement@Base 4:5.17.5
 _ZTV18UpdateLaunchEnvJob@Base 4:5.19.2
 _ZTV26AutostartScriptDesktopFile@Base 4:5.21.90
