# SymbolsHelper-Confirmed: 4:5.8.1 amd64
liblingmo-geolocation-interface.so.5 liblingmo-geolocation-interface5 #MINVER#
* Build-Depends-Package: lingmo-workspace-dev
 _ZN19GeolocationProvider11qt_metacallEN11QMetaObject4CallEiPPv@Base 4:5.8.1
 _ZN19GeolocationProvider11qt_metacastEPKc@Base 4:5.8.1
 _ZN19GeolocationProvider11setAccuracyEi@Base 4:5.8.1
 _ZN19GeolocationProvider13requestUpdateE6QFlagsINS_13UpdateTriggerEE@Base 4:5.8.1
 _ZN19GeolocationProvider14setIsAvailableEb@Base 4:5.8.1
 _ZN19GeolocationProvider16staticMetaObjectE@Base 4:5.8.1
 _ZN19GeolocationProvider17setUpdateTriggersE6QFlagsINS_13UpdateTriggerEE@Base 4:5.8.1
 _ZN19GeolocationProvider18populateSharedDataEv@Base 4:5.8.1
 _ZN19GeolocationProvider19availabilityChangedEPS_@Base 4:5.8.1
 _ZN19GeolocationProvider4initEP4QMapI7QString8QVariantEP5QHashIS1_iE@Base 4:5.8.1
 _ZN19GeolocationProvider4initEv@Base 4:5.8.1
 _ZN19GeolocationProvider6updateEv@Base 4:5.8.1
 _ZN19GeolocationProvider7setDataERK4QMapI7QString8QVariantE@Base 4:5.8.1
 _ZN19GeolocationProvider7setDataERK7QStringRK8QVariant@Base 4:5.8.1
 _ZN19GeolocationProvider7updatedEv@Base 4:5.8.1
 _ZN19GeolocationProviderC1EP7QObjectRK5QListI8QVariantE@Base 4:5.8.1
 _ZN19GeolocationProviderC2EP7QObjectRK5QListI8QVariantE@Base 4:5.8.1
 _ZNK19GeolocationProvider10metaObjectEv@Base 4:5.8.1
 _ZNK19GeolocationProvider11isAvailableEv@Base 4:5.8.1
 _ZNK19GeolocationProvider14updateTriggersEv@Base 4:5.8.1
 _ZNK19GeolocationProvider8accuracyEv@Base 4:5.8.1
 _ZTI19GeolocationProvider@Base 4:5.8.1
 _ZTS19GeolocationProvider@Base 4:5.8.1
 _ZTV19GeolocationProvider@Base 4:5.8.1
