# SymbolsHelper-Confirmed: 4:5.27.5 amd64
libtaskmanager.so.6abi1 libtaskmanager6abi1 #MINVER#
* Build-Depends-Package: lingmo-workspace-dev
 ABI_6_1@ABI_6_1 4:5.17.5
 _ZN11TaskManager10TasksModel10classBeginEv@ABI_6_1 4:5.17.5
 _ZN11TaskManager10TasksModel11qt_metacallEN11QMetaObject4CallEiPPv@ABI_6_1 4:5.17.5
 _ZN11TaskManager10TasksModel11qt_metacastEPKc@ABI_6_1 4:5.17.5
 _ZN11TaskManager10TasksModel11requestMoveERK11QModelIndex@ABI_6_1 4:5.17.5
 _ZN11TaskManager10TasksModel11setActivityERK7QString@ABI_6_1 4:5.17.5
 _ZN11TaskManager10TasksModel11setSortModeENS0_8SortModeE@ABI_6_1 4:5.17.5
 _ZN11TaskManager10TasksModel12requestCloseERK11QModelIndex@ABI_6_1 4:5.17.5
 _ZN11TaskManager10TasksModel12setGroupModeENS0_9GroupModeE@ABI_6_1 4:5.17.5
 _ZN11TaskManager10TasksModel13requestResizeERK11QModelIndex@ABI_6_1 4:5.17.5
 _ZN11TaskManager10TasksModel13syncLaunchersEv@ABI_6_1 4:5.17.5
 _ZN11TaskManager10TasksModel14setGroupInlineEb@ABI_6_1 4:5.17.5
 _ZN11TaskManager10TasksModel15requestActivateERK11QModelIndex@ABI_6_1 4:5.17.5
 _ZN11TaskManager10TasksModel15requestOpenUrlsERK11QModelIndexRK5QListI4QUrlE@ABI_6_1 4:5.17.5
 _ZN11TaskManager10TasksModel15setFilterHiddenEb@ABI_6_1 4:5.22.0
 _ZN11TaskManager10TasksModel15setLauncherListERK11QStringList@ABI_6_1 4:5.17.5
 _ZN11TaskManager10TasksModel16setLaunchInPlaceEb@ABI_6_1 4:5.17.5
 _ZN11TaskManager10TasksModel16staticMetaObjectE@ABI_6_1 4:5.17.5
 _ZN11TaskManager10TasksModel17componentCompleteEv@ABI_6_1 4:5.17.5
 _ZN11TaskManager10TasksModel17requestActivitiesERK11QModelIndexRK11QStringList@ABI_6_1 4:5.17.5
 _ZN11TaskManager10TasksModel17setFilterByScreenEb@ABI_6_1 4:5.17.5
 _ZN11TaskManager10TasksModel17setScreenGeometryERK5QRect@ABI_6_1 4:5.17.5
 _ZN11TaskManager10TasksModel17setVirtualDesktopERK8QVariant@ABI_6_1 4:5.17.5
 _ZN11TaskManager10TasksModel18launcherActivitiesERK4QUrl@ABI_6_1 4:5.17.5
 _ZN11TaskManager10TasksModel18requestAddLauncherERK4QUrl@ABI_6_1 4:5.17.5
 _ZN11TaskManager10TasksModel18requestNewInstanceERK11QModelIndex@ABI_6_1 4:5.17.5
 _ZN11TaskManager10TasksModel18setFilterMinimizedEb@ABI_6_1 4:5.26.90
 _ZN11TaskManager10TasksModel19requestToggleShadedERK11QModelIndex@ABI_6_1 4:5.17.5
 _ZN11TaskManager10TasksModel19setFilterByActivityEb@ABI_6_1 4:5.17.5
 _ZN11TaskManager10TasksModel19updateLauncherCountEv@ABI_6_1 4:5.17.5
 _ZN11TaskManager10TasksModel20setSeparateLaunchersEb@ABI_6_1 4:5.17.5
 _ZN11TaskManager10TasksModel21requestRemoveLauncherERK4QUrl@ABI_6_1 4:5.17.5
 _ZN11TaskManager10TasksModel21requestToggleGroupingERK11QModelIndex@ABI_6_1 4:5.17.5
 _ZN11TaskManager10TasksModel21setFilterNotMaximizedEb@ABI_6_1 4:5.21.90
 _ZN11TaskManager10TasksModel21setFilterNotMinimizedEb@ABI_6_1 4:5.17.5
 _ZN11TaskManager10TasksModel22filterMinimizedChangedEv@ABI_6_1 4:5.26.90
 _ZN11TaskManager10TasksModel22requestToggleKeepAboveERK11QModelIndex@ABI_6_1 4:5.17.5
 _ZN11TaskManager10TasksModel22requestToggleKeepBelowERK11QModelIndex@ABI_6_1 4:5.17.5
 _ZN11TaskManager10TasksModel22requestToggleMaximizedERK11QModelIndex@ABI_6_1 4:5.17.5
 _ZN11TaskManager10TasksModel22requestToggleMinimizedERK11QModelIndex@ABI_6_1 4:5.17.5
 _ZN11TaskManager10TasksModel22requestVirtualDesktopsERK11QModelIndexRK5QListI8QVariantE@ABI_6_1 4:5.17.5
 _ZN11TaskManager10TasksModel23requestToggleFullScreenERK11QModelIndex@ABI_6_1 4:5.17.5
 _ZN11TaskManager10TasksModel24requestNewVirtualDesktopERK11QModelIndex@ABI_6_1 4:5.17.5
 _ZN11TaskManager10TasksModel24setTaskReorderingEnabledEb@ABI_6_1 4:5.24.90
 _ZN11TaskManager10TasksModel25setFilterByVirtualDesktopEb@ABI_6_1 4:5.17.5
 _ZN11TaskManager10TasksModel25setGroupingAppIdBlacklistERK11QStringList@ABI_6_1 4:5.17.5
 _ZN11TaskManager10TasksModel28requestAddLauncherToActivityERK4QUrlRK7QString@ABI_6_1 4:5.17.5
 _ZN11TaskManager10TasksModel30requestPublishDelegateGeometryERK11QModelIndexRK5QRectP7QObject@ABI_6_1 4:5.17.5
 _ZN11TaskManager10TasksModel31setGroupingLauncherUrlBlacklistERK11QStringList@ABI_6_1 4:5.17.5
 _ZN11TaskManager10TasksModel31setGroupingWindowTasksThresholdEi@ABI_6_1 4:5.17.5
 _ZN11TaskManager10TasksModel33requestRemoveLauncherFromActivityERK4QUrlRK7QString@ABI_6_1 4:5.17.5
 _ZN11TaskManager10TasksModel4moveEiiRK11QModelIndex@ABI_6_1 4:5.17.5
 _ZN11TaskManager10TasksModelC1EP7QObject@ABI_6_1 4:5.17.5
 _ZN11TaskManager10TasksModelC2EP7QObject@ABI_6_1 4:5.17.5
 _ZN11TaskManager10TasksModelD0Ev@ABI_6_1 4:5.17.5
 _ZN11TaskManager10TasksModelD1Ev@ABI_6_1 4:5.17.5
 _ZN11TaskManager10TasksModelD2Ev@ABI_6_1 4:5.17.5
 _ZN11TaskManager12ActivityInfo11qt_metacallEN11QMetaObject4CallEiPPv@ABI_6_1 4:5.17.5
 _ZN11TaskManager12ActivityInfo11qt_metacastEPKc@ABI_6_1 4:5.17.5
 _ZN11TaskManager12ActivityInfo12activityIconERK7QString@ABI_6_1 4:5.27.5
 _ZN11TaskManager12ActivityInfo12activityNameERK7QString@ABI_6_1 4:5.17.5
 _ZN11TaskManager12ActivityInfo16staticMetaObjectE@ABI_6_1 4:5.17.5
 _ZN11TaskManager12ActivityInfoC1EP7QObject@ABI_6_1 4:5.17.5
 _ZN11TaskManager12ActivityInfoC2EP7QObject@ABI_6_1 4:5.17.5
 _ZN11TaskManager12ActivityInfoD0Ev@ABI_6_1 4:5.17.5
 _ZN11TaskManager12ActivityInfoD1Ev@ABI_6_1 4:5.17.5
 _ZN11TaskManager12ActivityInfoD2Ev@ABI_6_1 4:5.17.5
 _ZN11TaskManager14appDataFromUrlERK4QUrlRK5QIcon@ABI_6_1 4:5.17.5
 _ZN11TaskManager14screenGeometryERK6QPoint@ABI_6_1 4:5.17.5
 _ZN11TaskManager15servicesFromPidEj28QExplicitlySharedDataPointerI13KSharedConfigE@ABI_6_1 4:5.17.5
 _ZN11TaskManager16WindowTasksModel11qt_metacallEN11QMetaObject4CallEiPPv@ABI_6_1 4:5.17.5
 _ZN11TaskManager16WindowTasksModel11qt_metacastEPKc@ABI_6_1 4:5.17.5
 _ZN11TaskManager16WindowTasksModel16staticMetaObjectE@ABI_6_1 4:5.17.5
 _ZN11TaskManager16WindowTasksModelC1EP7QObject@ABI_6_1 4:5.17.5
 _ZN11TaskManager16WindowTasksModelC2EP7QObject@ABI_6_1 4:5.17.5
 _ZN11TaskManager16WindowTasksModelD0Ev@ABI_6_1 4:5.17.5
 _ZN11TaskManager16WindowTasksModelD1Ev@ABI_6_1 4:5.17.5
 _ZN11TaskManager16WindowTasksModelD2Ev@ABI_6_1 4:5.17.5
 _ZN11TaskManager17StartupTasksModel11qt_metacallEN11QMetaObject4CallEiPPv@ABI_6_1 4:5.17.5
 _ZN11TaskManager17StartupTasksModel11qt_metacastEPKc@ABI_6_1 4:5.17.5
 _ZN11TaskManager17StartupTasksModel16staticMetaObjectE@ABI_6_1 4:5.17.5
 _ZN11TaskManager17StartupTasksModelC1EP7QObject@ABI_6_1 4:5.17.5
 _ZN11TaskManager17StartupTasksModelC2EP7QObject@ABI_6_1 4:5.17.5
 _ZN11TaskManager17StartupTasksModelD0Ev@ABI_6_1 4:5.17.5
 _ZN11TaskManager17StartupTasksModelD1Ev@ABI_6_1 4:5.17.5
 _ZN11TaskManager17StartupTasksModelD2Ev@ABI_6_1 4:5.17.5
 _ZN11TaskManager17WaylandTasksModel11qt_metacallEN11QMetaObject4CallEiPPv@ABI_6_1 4:5.17.5
 _ZN11TaskManager17WaylandTasksModel11qt_metacastEPKc@ABI_6_1 4:5.17.5
 _ZN11TaskManager17WaylandTasksModel11requestMoveERK11QModelIndex@ABI_6_1 4:5.17.5
 _ZN11TaskManager17WaylandTasksModel12requestCloseERK11QModelIndex@ABI_6_1 4:5.17.5
 _ZN11TaskManager17WaylandTasksModel13requestResizeERK11QModelIndex@ABI_6_1 4:5.17.5
 _ZN11TaskManager17WaylandTasksModel15requestActivateERK11QModelIndex@ABI_6_1 4:5.17.5
 _ZN11TaskManager17WaylandTasksModel15requestOpenUrlsERK11QModelIndexRK5QListI4QUrlE@ABI_6_1 4:5.17.5
 _ZN11TaskManager17WaylandTasksModel16staticMetaObjectE@ABI_6_1 4:5.17.5
 _ZN11TaskManager17WaylandTasksModel17requestActivitiesERK11QModelIndexRK11QStringList@ABI_6_1 4:5.17.5
 _ZN11TaskManager17WaylandTasksModel17winIdFromMimeDataEPK9QMimeDataPb@ABI_6_1 4:5.17.5
 _ZN11TaskManager17WaylandTasksModel18requestNewInstanceERK11QModelIndex@ABI_6_1 4:5.17.5
 _ZN11TaskManager17WaylandTasksModel18winIdsFromMimeDataEPK9QMimeDataPb@ABI_6_1 4:5.17.5
 _ZN11TaskManager17WaylandTasksModel19requestToggleShadedERK11QModelIndex@ABI_6_1 4:5.17.5
 _ZN11TaskManager17WaylandTasksModel22requestToggleKeepAboveERK11QModelIndex@ABI_6_1 4:5.17.5
 _ZN11TaskManager17WaylandTasksModel22requestToggleKeepBelowERK11QModelIndex@ABI_6_1 4:5.17.5
 _ZN11TaskManager17WaylandTasksModel22requestToggleMaximizedERK11QModelIndex@ABI_6_1 4:5.17.5
 _ZN11TaskManager17WaylandTasksModel22requestToggleMinimizedERK11QModelIndex@ABI_6_1 4:5.17.5
 _ZN11TaskManager17WaylandTasksModel22requestVirtualDesktopsERK11QModelIndexRK5QListI8QVariantE@ABI_6_1 4:5.17.5
 _ZN11TaskManager17WaylandTasksModel23requestToggleFullScreenERK11QModelIndex@ABI_6_1 4:5.17.5
 _ZN11TaskManager17WaylandTasksModel24requestNewVirtualDesktopERK11QModelIndex@ABI_6_1 4:5.17.5
 _ZN11TaskManager17WaylandTasksModel30requestPublishDelegateGeometryERK11QModelIndexRK5QRectP7QObject@ABI_6_1 4:5.17.5
 _ZN11TaskManager17WaylandTasksModelC1EP7QObject@ABI_6_1 4:5.17.5
 _ZN11TaskManager17WaylandTasksModelC2EP7QObject@ABI_6_1 4:5.17.5
 _ZN11TaskManager17WaylandTasksModelD0Ev@ABI_6_1 4:5.17.5
 _ZN11TaskManager17WaylandTasksModelD1Ev@ABI_6_1 4:5.17.5
 _ZN11TaskManager17WaylandTasksModelD2Ev@ABI_6_1 4:5.17.5
 _ZN11TaskManager17XWindowTasksModel11qt_metacallEN11QMetaObject4CallEiPPv@ABI_6_1 4:5.17.5
 _ZN11TaskManager17XWindowTasksModel11qt_metacastEPKc@ABI_6_1 4:5.17.5
 _ZN11TaskManager17XWindowTasksModel11requestMoveERK11QModelIndex@ABI_6_1 4:5.17.5
 _ZN11TaskManager17XWindowTasksModel12requestCloseERK11QModelIndex@ABI_6_1 4:5.17.5
 _ZN11TaskManager17XWindowTasksModel13requestResizeERK11QModelIndex@ABI_6_1 4:5.17.5
 _ZN11TaskManager17XWindowTasksModel15requestActivateERK11QModelIndex@ABI_6_1 4:5.17.5
 _ZN11TaskManager17XWindowTasksModel15requestOpenUrlsERK11QModelIndexRK5QListI4QUrlE@ABI_6_1 4:5.17.5
 _ZN11TaskManager17XWindowTasksModel16staticMetaObjectE@ABI_6_1 4:5.17.5
 _ZN11TaskManager17XWindowTasksModel17requestActivitiesERK11QModelIndexRK11QStringList@ABI_6_1 4:5.17.5
 _ZN11TaskManager17XWindowTasksModel17winIdFromMimeDataEPK9QMimeDataPb@ABI_6_1 4:5.17.5
 _ZN11TaskManager17XWindowTasksModel18requestNewInstanceERK11QModelIndex@ABI_6_1 4:5.17.5
 _ZN11TaskManager17XWindowTasksModel18winIdsFromMimeDataEPK9QMimeDataPb@ABI_6_1 4:5.17.5
 _ZN11TaskManager17XWindowTasksModel19requestToggleShadedERK11QModelIndex@ABI_6_1 4:5.17.5
 _ZN11TaskManager17XWindowTasksModel22requestToggleKeepAboveERK11QModelIndex@ABI_6_1 4:5.17.5
 _ZN11TaskManager17XWindowTasksModel22requestToggleKeepBelowERK11QModelIndex@ABI_6_1 4:5.17.5
 _ZN11TaskManager17XWindowTasksModel22requestToggleMaximizedERK11QModelIndex@ABI_6_1 4:5.17.5
 _ZN11TaskManager17XWindowTasksModel22requestToggleMinimizedERK11QModelIndex@ABI_6_1 4:5.17.5
 _ZN11TaskManager17XWindowTasksModel22requestVirtualDesktopsERK11QModelIndexRK5QListI8QVariantE@ABI_6_1 4:5.17.5
 _ZN11TaskManager17XWindowTasksModel23requestToggleFullScreenERK11QModelIndex@ABI_6_1 4:5.17.5
 _ZN11TaskManager17XWindowTasksModel24requestNewVirtualDesktopERK11QModelIndex@ABI_6_1 4:5.17.5
 _ZN11TaskManager17XWindowTasksModel30requestPublishDelegateGeometryERK11QModelIndexRK5QRectP7QObject@ABI_6_1 4:5.17.5
 _ZN11TaskManager17XWindowTasksModelC1EP7QObject@ABI_6_1 4:5.17.5
 _ZN11TaskManager17XWindowTasksModelC2EP7QObject@ABI_6_1 4:5.17.5
 _ZN11TaskManager17XWindowTasksModelD0Ev@ABI_6_1 4:5.17.5
 _ZN11TaskManager17XWindowTasksModelD1Ev@ABI_6_1 4:5.17.5
 _ZN11TaskManager17XWindowTasksModelD2Ev@ABI_6_1 4:5.17.5
 _ZN11TaskManager17launcherUrlsMatchERK4QUrlS2_NS_17UrlComparisonModeE@ABI_6_1 4:5.17.5
 _ZN11TaskManager18AbstractTasksModel11qt_metacallEN11QMetaObject4CallEiPPv@ABI_6_1 4:5.17.5
 _ZN11TaskManager18AbstractTasksModel11qt_metacastEPKc@ABI_6_1 4:5.17.5
 _ZN11TaskManager18AbstractTasksModel11requestMoveERK11QModelIndex@ABI_6_1 4:5.17.5
 _ZN11TaskManager18AbstractTasksModel12requestCloseERK11QModelIndex@ABI_6_1 4:5.17.5
 _ZN11TaskManager18AbstractTasksModel13requestResizeERK11QModelIndex@ABI_6_1 4:5.17.5
 _ZN11TaskManager18AbstractTasksModel15requestActivateERK11QModelIndex@ABI_6_1 4:5.17.5
 _ZN11TaskManager18AbstractTasksModel15requestOpenUrlsERK11QModelIndexRK5QListI4QUrlE@ABI_6_1 4:5.17.5
 _ZN11TaskManager18AbstractTasksModel16staticMetaObjectE@ABI_6_1 4:5.17.5
 _ZN11TaskManager18AbstractTasksModel17requestActivitiesERK11QModelIndexRK11QStringList@ABI_6_1 4:5.17.5
 _ZN11TaskManager18AbstractTasksModel18requestNewInstanceERK11QModelIndex@ABI_6_1 4:5.17.5
 _ZN11TaskManager18AbstractTasksModel19requestToggleShadedERK11QModelIndex@ABI_6_1 4:5.17.5
 _ZN11TaskManager18AbstractTasksModel22requestToggleKeepAboveERK11QModelIndex@ABI_6_1 4:5.17.5
 _ZN11TaskManager18AbstractTasksModel22requestToggleKeepBelowERK11QModelIndex@ABI_6_1 4:5.17.5
 _ZN11TaskManager18AbstractTasksModel22requestToggleMaximizedERK11QModelIndex@ABI_6_1 4:5.17.5
 _ZN11TaskManager18AbstractTasksModel22requestToggleMinimizedERK11QModelIndex@ABI_6_1 4:5.17.5
 _ZN11TaskManager18AbstractTasksModel22requestVirtualDesktopsERK11QModelIndexRK5QListI8QVariantE@ABI_6_1 4:5.17.5
 _ZN11TaskManager18AbstractTasksModel23requestToggleFullScreenERK11QModelIndex@ABI_6_1 4:5.17.5
 _ZN11TaskManager18AbstractTasksModel24requestNewVirtualDesktopERK11QModelIndex@ABI_6_1 4:5.17.5
 _ZN11TaskManager18AbstractTasksModel30requestPublishDelegateGeometryERK11QModelIndexRK5QRectP7QObject@ABI_6_1 4:5.17.5
 _ZN11TaskManager18AbstractTasksModelC1EP7QObject@ABI_6_1 4:5.17.5
 _ZN11TaskManager18AbstractTasksModelC2EP7QObject@ABI_6_1 4:5.17.5
 _ZN11TaskManager18AbstractTasksModelD0Ev@ABI_6_1 4:5.17.5
 _ZN11TaskManager18AbstractTasksModelD1Ev@ABI_6_1 4:5.17.5
 _ZN11TaskManager18AbstractTasksModelD2Ev@ABI_6_1 4:5.17.5
 _ZN11TaskManager18LauncherTasksModel11qt_metacallEN11QMetaObject4CallEiPPv@ABI_6_1 4:5.17.5
 _ZN11TaskManager18LauncherTasksModel11qt_metacastEPKc@ABI_6_1 4:5.17.5
 _ZN11TaskManager18LauncherTasksModel15requestActivateERK11QModelIndex@ABI_6_1 4:5.17.5
 _ZN11TaskManager18LauncherTasksModel15requestOpenUrlsERK11QModelIndexRK5QListI4QUrlE@ABI_6_1 4:5.17.5
 _ZN11TaskManager18LauncherTasksModel15setLauncherListERK11QStringList@ABI_6_1 4:5.17.5
 _ZN11TaskManager18LauncherTasksModel16staticMetaObjectE@ABI_6_1 4:5.17.5
 _ZN11TaskManager18LauncherTasksModel18requestAddLauncherERK4QUrl@ABI_6_1 4:5.17.5
 _ZN11TaskManager18LauncherTasksModel18requestNewInstanceERK11QModelIndex@ABI_6_1 4:5.17.5
 _ZN11TaskManager18LauncherTasksModel21requestRemoveLauncherERK4QUrl@ABI_6_1 4:5.17.5
 _ZN11TaskManager18LauncherTasksModel28requestAddLauncherToActivityERK4QUrlRK7QString@ABI_6_1 4:5.17.5
 _ZN11TaskManager18LauncherTasksModel33requestRemoveLauncherFromActivityERK4QUrlRK7QString@ABI_6_1 4:5.17.5
 _ZN11TaskManager18LauncherTasksModelC1EP7QObject@ABI_6_1 4:5.17.5
 _ZN11TaskManager18LauncherTasksModelC2EP7QObject@ABI_6_1 4:5.17.5
 _ZN11TaskManager18LauncherTasksModelD0Ev@ABI_6_1 4:5.17.5
 _ZN11TaskManager18LauncherTasksModelD1Ev@ABI_6_1 4:5.17.5
 _ZN11TaskManager18LauncherTasksModelD2Ev@ABI_6_1 4:5.17.5
 _ZN11TaskManager18VirtualDesktopInfo11qt_metacallEN11QMetaObject4CallEiPPv@ABI_6_1 4:5.17.5
 _ZN11TaskManager18VirtualDesktopInfo11qt_metacastEPKc@ABI_6_1 4:5.17.5
 _ZN11TaskManager18VirtualDesktopInfo15requestActivateERK8QVariant@ABI_6_1 4:5.17.5
 _ZN11TaskManager18VirtualDesktopInfo16staticMetaObjectE@ABI_6_1 4:5.17.5
 _ZN11TaskManager18VirtualDesktopInfo1dE@ABI_6_1 4:5.17.5
 _ZN11TaskManager18VirtualDesktopInfo20requestCreateDesktopEj@ABI_6_1 4:5.17.5
 _ZN11TaskManager18VirtualDesktopInfo20requestRemoveDesktopEj@ABI_6_1 4:5.17.5
 _ZN11TaskManager18VirtualDesktopInfoC1EP7QObject@ABI_6_1 4:5.17.5
 _ZN11TaskManager18VirtualDesktopInfoC2EP7QObject@ABI_6_1 4:5.17.5
 _ZN11TaskManager18VirtualDesktopInfoD0Ev@ABI_6_1 4:5.17.5
 _ZN11TaskManager18VirtualDesktopInfoD1Ev@ABI_6_1 4:5.17.5
 _ZN11TaskManager18VirtualDesktopInfoD2Ev@ABI_6_1 4:5.17.5
 _ZN11TaskManager18XStartupTasksModel11qt_metacallEN11QMetaObject4CallEiPPv@ABI_6_1 4:5.22.90
 _ZN11TaskManager18XStartupTasksModel11qt_metacastEPKc@ABI_6_1 4:5.22.90
 _ZN11TaskManager18XStartupTasksModel16staticMetaObjectE@ABI_6_1 4:5.22.90
 _ZN11TaskManager18XStartupTasksModelC1EP7QObject@ABI_6_1 4:5.22.90
 _ZN11TaskManager18XStartupTasksModelC2EP7QObject@ABI_6_1 4:5.22.90
 _ZN11TaskManager18XStartupTasksModelD0Ev@ABI_6_1 4:5.22.90
 _ZN11TaskManager18XStartupTasksModelD1Ev@ABI_6_1 4:5.22.90
 _ZN11TaskManager18XStartupTasksModelD2Ev@ABI_6_1 4:5.22.90
 _ZN11TaskManager18defaultApplicationERK4QUrl@ABI_6_1 4:5.17.5
 _ZN11TaskManager19servicesFromCmdLineERK7QStringS2_28QExplicitlySharedDataPointerI13KSharedConfigE@ABI_6_1 4:5.17.5
 _ZN11TaskManager20TaskFilterProxyModel11qt_metacallEN11QMetaObject4CallEiPPv@ABI_6_1 4:5.17.5
 _ZN11TaskManager20TaskFilterProxyModel11qt_metacastEPKc@ABI_6_1 4:5.17.5
 _ZN11TaskManager20TaskFilterProxyModel11setActivityERK7QString@ABI_6_1 4:5.17.5
 _ZN11TaskManager20TaskFilterProxyModel14setSourceModelEP18QAbstractItemModel@ABI_6_1 4:5.17.5
 _ZN11TaskManager20TaskFilterProxyModel15setFilterHiddenEb@ABI_6_1 4:5.22.0
 _ZN11TaskManager20TaskFilterProxyModel16staticMetaObjectE@ABI_6_1 4:5.17.5
 _ZN11TaskManager20TaskFilterProxyModel17setFilterByScreenEb@ABI_6_1 4:5.17.5
 _ZN11TaskManager20TaskFilterProxyModel17setScreenGeometryERK5QRect@ABI_6_1 4:5.17.5
 _ZN11TaskManager20TaskFilterProxyModel17setVirtualDesktopERK8QVariant@ABI_6_1 4:5.17.5
 _ZN11TaskManager20TaskFilterProxyModel18setFilterMinimizedEb@ABI_6_1 4:5.26.90
 _ZN11TaskManager20TaskFilterProxyModel18setFilterSkipPagerEb@ABI_6_1 4:5.17.5
 _ZN11TaskManager20TaskFilterProxyModel19setFilterByActivityEb@ABI_6_1 4:5.17.5
 _ZN11TaskManager20TaskFilterProxyModel20setFilterSkipTaskbarEb@ABI_6_1 4:5.17.5
 _ZN11TaskManager20TaskFilterProxyModel21setFilterNotMaximizedEb@ABI_6_1 4:5.21.90
 _ZN11TaskManager20TaskFilterProxyModel21setFilterNotMinimizedEb@ABI_6_1 4:5.17.5
 _ZN11TaskManager20TaskFilterProxyModel22filterMinimizedChangedEv@ABI_6_1 4:5.26.90
 _ZN11TaskManager20TaskFilterProxyModel25setFilterByVirtualDesktopEb@ABI_6_1 4:5.17.5
 _ZN11TaskManager20TaskFilterProxyModel33setDemandingAttentionSkipsFiltersEb@ABI_6_1 4:5.17.5
 _ZN11TaskManager20TaskFilterProxyModelC1EP7QObject@ABI_6_1 4:5.17.5
 _ZN11TaskManager20TaskFilterProxyModelC2EP7QObject@ABI_6_1 4:5.17.5
 _ZN11TaskManager20TaskFilterProxyModelD0Ev@ABI_6_1 4:5.17.5
 _ZN11TaskManager20TaskFilterProxyModelD1Ev@ABI_6_1 4:5.17.5
 _ZN11TaskManager20TaskFilterProxyModelD2Ev@ABI_6_1 4:5.17.5
 _ZN11TaskManager21windowUrlFromMetadataERK7QStringj28QExplicitlySharedDataPointerI13KSharedConfigES2_@ABI_6_1 4:5.17.5
 _ZN11TaskManager22TaskGroupingProxyModel11qt_metacallEN11QMetaObject4CallEiPPv@ABI_6_1 4:5.17.5
 _ZN11TaskManager22TaskGroupingProxyModel11qt_metacastEPKc@ABI_6_1 4:5.17.5
 _ZN11TaskManager22TaskGroupingProxyModel11requestMoveERK11QModelIndex@ABI_6_1 4:5.17.5
 _ZN11TaskManager22TaskGroupingProxyModel12requestCloseERK11QModelIndex@ABI_6_1 4:5.17.5
 _ZN11TaskManager22TaskGroupingProxyModel12setGroupModeENS_10TasksModel9GroupModeE@ABI_6_1 4:5.17.5
 _ZN11TaskManager22TaskGroupingProxyModel13requestResizeERK11QModelIndex@ABI_6_1 4:5.17.5
 _ZN11TaskManager22TaskGroupingProxyModel14setSourceModelEP18QAbstractItemModel@ABI_6_1 4:5.17.5
 _ZN11TaskManager22TaskGroupingProxyModel15requestActivateERK11QModelIndex@ABI_6_1 4:5.17.5
 _ZN11TaskManager22TaskGroupingProxyModel15requestOpenUrlsERK11QModelIndexRK5QListI4QUrlE@ABI_6_1 4:5.17.5
 _ZN11TaskManager22TaskGroupingProxyModel16staticMetaObjectE@ABI_6_1 4:5.17.5
 _ZN11TaskManager22TaskGroupingProxyModel17requestActivitiesERK11QModelIndexRK11QStringList@ABI_6_1 4:5.17.5
 _ZN11TaskManager22TaskGroupingProxyModel18requestNewInstanceERK11QModelIndex@ABI_6_1 4:5.17.5
 _ZN11TaskManager22TaskGroupingProxyModel19requestToggleShadedERK11QModelIndex@ABI_6_1 4:5.17.5
 _ZN11TaskManager22TaskGroupingProxyModel20setBlacklistedAppIdsERK11QStringList@ABI_6_1 4:5.17.5
 _ZN11TaskManager22TaskGroupingProxyModel21requestToggleGroupingERK11QModelIndex@ABI_6_1 4:5.17.5
 _ZN11TaskManager22TaskGroupingProxyModel22requestToggleKeepAboveERK11QModelIndex@ABI_6_1 4:5.17.5
 _ZN11TaskManager22TaskGroupingProxyModel22requestToggleKeepBelowERK11QModelIndex@ABI_6_1 4:5.17.5
 _ZN11TaskManager22TaskGroupingProxyModel22requestToggleMaximizedERK11QModelIndex@ABI_6_1 4:5.17.5
 _ZN11TaskManager22TaskGroupingProxyModel22requestToggleMinimizedERK11QModelIndex@ABI_6_1 4:5.17.5
 _ZN11TaskManager22TaskGroupingProxyModel22requestVirtualDesktopsERK11QModelIndexRK5QListI8QVariantE@ABI_6_1 4:5.17.5
 _ZN11TaskManager22TaskGroupingProxyModel23requestToggleFullScreenERK11QModelIndex@ABI_6_1 4:5.17.5
 _ZN11TaskManager22TaskGroupingProxyModel23setWindowTasksThresholdEi@ABI_6_1 4:5.17.5
 _ZN11TaskManager22TaskGroupingProxyModel24requestNewVirtualDesktopERK11QModelIndex@ABI_6_1 4:5.17.5
 _ZN11TaskManager22TaskGroupingProxyModel26setBlacklistedLauncherUrlsERK11QStringList@ABI_6_1 4:5.17.5
 _ZN11TaskManager22TaskGroupingProxyModel26setGroupDemandingAttentionEb@ABI_6_1 4:5.17.5
 _ZN11TaskManager22TaskGroupingProxyModel30requestPublishDelegateGeometryERK11QModelIndexRK5QRectP7QObject@ABI_6_1 4:5.17.5
 _ZN11TaskManager22TaskGroupingProxyModelC1EP7QObject@ABI_6_1 4:5.17.5
 _ZN11TaskManager22TaskGroupingProxyModelC2EP7QObject@ABI_6_1 4:5.17.5
 _ZN11TaskManager22TaskGroupingProxyModelD0Ev@ABI_6_1 4:5.17.5
 _ZN11TaskManager22TaskGroupingProxyModelD1Ev@ABI_6_1 4:5.17.5
 _ZN11TaskManager22TaskGroupingProxyModelD2Ev@ABI_6_1 4:5.17.5
 _ZN11TaskManager24AbstractWindowTasksModel11qt_metacallEN11QMetaObject4CallEiPPv@ABI_6_1 4:5.17.5
 _ZN11TaskManager24AbstractWindowTasksModel11qt_metacastEPKc@ABI_6_1 4:5.17.5
 _ZN11TaskManager24AbstractWindowTasksModel16staticMetaObjectE@ABI_6_1 4:5.17.5
 _ZN11TaskManager24AbstractWindowTasksModelC1EP7QObject@ABI_6_1 4:5.17.5
 _ZN11TaskManager24AbstractWindowTasksModelC2EP7QObject@ABI_6_1 4:5.17.5
 _ZN11TaskManager24AbstractWindowTasksModelD0Ev@ABI_6_1 4:5.17.5
 _ZN11TaskManager24AbstractWindowTasksModelD1Ev@ABI_6_1 4:5.17.5
 _ZN11TaskManager24AbstractWindowTasksModelD2Ev@ABI_6_1 4:5.17.5
 _ZN11TaskManager24WaylandStartupTasksModel11qt_metacallEN11QMetaObject4CallEiPPv@ABI_6_1 4:5.22.90
 _ZN11TaskManager24WaylandStartupTasksModel11qt_metacastEPKc@ABI_6_1 4:5.22.90
 _ZN11TaskManager24WaylandStartupTasksModel16staticMetaObjectE@ABI_6_1 4:5.22.90
 _ZN11TaskManager24WaylandStartupTasksModelC1EP7QObject@ABI_6_1 4:5.22.90
 _ZN11TaskManager24WaylandStartupTasksModelC2EP7QObject@ABI_6_1 4:5.22.90
 _ZN11TaskManager24WaylandStartupTasksModelD0Ev@ABI_6_1 4:5.22.90
 _ZN11TaskManager24WaylandStartupTasksModelD1Ev@ABI_6_1 4:5.22.90
 _ZN11TaskManager24WaylandStartupTasksModelD2Ev@ABI_6_1 4:5.22.90
 _ZN11TaskManager26ConcatenateTasksProxyModel11qt_metacallEN11QMetaObject4CallEiPPv@ABI_6_1 4:5.17.5
 _ZN11TaskManager26ConcatenateTasksProxyModel11qt_metacastEPKc@ABI_6_1 4:5.17.5
 _ZN11TaskManager26ConcatenateTasksProxyModel16staticMetaObjectE@ABI_6_1 4:5.17.5
 _ZN11TaskManager26ConcatenateTasksProxyModelC1EP7QObject@ABI_6_1 4:5.17.5
 _ZN11TaskManager26ConcatenateTasksProxyModelC2EP7QObject@ABI_6_1 4:5.17.5
 _ZN11TaskManager26ConcatenateTasksProxyModelD0Ev@ABI_6_1 4:5.17.5
 _ZN11TaskManager26ConcatenateTasksProxyModelD1Ev@ABI_6_1 4:5.17.5
 _ZN11TaskManager26ConcatenateTasksProxyModelD2Ev@ABI_6_1 4:5.17.5
 _ZN11TaskManager27FlattenTaskGroupsProxyModel11qt_metacallEN11QMetaObject4CallEiPPv@ABI_6_1 4:5.17.5
 _ZN11TaskManager27FlattenTaskGroupsProxyModel11qt_metacastEPKc@ABI_6_1 4:5.17.5
 _ZN11TaskManager27FlattenTaskGroupsProxyModel14setSourceModelEP18QAbstractItemModel@ABI_6_1 4:5.17.5
 _ZN11TaskManager27FlattenTaskGroupsProxyModel16staticMetaObjectE@ABI_6_1 4:5.17.5
 _ZN11TaskManager27FlattenTaskGroupsProxyModelC1EP7QObject@ABI_6_1 4:5.17.5
 _ZN11TaskManager27FlattenTaskGroupsProxyModelC2EP7QObject@ABI_6_1 4:5.17.5
 _ZN11TaskManager27FlattenTaskGroupsProxyModelD0Ev@ABI_6_1 4:5.17.5
 _ZN11TaskManager27FlattenTaskGroupsProxyModelD1Ev@ABI_6_1 4:5.17.5
 _ZN11TaskManager27FlattenTaskGroupsProxyModelD2Ev@ABI_6_1 4:5.17.5
 _ZN11TaskManager28AbstractTasksProxyModelIface11requestMoveERK11QModelIndex@ABI_6_1 4:5.17.5
 _ZN11TaskManager28AbstractTasksProxyModelIface12requestCloseERK11QModelIndex@ABI_6_1 4:5.17.5
 _ZN11TaskManager28AbstractTasksProxyModelIface13requestResizeERK11QModelIndex@ABI_6_1 4:5.17.5
 _ZN11TaskManager28AbstractTasksProxyModelIface15requestActivateERK11QModelIndex@ABI_6_1 4:5.17.5
 _ZN11TaskManager28AbstractTasksProxyModelIface15requestOpenUrlsERK11QModelIndexRK5QListI4QUrlE@ABI_6_1 4:5.17.5
 _ZN11TaskManager28AbstractTasksProxyModelIface17requestActivitiesERK11QModelIndexRK11QStringList@ABI_6_1 4:5.17.5
 _ZN11TaskManager28AbstractTasksProxyModelIface18requestNewInstanceERK11QModelIndex@ABI_6_1 4:5.17.5
 _ZN11TaskManager28AbstractTasksProxyModelIface19requestToggleShadedERK11QModelIndex@ABI_6_1 4:5.17.5
 _ZN11TaskManager28AbstractTasksProxyModelIface22requestToggleKeepAboveERK11QModelIndex@ABI_6_1 4:5.17.5
 _ZN11TaskManager28AbstractTasksProxyModelIface22requestToggleKeepBelowERK11QModelIndex@ABI_6_1 4:5.17.5
 _ZN11TaskManager28AbstractTasksProxyModelIface22requestToggleMaximizedERK11QModelIndex@ABI_6_1 4:5.17.5
 _ZN11TaskManager28AbstractTasksProxyModelIface22requestToggleMinimizedERK11QModelIndex@ABI_6_1 4:5.17.5
 _ZN11TaskManager28AbstractTasksProxyModelIface22requestVirtualDesktopsERK11QModelIndexRK5QListI8QVariantE@ABI_6_1 4:5.17.5
 _ZN11TaskManager28AbstractTasksProxyModelIface23requestToggleFullScreenERK11QModelIndex@ABI_6_1 4:5.17.5
 _ZN11TaskManager28AbstractTasksProxyModelIface24requestNewVirtualDesktopERK11QModelIndex@ABI_6_1 4:5.17.5
 _ZN11TaskManager28AbstractTasksProxyModelIface30requestPublishDelegateGeometryERK11QModelIndexRK5QRectP7QObject@ABI_6_1 4:5.17.5
 _ZN11TaskManager6runAppERKNS_7AppDataERK5QListI4QUrlE@ABI_6_1 4:5.17.5
 _ZN11TaskManager9appsMatchERK11QModelIndexS2_@ABI_6_1 4:5.17.5
 _ZNK11TaskManager10TasksModel10activeTaskEv@ABI_6_1 4:5.17.5
 _ZNK11TaskManager10TasksModel10metaObjectEv@ABI_6_1 4:5.17.5
 _ZNK11TaskManager10TasksModel11groupInlineEv@ABI_6_1 4:5.17.5
 _ZNK11TaskManager10TasksModel12countChangedEv@ABI_6_1 4:5.17.5
 _ZNK11TaskManager10TasksModel12filterHiddenEv@ABI_6_1 4:5.22.0
 _ZNK11TaskManager10TasksModel12launcherListEv@ABI_6_1 4:5.17.5
 _ZNK11TaskManager10TasksModel13launchInPlaceEv@ABI_6_1 4:5.17.5
 _ZNK11TaskManager10TasksModel13launcherCountEv@ABI_6_1 4:5.17.5
 _ZNK11TaskManager10TasksModel14filterByScreenEv@ABI_6_1 4:5.17.5
 _ZNK11TaskManager10TasksModel14makeModelIndexEii@ABI_6_1 4:5.17.5
 _ZNK11TaskManager10TasksModel14screenGeometryEv@ABI_6_1 4:5.17.5
 _ZNK11TaskManager10TasksModel14virtualDesktopEv@ABI_6_1 4:5.17.5
 _ZNK11TaskManager10TasksModel15activityChangedEv@ABI_6_1 4:5.17.5
 _ZNK11TaskManager10TasksModel15filterMinimizedEv@ABI_6_1 4:5.26.90
 _ZNK11TaskManager10TasksModel15sortModeChangedEv@ABI_6_1 4:5.17.5
 _ZNK11TaskManager10TasksModel16filterAcceptsRowEiRK11QModelIndex@ABI_6_1 4:5.17.5
 _ZNK11TaskManager10TasksModel16filterByActivityEv@ABI_6_1 4:5.17.5
 _ZNK11TaskManager10TasksModel16groupModeChangedEv@ABI_6_1 4:5.17.5
 _ZNK11TaskManager10TasksModel16launcherPositionERK4QUrl@ABI_6_1 4:5.17.5
 _ZNK11TaskManager10TasksModel17activeTaskChangedEv@ABI_6_1 4:5.17.5
 _ZNK11TaskManager10TasksModel17separateLaunchersEv@ABI_6_1 4:5.17.5
 _ZNK11TaskManager10TasksModel18filterNotMaximizedEv@ABI_6_1 4:5.21.90
 _ZNK11TaskManager10TasksModel18filterNotMinimizedEv@ABI_6_1 4:5.17.5
 _ZNK11TaskManager10TasksModel18groupInlineChangedEv@ABI_6_1 4:5.17.5
 _ZNK11TaskManager10TasksModel19filterHiddenChangedEv@ABI_6_1 4:5.22.0
 _ZNK11TaskManager10TasksModel19launcherListChangedEv@ABI_6_1 4:5.17.5
 _ZNK11TaskManager10TasksModel20launchInPlaceChangedEv@ABI_6_1 4:5.17.5
 _ZNK11TaskManager10TasksModel20launcherCountChangedEv@ABI_6_1 4:5.17.5
 _ZNK11TaskManager10TasksModel21filterByScreenChangedEv@ABI_6_1 4:5.17.5
 _ZNK11TaskManager10TasksModel21screenGeometryChangedEv@ABI_6_1 4:5.17.5
 _ZNK11TaskManager10TasksModel21taskReorderingEnabledEv@ABI_6_1 4:5.24.90
 _ZNK11TaskManager10TasksModel21virtualDesktopChangedEv@ABI_6_1 4:5.17.5
 _ZNK11TaskManager10TasksModel22filterByVirtualDesktopEv@ABI_6_1 4:5.17.5
 _ZNK11TaskManager10TasksModel22groupingAppIdBlacklistEv@ABI_6_1 4:5.17.5
 _ZNK11TaskManager10TasksModel23anyTaskDemandsAttentionEv@ABI_6_1 4:5.17.5
 _ZNK11TaskManager10TasksModel23filterByActivityChangedEv@ABI_6_1 4:5.17.5
 _ZNK11TaskManager10TasksModel24makePersistentModelIndexEii@ABI_6_1 4:5.17.5
 _ZNK11TaskManager10TasksModel24separateLaunchersChangedEv@ABI_6_1 4:5.17.5
 _ZNK11TaskManager10TasksModel25filterNotMaximizedChangedEv@ABI_6_1 4:5.21.90
 _ZNK11TaskManager10TasksModel25filterNotMinimizedChangedEv@ABI_6_1 4:5.17.5
 _ZNK11TaskManager10TasksModel28groupingLauncherUrlBlacklistEv@ABI_6_1 4:5.17.5
 _ZNK11TaskManager10TasksModel28groupingWindowTasksThresholdEv@ABI_6_1 4:5.17.5
 _ZNK11TaskManager10TasksModel28taskReorderingEnabledChangedEv@ABI_6_1 4:5.24.90
 _ZNK11TaskManager10TasksModel29filterByVirtualDesktopChangedEv@ABI_6_1 4:5.17.5
 _ZNK11TaskManager10TasksModel29groupingAppIdBlacklistChangedEv@ABI_6_1 4:5.17.5
 _ZNK11TaskManager10TasksModel30anyTaskDemandsAttentionChangedEv@ABI_6_1 4:5.17.5
 _ZNK11TaskManager10TasksModel35groupingLauncherUrlBlacklistChangedEv@ABI_6_1 4:5.17.5
 _ZNK11TaskManager10TasksModel35groupingWindowTasksThresholdChangedEv@ABI_6_1 4:5.17.5
 _ZNK11TaskManager10TasksModel4dataERK11QModelIndexi@ABI_6_1 4:5.17.5
 _ZNK11TaskManager10TasksModel8activityEv@ABI_6_1 4:5.17.5
 _ZNK11TaskManager10TasksModel8lessThanERK11QModelIndexS3_@ABI_6_1 4:5.17.5
 _ZNK11TaskManager10TasksModel8rowCountERK11QModelIndex@ABI_6_1 4:5.17.5
 _ZNK11TaskManager10TasksModel8sortModeEv@ABI_6_1 4:5.17.5
 _ZNK11TaskManager10TasksModel9groupModeEv@ABI_6_1 4:5.17.5
 _ZNK11TaskManager10TasksModel9roleNamesEv@ABI_6_1 4:5.17.5
 _ZNK11TaskManager12ActivityInfo10metaObjectEv@ABI_6_1 4:5.17.5
 _ZNK11TaskManager12ActivityInfo15currentActivityEv@ABI_6_1 4:5.17.5
 _ZNK11TaskManager12ActivityInfo17runningActivitiesEv@ABI_6_1 4:5.17.5
 _ZNK11TaskManager12ActivityInfo22currentActivityChangedEv@ABI_6_1 4:5.17.5
 _ZNK11TaskManager12ActivityInfo25numberOfRunningActivitiesEv@ABI_6_1 4:5.17.5
 _ZNK11TaskManager12ActivityInfo31namesOfRunningActivitiesChangedEv@ABI_6_1 4:5.17.5
 _ZNK11TaskManager12ActivityInfo32numberOfRunningActivitiesChangedEv@ABI_6_1 4:5.17.5
 _ZNK11TaskManager16WindowTasksModel10metaObjectEv@ABI_6_1 4:5.17.5
 _ZNK11TaskManager16WindowTasksModel16mapIfaceToSourceERK11QModelIndex@ABI_6_1 4:5.17.5
 _ZNK11TaskManager16WindowTasksModel9roleNamesEv@ABI_6_1 4:5.17.5
 _ZNK11TaskManager17StartupTasksModel10metaObjectEv@ABI_6_1 4:5.17.5
 _ZNK11TaskManager17StartupTasksModel16mapIfaceToSourceERK11QModelIndex@ABI_6_1 4:5.22.90
 _ZNK11TaskManager17StartupTasksModel9roleNamesEv@ABI_6_1 4:5.22.90
 _ZNK11TaskManager17WaylandTasksModel10metaObjectEv@ABI_6_1 4:5.17.5
 _ZNK11TaskManager17WaylandTasksModel4dataERK11QModelIndexi@ABI_6_1 4:5.17.5
 _ZNK11TaskManager17WaylandTasksModel5indexEiiRK11QModelIndex@ABI_6_1 4:5.17.5
 _ZNK11TaskManager17WaylandTasksModel8rowCountERK11QModelIndex@ABI_6_1 4:5.17.5
 _ZNK11TaskManager17XWindowTasksModel10metaObjectEv@ABI_6_1 4:5.17.5
 _ZNK11TaskManager17XWindowTasksModel4dataERK11QModelIndexi@ABI_6_1 4:5.17.5
 _ZNK11TaskManager17XWindowTasksModel8rowCountERK11QModelIndex@ABI_6_1 4:5.17.5
 _ZNK11TaskManager18AbstractTasksModel10metaObjectEv@ABI_6_1 4:5.17.5
 _ZNK11TaskManager18AbstractTasksModel5indexEiiRK11QModelIndex@ABI_6_1 4:5.17.5
 _ZNK11TaskManager18AbstractTasksModel9roleNamesEv@ABI_6_1 4:5.17.5
 _ZNK11TaskManager18LauncherTasksModel10metaObjectEv@ABI_6_1 4:5.17.5
 _ZNK11TaskManager18LauncherTasksModel12launcherListEv@ABI_6_1 4:5.17.5
 _ZNK11TaskManager18LauncherTasksModel16launcherPositionERK4QUrl@ABI_6_1 4:5.17.5
 _ZNK11TaskManager18LauncherTasksModel18launcherActivitiesERK4QUrl@ABI_6_1 4:5.17.5
 _ZNK11TaskManager18LauncherTasksModel19launcherListChangedEv@ABI_6_1 4:5.17.5
 _ZNK11TaskManager18LauncherTasksModel19rowCountForActivityERK7QString@ABI_6_1 4:5.27.2
 _ZNK11TaskManager18LauncherTasksModel4dataERK11QModelIndexi@ABI_6_1 4:5.17.5
 _ZNK11TaskManager18LauncherTasksModel8rowCountERK11QModelIndex@ABI_6_1 4:5.17.5
 _ZNK11TaskManager18VirtualDesktopInfo10desktopIdsEv@ABI_6_1 4:5.17.5
 _ZNK11TaskManager18VirtualDesktopInfo10metaObjectEv@ABI_6_1 4:5.17.5
 _ZNK11TaskManager18VirtualDesktopInfo12desktopNamesEv@ABI_6_1 4:5.17.5
 _ZNK11TaskManager18VirtualDesktopInfo14currentDesktopEv@ABI_6_1 4:5.17.5
 _ZNK11TaskManager18VirtualDesktopInfo16numberOfDesktopsEv@ABI_6_1 4:5.17.5
 _ZNK11TaskManager18VirtualDesktopInfo17desktopIdsChangedEv@ABI_6_1 4:5.17.5
 _ZNK11TaskManager18VirtualDesktopInfo17desktopLayoutRowsEv@ABI_6_1 4:5.17.5
 _ZNK11TaskManager18VirtualDesktopInfo19desktopNamesChangedEv@ABI_6_1 4:5.17.5
 _ZNK11TaskManager18VirtualDesktopInfo21currentDesktopChangedEv@ABI_6_1 4:5.17.5
 _ZNK11TaskManager18VirtualDesktopInfo23numberOfDesktopsChangedEv@ABI_6_1 4:5.17.5
 _ZNK11TaskManager18VirtualDesktopInfo24desktopLayoutRowsChangedEv@ABI_6_1 4:5.17.5
 _ZNK11TaskManager18VirtualDesktopInfo24navigationWrappingAroundEv@ABI_6_1 4:5.21.90
 _ZNK11TaskManager18VirtualDesktopInfo31navigationWrappingAroundChangedEv@ABI_6_1 4:5.21.90
 _ZNK11TaskManager18VirtualDesktopInfo8positionERK8QVariant@ABI_6_1 4:5.17.5
 _ZNK11TaskManager18XStartupTasksModel10metaObjectEv@ABI_6_1 4:5.22.90
 _ZNK11TaskManager18XStartupTasksModel4dataERK11QModelIndexi@ABI_6_1 4:5.22.90
 _ZNK11TaskManager18XStartupTasksModel8rowCountERK11QModelIndex@ABI_6_1 4:5.22.90
 _ZNK11TaskManager20TaskFilterProxyModel10acceptsRowEi@ABI_6_1 4:5.17.5
 _ZNK11TaskManager20TaskFilterProxyModel10metaObjectEv@ABI_6_1 4:5.17.5
 _ZNK11TaskManager20TaskFilterProxyModel12filterHiddenEv@ABI_6_1 4:5.22.0
 _ZNK11TaskManager20TaskFilterProxyModel14filterByScreenEv@ABI_6_1 4:5.17.5
 _ZNK11TaskManager20TaskFilterProxyModel14screenGeometryEv@ABI_6_1 4:5.17.5
 _ZNK11TaskManager20TaskFilterProxyModel14virtualDesktopEv@ABI_6_1 4:5.17.5
 _ZNK11TaskManager20TaskFilterProxyModel15activityChangedEv@ABI_6_1 4:5.17.5
 _ZNK11TaskManager20TaskFilterProxyModel15filterMinimizedEv@ABI_6_1 4:5.26.90
 _ZNK11TaskManager20TaskFilterProxyModel15filterSkipPagerEv@ABI_6_1 4:5.17.5
 _ZNK11TaskManager20TaskFilterProxyModel16filterAcceptsRowEiRK11QModelIndex@ABI_6_1 4:5.17.5
 _ZNK11TaskManager20TaskFilterProxyModel16filterByActivityEv@ABI_6_1 4:5.17.5
 _ZNK11TaskManager20TaskFilterProxyModel16mapIfaceToSourceERK11QModelIndex@ABI_6_1 4:5.17.5
 _ZNK11TaskManager20TaskFilterProxyModel17filterSkipTaskbarEv@ABI_6_1 4:5.17.5
 _ZNK11TaskManager20TaskFilterProxyModel18filterNotMaximizedEv@ABI_6_1 4:5.21.90
 _ZNK11TaskManager20TaskFilterProxyModel18filterNotMinimizedEv@ABI_6_1 4:5.17.5
 _ZNK11TaskManager20TaskFilterProxyModel19filterHiddenChangedEv@ABI_6_1 4:5.22.0
 _ZNK11TaskManager20TaskFilterProxyModel21filterByScreenChangedEv@ABI_6_1 4:5.17.5
 _ZNK11TaskManager20TaskFilterProxyModel21screenGeometryChangedEv@ABI_6_1 4:5.17.5
 _ZNK11TaskManager20TaskFilterProxyModel21virtualDesktopChangedEv@ABI_6_1 4:5.17.5
 _ZNK11TaskManager20TaskFilterProxyModel22filterByVirtualDesktopEv@ABI_6_1 4:5.17.5
 _ZNK11TaskManager20TaskFilterProxyModel22filterSkipPagerChangedEv@ABI_6_1 4:5.17.5
 _ZNK11TaskManager20TaskFilterProxyModel23filterByActivityChangedEv@ABI_6_1 4:5.17.5
 _ZNK11TaskManager20TaskFilterProxyModel24filterSkipTaskbarChangedEv@ABI_6_1 4:5.17.5
 _ZNK11TaskManager20TaskFilterProxyModel25filterNotMaximizedChangedEv@ABI_6_1 4:5.21.90
 _ZNK11TaskManager20TaskFilterProxyModel25filterNotMinimizedChangedEv@ABI_6_1 4:5.17.5
 _ZNK11TaskManager20TaskFilterProxyModel29filterByVirtualDesktopChangedEv@ABI_6_1 4:5.17.5
 _ZNK11TaskManager20TaskFilterProxyModel30demandingAttentionSkipsFiltersEv@ABI_6_1 4:5.17.5
 _ZNK11TaskManager20TaskFilterProxyModel37demandingAttentionSkipsFiltersChangedEv@ABI_6_1 4:5.17.5
 _ZNK11TaskManager20TaskFilterProxyModel8activityEv@ABI_6_1 4:5.17.5
 _ZNK11TaskManager22TaskGroupingProxyModel10metaObjectEv@ABI_6_1 4:5.17.5
 _ZNK11TaskManager22TaskGroupingProxyModel11columnCountERK11QModelIndex@ABI_6_1 4:5.17.5
 _ZNK11TaskManager22TaskGroupingProxyModel11hasChildrenERK11QModelIndex@ABI_6_1 4:5.17.5
 _ZNK11TaskManager22TaskGroupingProxyModel11mapToSourceERK11QModelIndex@ABI_6_1 4:5.17.5
 _ZNK11TaskManager22TaskGroupingProxyModel13mapFromSourceERK11QModelIndex@ABI_6_1 4:5.17.5
 _ZNK11TaskManager22TaskGroupingProxyModel16groupModeChangedEv@ABI_6_1 4:5.17.5
 _ZNK11TaskManager22TaskGroupingProxyModel17blacklistedAppIdsEv@ABI_6_1 4:5.17.5
 _ZNK11TaskManager22TaskGroupingProxyModel20windowTasksThresholdEv@ABI_6_1 4:5.17.5
 _ZNK11TaskManager22TaskGroupingProxyModel23blacklistedLauncherUrlsEv@ABI_6_1 4:5.17.5
 _ZNK11TaskManager22TaskGroupingProxyModel23groupDemandingAttentionEv@ABI_6_1 4:5.17.5
 _ZNK11TaskManager22TaskGroupingProxyModel24blacklistedAppIdsChangedEv@ABI_6_1 4:5.17.5
 _ZNK11TaskManager22TaskGroupingProxyModel27windowTasksThresholdChangedEv@ABI_6_1 4:5.17.5
 _ZNK11TaskManager22TaskGroupingProxyModel30blacklistedLauncherUrlsChangedEv@ABI_6_1 4:5.17.5
 _ZNK11TaskManager22TaskGroupingProxyModel30groupDemandingAttentionChangedEv@ABI_6_1 4:5.17.5
 _ZNK11TaskManager22TaskGroupingProxyModel4dataERK11QModelIndexi@ABI_6_1 4:5.17.5
 _ZNK11TaskManager22TaskGroupingProxyModel5indexEiiRK11QModelIndex@ABI_6_1 4:5.17.5
 _ZNK11TaskManager22TaskGroupingProxyModel6parentERK11QModelIndex@ABI_6_1 4:5.17.5
 _ZNK11TaskManager22TaskGroupingProxyModel8rowCountERK11QModelIndex@ABI_6_1 4:5.17.5
 _ZNK11TaskManager22TaskGroupingProxyModel9groupModeEv@ABI_6_1 4:5.17.5
 _ZNK11TaskManager24AbstractWindowTasksModel10metaObjectEv@ABI_6_1 4:5.17.5
 _ZNK11TaskManager24WaylandStartupTasksModel10metaObjectEv@ABI_6_1 4:5.22.90
 _ZNK11TaskManager24WaylandStartupTasksModel4dataERK11QModelIndexi@ABI_6_1 4:5.22.90
 _ZNK11TaskManager24WaylandStartupTasksModel8rowCountERK11QModelIndex@ABI_6_1 4:5.22.90
 _ZNK11TaskManager26ConcatenateTasksProxyModel10metaObjectEv@ABI_6_1 4:5.17.5
 _ZNK11TaskManager26ConcatenateTasksProxyModel16mapIfaceToSourceERK11QModelIndex@ABI_6_1 4:5.17.5
 _ZNK11TaskManager27FlattenTaskGroupsProxyModel10metaObjectEv@ABI_6_1 4:5.17.5
 _ZNK11TaskManager27FlattenTaskGroupsProxyModel16mapIfaceToSourceERK11QModelIndex@ABI_6_1 4:5.17.5
 _ZTIN11TaskManager10TasksModelE@ABI_6_1 4:5.17.5
 _ZTIN11TaskManager12ActivityInfoE@ABI_6_1 4:5.17.5
 _ZTIN11TaskManager16WindowTasksModelE@ABI_6_1 4:5.17.5
 _ZTIN11TaskManager17StartupTasksModelE@ABI_6_1 4:5.17.5
 _ZTIN11TaskManager17WaylandTasksModelE@ABI_6_1 4:5.17.5
 _ZTIN11TaskManager17XWindowTasksModelE@ABI_6_1 4:5.17.5
 _ZTIN11TaskManager18AbstractTasksModelE@ABI_6_1 4:5.17.5
 _ZTIN11TaskManager18LauncherTasksModelE@ABI_6_1 4:5.17.5
 _ZTIN11TaskManager18VirtualDesktopInfoE@ABI_6_1 4:5.17.5
 _ZTIN11TaskManager18XStartupTasksModelE@ABI_6_1 4:5.22.90
 _ZTIN11TaskManager20TaskFilterProxyModelE@ABI_6_1 4:5.17.5
 _ZTIN11TaskManager22TaskGroupingProxyModelE@ABI_6_1 4:5.17.5
 _ZTIN11TaskManager23AbstractTasksModelIfaceE@ABI_6_1 4:5.17.5
 _ZTIN11TaskManager24AbstractWindowTasksModelE@ABI_6_1 4:5.17.5
 _ZTIN11TaskManager24WaylandStartupTasksModelE@ABI_6_1 4:5.22.90
 _ZTIN11TaskManager26ConcatenateTasksProxyModelE@ABI_6_1 4:5.17.5
 _ZTIN11TaskManager27FlattenTaskGroupsProxyModelE@ABI_6_1 4:5.17.5
 _ZTIN11TaskManager28AbstractTasksProxyModelIfaceE@ABI_6_1 4:5.17.5
 _ZTSN11TaskManager10TasksModelE@ABI_6_1 4:5.17.5
 _ZTSN11TaskManager12ActivityInfoE@ABI_6_1 4:5.17.5
 _ZTSN11TaskManager16WindowTasksModelE@ABI_6_1 4:5.17.5
 _ZTSN11TaskManager17StartupTasksModelE@ABI_6_1 4:5.17.5
 _ZTSN11TaskManager17WaylandTasksModelE@ABI_6_1 4:5.17.5
 _ZTSN11TaskManager17XWindowTasksModelE@ABI_6_1 4:5.17.5
 _ZTSN11TaskManager18AbstractTasksModelE@ABI_6_1 4:5.17.5
 _ZTSN11TaskManager18LauncherTasksModelE@ABI_6_1 4:5.17.5
 _ZTSN11TaskManager18VirtualDesktopInfoE@ABI_6_1 4:5.17.5
 _ZTSN11TaskManager18XStartupTasksModelE@ABI_6_1 4:5.22.90
 _ZTSN11TaskManager20TaskFilterProxyModelE@ABI_6_1 4:5.17.5
 _ZTSN11TaskManager22TaskGroupingProxyModelE@ABI_6_1 4:5.17.5
 _ZTSN11TaskManager23AbstractTasksModelIfaceE@ABI_6_1 4:5.17.5
 _ZTSN11TaskManager24AbstractWindowTasksModelE@ABI_6_1 4:5.17.5
 _ZTSN11TaskManager24WaylandStartupTasksModelE@ABI_6_1 4:5.22.90
 _ZTSN11TaskManager26ConcatenateTasksProxyModelE@ABI_6_1 4:5.17.5
 _ZTSN11TaskManager27FlattenTaskGroupsProxyModelE@ABI_6_1 4:5.17.5
 _ZTSN11TaskManager28AbstractTasksProxyModelIfaceE@ABI_6_1 4:5.17.5
 _ZTVN11TaskManager10TasksModelE@ABI_6_1 4:5.17.5
 _ZTVN11TaskManager12ActivityInfoE@ABI_6_1 4:5.17.5
 _ZTVN11TaskManager16WindowTasksModelE@ABI_6_1 4:5.17.5
 _ZTVN11TaskManager17StartupTasksModelE@ABI_6_1 4:5.17.5
 _ZTVN11TaskManager17WaylandTasksModelE@ABI_6_1 4:5.17.5
 _ZTVN11TaskManager17XWindowTasksModelE@ABI_6_1 4:5.17.5
 _ZTVN11TaskManager18AbstractTasksModelE@ABI_6_1 4:5.17.5
 _ZTVN11TaskManager18LauncherTasksModelE@ABI_6_1 4:5.17.5
 _ZTVN11TaskManager18VirtualDesktopInfoE@ABI_6_1 4:5.17.5
 _ZTVN11TaskManager18XStartupTasksModelE@ABI_6_1 4:5.22.90
 _ZTVN11TaskManager20TaskFilterProxyModelE@ABI_6_1 4:5.17.5
 _ZTVN11TaskManager22TaskGroupingProxyModelE@ABI_6_1 4:5.17.5
 _ZTVN11TaskManager23AbstractTasksModelIfaceE@ABI_6_1 4:5.17.5
 _ZTVN11TaskManager24AbstractWindowTasksModelE@ABI_6_1 4:5.17.5
 _ZTVN11TaskManager24WaylandStartupTasksModelE@ABI_6_1 4:5.22.90
 _ZTVN11TaskManager26ConcatenateTasksProxyModelE@ABI_6_1 4:5.17.5
 _ZTVN11TaskManager27FlattenTaskGroupsProxyModelE@ABI_6_1 4:5.17.5
 _ZTVN11TaskManager28AbstractTasksProxyModelIfaceE@ABI_6_1 4:5.17.5
 (c++)"non-virtual thunk to TaskManager::AbstractTasksModel::requestActivate(QModelIndex const&)@ABI_6_1" 4:5.17.5
 (c++)"non-virtual thunk to TaskManager::AbstractTasksModel::requestActivities(QModelIndex const&, QStringList const&)@ABI_6_1" 4:5.17.5
 (c++)"non-virtual thunk to TaskManager::AbstractTasksModel::requestClose(QModelIndex const&)@ABI_6_1" 4:5.17.5
 (c++)"non-virtual thunk to TaskManager::AbstractTasksModel::requestMove(QModelIndex const&)@ABI_6_1" 4:5.17.5
 (c++)"non-virtual thunk to TaskManager::AbstractTasksModel::requestNewInstance(QModelIndex const&)@ABI_6_1" 4:5.17.5
 (c++)"non-virtual thunk to TaskManager::AbstractTasksModel::requestNewVirtualDesktop(QModelIndex const&)@ABI_6_1" 4:5.17.5
 (c++)"non-virtual thunk to TaskManager::AbstractTasksModel::requestOpenUrls(QModelIndex const&, QList<QUrl> const&)@ABI_6_1" 4:5.17.5
 (c++)"non-virtual thunk to TaskManager::AbstractTasksModel::requestPublishDelegateGeometry(QModelIndex const&, QRect const&, QObject*)@ABI_6_1" 4:5.17.5
 (c++)"non-virtual thunk to TaskManager::AbstractTasksModel::requestResize(QModelIndex const&)@ABI_6_1" 4:5.17.5
 (c++)"non-virtual thunk to TaskManager::AbstractTasksModel::requestToggleFullScreen(QModelIndex const&)@ABI_6_1" 4:5.17.5
 (c++)"non-virtual thunk to TaskManager::AbstractTasksModel::requestToggleKeepAbove(QModelIndex const&)@ABI_6_1" 4:5.17.5
 (c++)"non-virtual thunk to TaskManager::AbstractTasksModel::requestToggleKeepBelow(QModelIndex const&)@ABI_6_1" 4:5.17.5
 (c++)"non-virtual thunk to TaskManager::AbstractTasksModel::requestToggleMaximized(QModelIndex const&)@ABI_6_1" 4:5.17.5
 (c++)"non-virtual thunk to TaskManager::AbstractTasksModel::requestToggleMinimized(QModelIndex const&)@ABI_6_1" 4:5.17.5
 (c++)"non-virtual thunk to TaskManager::AbstractTasksModel::requestToggleShaded(QModelIndex const&)@ABI_6_1" 4:5.17.5
 (c++)"non-virtual thunk to TaskManager::AbstractTasksModel::requestVirtualDesktops(QModelIndex const&, QList<QVariant> const&)@ABI_6_1" 4:5.17.5
 (c++)"non-virtual thunk to TaskManager::AbstractTasksModel::~AbstractTasksModel()@ABI_6_1" 4:5.17.5
 (c++)"non-virtual thunk to TaskManager::AbstractWindowTasksModel::~AbstractWindowTasksModel()@ABI_6_1" 4:5.17.5
 (c++)"non-virtual thunk to TaskManager::ConcatenateTasksProxyModel::mapIfaceToSource(QModelIndex const&) const@ABI_6_1" 4:5.17.5
 (c++)"non-virtual thunk to TaskManager::ConcatenateTasksProxyModel::~ConcatenateTasksProxyModel()@ABI_6_1" 4:5.17.5
 (c++)"non-virtual thunk to TaskManager::FlattenTaskGroupsProxyModel::mapIfaceToSource(QModelIndex const&) const@ABI_6_1" 4:5.17.5
 (c++)"non-virtual thunk to TaskManager::FlattenTaskGroupsProxyModel::~FlattenTaskGroupsProxyModel()@ABI_6_1" 4:5.17.5
 (c++)"non-virtual thunk to TaskManager::LauncherTasksModel::requestActivate(QModelIndex const&)@ABI_6_1" 4:5.17.5
 (c++)"non-virtual thunk to TaskManager::LauncherTasksModel::requestNewInstance(QModelIndex const&)@ABI_6_1" 4:5.17.5
 (c++)"non-virtual thunk to TaskManager::LauncherTasksModel::requestOpenUrls(QModelIndex const&, QList<QUrl> const&)@ABI_6_1" 4:5.17.5
 (c++)"non-virtual thunk to TaskManager::LauncherTasksModel::~LauncherTasksModel()@ABI_6_1" 4:5.17.5
 (c++)"non-virtual thunk to TaskManager::StartupTasksModel::mapIfaceToSource(QModelIndex const&) const@ABI_6_1" 4:5.22.90
 (c++)"non-virtual thunk to TaskManager::StartupTasksModel::~StartupTasksModel()@ABI_6_1" 4:5.17.5
 (c++)"non-virtual thunk to TaskManager::TaskFilterProxyModel::mapIfaceToSource(QModelIndex const&) const@ABI_6_1" 4:5.17.5
 (c++)"non-virtual thunk to TaskManager::TaskFilterProxyModel::~TaskFilterProxyModel()@ABI_6_1" 4:5.17.5
 (c++)"non-virtual thunk to TaskManager::TaskGroupingProxyModel::requestActivate(QModelIndex const&)@ABI_6_1" 4:5.17.5
 (c++)"non-virtual thunk to TaskManager::TaskGroupingProxyModel::requestActivities(QModelIndex const&, QStringList const&)@ABI_6_1" 4:5.17.5
 (c++)"non-virtual thunk to TaskManager::TaskGroupingProxyModel::requestClose(QModelIndex const&)@ABI_6_1" 4:5.17.5
 (c++)"non-virtual thunk to TaskManager::TaskGroupingProxyModel::requestMove(QModelIndex const&)@ABI_6_1" 4:5.17.5
 (c++)"non-virtual thunk to TaskManager::TaskGroupingProxyModel::requestNewInstance(QModelIndex const&)@ABI_6_1" 4:5.17.5
 (c++)"non-virtual thunk to TaskManager::TaskGroupingProxyModel::requestNewVirtualDesktop(QModelIndex const&)@ABI_6_1" 4:5.17.5
 (c++)"non-virtual thunk to TaskManager::TaskGroupingProxyModel::requestOpenUrls(QModelIndex const&, QList<QUrl> const&)@ABI_6_1" 4:5.17.5
 (c++)"non-virtual thunk to TaskManager::TaskGroupingProxyModel::requestPublishDelegateGeometry(QModelIndex const&, QRect const&, QObject*)@ABI_6_1" 4:5.17.5
 (c++)"non-virtual thunk to TaskManager::TaskGroupingProxyModel::requestResize(QModelIndex const&)@ABI_6_1" 4:5.17.5
 (c++)"non-virtual thunk to TaskManager::TaskGroupingProxyModel::requestToggleFullScreen(QModelIndex const&)@ABI_6_1" 4:5.17.5
 (c++)"non-virtual thunk to TaskManager::TaskGroupingProxyModel::requestToggleKeepAbove(QModelIndex const&)@ABI_6_1" 4:5.17.5
 (c++)"non-virtual thunk to TaskManager::TaskGroupingProxyModel::requestToggleKeepBelow(QModelIndex const&)@ABI_6_1" 4:5.17.5
 (c++)"non-virtual thunk to TaskManager::TaskGroupingProxyModel::requestToggleMaximized(QModelIndex const&)@ABI_6_1" 4:5.17.5
 (c++)"non-virtual thunk to TaskManager::TaskGroupingProxyModel::requestToggleMinimized(QModelIndex const&)@ABI_6_1" 4:5.17.5
 (c++)"non-virtual thunk to TaskManager::TaskGroupingProxyModel::requestToggleShaded(QModelIndex const&)@ABI_6_1" 4:5.17.5
 (c++)"non-virtual thunk to TaskManager::TaskGroupingProxyModel::requestVirtualDesktops(QModelIndex const&, QList<QVariant> const&)@ABI_6_1" 4:5.17.5
 (c++)"non-virtual thunk to TaskManager::TaskGroupingProxyModel::~TaskGroupingProxyModel()@ABI_6_1" 4:5.17.5
 (c++)"non-virtual thunk to TaskManager::TasksModel::classBegin()@ABI_6_1" 4:5.17.5
 (c++)"non-virtual thunk to TaskManager::TasksModel::componentComplete()@ABI_6_1" 4:5.17.5
 (c++)"non-virtual thunk to TaskManager::TasksModel::requestActivate(QModelIndex const&)@ABI_6_1" 4:5.17.5
 (c++)"non-virtual thunk to TaskManager::TasksModel::requestActivities(QModelIndex const&, QStringList const&)@ABI_6_1" 4:5.17.5
 (c++)"non-virtual thunk to TaskManager::TasksModel::requestClose(QModelIndex const&)@ABI_6_1" 4:5.17.5
 (c++)"non-virtual thunk to TaskManager::TasksModel::requestMove(QModelIndex const&)@ABI_6_1" 4:5.17.5
 (c++)"non-virtual thunk to TaskManager::TasksModel::requestNewInstance(QModelIndex const&)@ABI_6_1" 4:5.17.5
 (c++)"non-virtual thunk to TaskManager::TasksModel::requestNewVirtualDesktop(QModelIndex const&)@ABI_6_1" 4:5.17.5
 (c++)"non-virtual thunk to TaskManager::TasksModel::requestOpenUrls(QModelIndex const&, QList<QUrl> const&)@ABI_6_1" 4:5.17.5
 (c++)"non-virtual thunk to TaskManager::TasksModel::requestPublishDelegateGeometry(QModelIndex const&, QRect const&, QObject*)@ABI_6_1" 4:5.17.5
 (c++)"non-virtual thunk to TaskManager::TasksModel::requestResize(QModelIndex const&)@ABI_6_1" 4:5.17.5
 (c++)"non-virtual thunk to TaskManager::TasksModel::requestToggleFullScreen(QModelIndex const&)@ABI_6_1" 4:5.17.5
 (c++)"non-virtual thunk to TaskManager::TasksModel::requestToggleKeepAbove(QModelIndex const&)@ABI_6_1" 4:5.17.5
 (c++)"non-virtual thunk to TaskManager::TasksModel::requestToggleKeepBelow(QModelIndex const&)@ABI_6_1" 4:5.17.5
 (c++)"non-virtual thunk to TaskManager::TasksModel::requestToggleMaximized(QModelIndex const&)@ABI_6_1" 4:5.17.5
 (c++)"non-virtual thunk to TaskManager::TasksModel::requestToggleMinimized(QModelIndex const&)@ABI_6_1" 4:5.17.5
 (c++)"non-virtual thunk to TaskManager::TasksModel::requestToggleShaded(QModelIndex const&)@ABI_6_1" 4:5.17.5
 (c++)"non-virtual thunk to TaskManager::TasksModel::requestVirtualDesktops(QModelIndex const&, QList<QVariant> const&)@ABI_6_1" 4:5.17.5
 (c++)"non-virtual thunk to TaskManager::TasksModel::~TasksModel()@ABI_6_1" 4:5.17.5
 (c++)"non-virtual thunk to TaskManager::WaylandStartupTasksModel::~WaylandStartupTasksModel()@ABI_6_1" 4:5.22.90
 (c++)"non-virtual thunk to TaskManager::WaylandTasksModel::requestActivate(QModelIndex const&)@ABI_6_1" 4:5.17.5
 (c++)"non-virtual thunk to TaskManager::WaylandTasksModel::requestActivities(QModelIndex const&, QStringList const&)@ABI_6_1" 4:5.17.5
 (c++)"non-virtual thunk to TaskManager::WaylandTasksModel::requestClose(QModelIndex const&)@ABI_6_1" 4:5.17.5
 (c++)"non-virtual thunk to TaskManager::WaylandTasksModel::requestMove(QModelIndex const&)@ABI_6_1" 4:5.17.5
 (c++)"non-virtual thunk to TaskManager::WaylandTasksModel::requestNewInstance(QModelIndex const&)@ABI_6_1" 4:5.17.5
 (c++)"non-virtual thunk to TaskManager::WaylandTasksModel::requestNewVirtualDesktop(QModelIndex const&)@ABI_6_1" 4:5.17.5
 (c++)"non-virtual thunk to TaskManager::WaylandTasksModel::requestOpenUrls(QModelIndex const&, QList<QUrl> const&)@ABI_6_1" 4:5.17.5
 (c++)"non-virtual thunk to TaskManager::WaylandTasksModel::requestPublishDelegateGeometry(QModelIndex const&, QRect const&, QObject*)@ABI_6_1" 4:5.17.5
 (c++)"non-virtual thunk to TaskManager::WaylandTasksModel::requestResize(QModelIndex const&)@ABI_6_1" 4:5.17.5
 (c++)"non-virtual thunk to TaskManager::WaylandTasksModel::requestToggleFullScreen(QModelIndex const&)@ABI_6_1" 4:5.17.5
 (c++)"non-virtual thunk to TaskManager::WaylandTasksModel::requestToggleKeepAbove(QModelIndex const&)@ABI_6_1" 4:5.17.5
 (c++)"non-virtual thunk to TaskManager::WaylandTasksModel::requestToggleKeepBelow(QModelIndex const&)@ABI_6_1" 4:5.17.5
 (c++)"non-virtual thunk to TaskManager::WaylandTasksModel::requestToggleMaximized(QModelIndex const&)@ABI_6_1" 4:5.17.5
 (c++)"non-virtual thunk to TaskManager::WaylandTasksModel::requestToggleMinimized(QModelIndex const&)@ABI_6_1" 4:5.17.5
 (c++)"non-virtual thunk to TaskManager::WaylandTasksModel::requestToggleShaded(QModelIndex const&)@ABI_6_1" 4:5.17.5
 (c++)"non-virtual thunk to TaskManager::WaylandTasksModel::requestVirtualDesktops(QModelIndex const&, QList<QVariant> const&)@ABI_6_1" 4:5.17.5
 (c++)"non-virtual thunk to TaskManager::WaylandTasksModel::~WaylandTasksModel()@ABI_6_1" 4:5.17.5
 (c++)"non-virtual thunk to TaskManager::WindowTasksModel::mapIfaceToSource(QModelIndex const&) const@ABI_6_1" 4:5.17.5
 (c++)"non-virtual thunk to TaskManager::WindowTasksModel::~WindowTasksModel()@ABI_6_1" 4:5.17.5
 (c++)"non-virtual thunk to TaskManager::XStartupTasksModel::~XStartupTasksModel()@ABI_6_1" 4:5.22.90
 (c++)"non-virtual thunk to TaskManager::XWindowTasksModel::requestActivate(QModelIndex const&)@ABI_6_1" 4:5.17.5
 (c++)"non-virtual thunk to TaskManager::XWindowTasksModel::requestActivities(QModelIndex const&, QStringList const&)@ABI_6_1" 4:5.17.5
 (c++)"non-virtual thunk to TaskManager::XWindowTasksModel::requestClose(QModelIndex const&)@ABI_6_1" 4:5.17.5
 (c++)"non-virtual thunk to TaskManager::XWindowTasksModel::requestMove(QModelIndex const&)@ABI_6_1" 4:5.17.5
 (c++)"non-virtual thunk to TaskManager::XWindowTasksModel::requestNewInstance(QModelIndex const&)@ABI_6_1" 4:5.17.5
 (c++)"non-virtual thunk to TaskManager::XWindowTasksModel::requestNewVirtualDesktop(QModelIndex const&)@ABI_6_1" 4:5.17.5
 (c++)"non-virtual thunk to TaskManager::XWindowTasksModel::requestOpenUrls(QModelIndex const&, QList<QUrl> const&)@ABI_6_1" 4:5.17.5
 (c++)"non-virtual thunk to TaskManager::XWindowTasksModel::requestPublishDelegateGeometry(QModelIndex const&, QRect const&, QObject*)@ABI_6_1" 4:5.17.5
 (c++)"non-virtual thunk to TaskManager::XWindowTasksModel::requestResize(QModelIndex const&)@ABI_6_1" 4:5.17.5
 (c++)"non-virtual thunk to TaskManager::XWindowTasksModel::requestToggleFullScreen(QModelIndex const&)@ABI_6_1" 4:5.17.5
 (c++)"non-virtual thunk to TaskManager::XWindowTasksModel::requestToggleKeepAbove(QModelIndex const&)@ABI_6_1" 4:5.17.5
 (c++)"non-virtual thunk to TaskManager::XWindowTasksModel::requestToggleKeepBelow(QModelIndex const&)@ABI_6_1" 4:5.17.5
 (c++)"non-virtual thunk to TaskManager::XWindowTasksModel::requestToggleMaximized(QModelIndex const&)@ABI_6_1" 4:5.17.5
 (c++)"non-virtual thunk to TaskManager::XWindowTasksModel::requestToggleMinimized(QModelIndex const&)@ABI_6_1" 4:5.17.5
 (c++)"non-virtual thunk to TaskManager::XWindowTasksModel::requestToggleShaded(QModelIndex const&)@ABI_6_1" 4:5.17.5
 (c++)"non-virtual thunk to TaskManager::XWindowTasksModel::requestVirtualDesktops(QModelIndex const&, QList<QVariant> const&)@ABI_6_1" 4:5.17.5
 (c++)"non-virtual thunk to TaskManager::XWindowTasksModel::~XWindowTasksModel()@ABI_6_1" 4:5.17.5
