# SymbolsHelper-Confirmed: 5.70.0 amd64
libKF5JobWidgets.so.5 libkf5jobwidgets5 #MINVER#
* Build-Depends-Package: libkf5jobwidgets-dev
 _ZN11KJobWidgets13userTimestampEP4KJob@Base 4.96.0
 _ZN11KJobWidgets19updateUserTimestampEP4KJobm@Base 4.96.0
 _ZN11KJobWidgets6windowEP4KJob@Base 4.96.0
 _ZN11KJobWidgets9setWindowEP4KJobP7QWidget@Base 4.96.0
 _ZN11KJobWindows6windowEP4KJob@Base 5.42.0
 _ZN11KJobWindows9setWindowEP4KJobP7QWindow@Base 5.42.0
 _ZN17KWidgetJobTracker11descriptionEP4KJobRK7QStringRK5QPairIS2_S2_ES8_@Base 4.96.0
 _ZN17KWidgetJobTracker11infoMessageEP4KJobRK7QStringS4_@Base 4.96.0
 _ZN17KWidgetJobTracker11qt_metacallEN11QMetaObject4CallEiPPv@Base 4.96.0
 _ZN17KWidgetJobTracker11qt_metacastEPKc@Base 4.96.0
 _ZN17KWidgetJobTracker11registerJobEP4KJob@Base 4.96.0
 _ZN17KWidgetJobTracker11totalAmountEP4KJobNS0_4UnitEy@Base 4.96.0
 _ZN17KWidgetJobTracker13unregisterJobEP4KJob@Base 4.96.0
 _ZN17KWidgetJobTracker15processedAmountEP4KJobNS0_4UnitEy@Base 4.96.0
 _ZN17KWidgetJobTracker16staticMetaObjectE@Base 4.96.0
 _ZN17KWidgetJobTracker5speedEP4KJobm@Base 4.96.0
 _ZN17KWidgetJobTracker6widgetEP4KJob@Base 4.96.0
 _ZN17KWidgetJobTracker7percentEP4KJobm@Base 4.96.0
 _ZN17KWidgetJobTracker7resumedEP4KJob@Base 4.96.0
 _ZN17KWidgetJobTracker9slotCleanEP4KJob@Base 4.96.0
 _ZN17KWidgetJobTracker9suspendedEP4KJob@Base 4.96.0
 _ZN17KWidgetJobTrackerC1EP7QWidget@Base 4.96.0
 _ZN17KWidgetJobTrackerC2EP7QWidget@Base 4.96.0
 _ZN17KWidgetJobTrackerD0Ev@Base 4.96.0
 _ZN17KWidgetJobTrackerD1Ev@Base 4.96.0
 _ZN17KWidgetJobTrackerD2Ev@Base 4.96.0
 _ZN19KUiServerJobTracker11descriptionEP4KJobRK7QStringRK5QPairIS2_S2_ES8_@Base 4.96.0
 _ZN19KUiServerJobTracker11infoMessageEP4KJobRK7QStringS4_@Base 4.96.0
 _ZN19KUiServerJobTracker11qt_metacallEN11QMetaObject4CallEiPPv@Base 4.96.0
 _ZN19KUiServerJobTracker11qt_metacastEPKc@Base 4.96.0
 _ZN19KUiServerJobTracker11registerJobEP4KJob@Base 4.96.0
 _ZN19KUiServerJobTracker11totalAmountEP4KJobNS0_4UnitEy@Base 4.96.0
 _ZN19KUiServerJobTracker13unregisterJobEP4KJob@Base 4.96.0
 _ZN19KUiServerJobTracker15processedAmountEP4KJobNS0_4UnitEy@Base 4.96.0
 _ZN19KUiServerJobTracker16staticMetaObjectE@Base 4.96.0
 _ZN19KUiServerJobTracker5speedEP4KJobm@Base 4.96.0
 _ZN19KUiServerJobTracker7percentEP4KJobm@Base 4.96.0
 _ZN19KUiServerJobTracker7resumedEP4KJob@Base 4.96.0
 _ZN19KUiServerJobTracker8finishedEP4KJob@Base 4.96.0
 _ZN19KUiServerJobTracker9suspendedEP4KJob@Base 4.96.0
 _ZN19KUiServerJobTrackerC1EP7QObject@Base 4.96.0
 _ZN19KUiServerJobTrackerC2EP7QObject@Base 4.96.0
 _ZN19KUiServerJobTrackerD0Ev@Base 4.96.0
 _ZN19KUiServerJobTrackerD1Ev@Base 4.96.0
 _ZN19KUiServerJobTrackerD2Ev@Base 4.96.0
 _ZN20KDialogJobUiDelegate11qt_metacallEN11QMetaObject4CallEiPPv@Base 4.96.0
 _ZN20KDialogJobUiDelegate11qt_metacastEPKc@Base 4.96.0
 _ZN20KDialogJobUiDelegate11slotWarningEP4KJobRK7QStringS4_@Base 4.96.0
 _ZN20KDialogJobUiDelegate16showErrorMessageEv@Base 4.96.0
 _ZN20KDialogJobUiDelegate16staticMetaObjectE@Base 4.96.0
 _ZN20KDialogJobUiDelegate19updateUserTimestampEm@Base 4.96.0
 _ZN20KDialogJobUiDelegate6setJobEP4KJob@Base 4.96.0
 _ZN20KDialogJobUiDelegate9setWindowEP7QWidget@Base 4.96.0
 _ZN20KDialogJobUiDelegateC1E6QFlagsIN14KJobUiDelegate4FlagEEP7QWidget@Base 5.70.0
 _ZN20KDialogJobUiDelegateC1Ev@Base 4.96.0
 _ZN20KDialogJobUiDelegateC2E6QFlagsIN14KJobUiDelegate4FlagEEP7QWidget@Base 5.70.0
 _ZN20KDialogJobUiDelegateC2Ev@Base 4.96.0
 _ZN20KDialogJobUiDelegateD0Ev@Base 4.96.0
 _ZN20KDialogJobUiDelegateD1Ev@Base 4.96.0
 _ZN20KDialogJobUiDelegateD2Ev@Base 4.96.0
 _ZN20KStatusBarJobTracker11descriptionEP4KJobRK7QStringRK5QPairIS2_S2_ES8_@Base 4.96.0
 _ZN20KStatusBarJobTracker11qt_metacallEN11QMetaObject4CallEiPPv@Base 4.96.0
 _ZN20KStatusBarJobTracker11qt_metacastEPKc@Base 4.96.0
 _ZN20KStatusBarJobTracker11registerJobEP4KJob@Base 4.96.0
 _ZN20KStatusBarJobTracker11totalAmountEP4KJobNS0_4UnitEy@Base 4.96.0
 _ZN20KStatusBarJobTracker13unregisterJobEP4KJob@Base 4.96.0
 _ZN20KStatusBarJobTracker16setStatusBarModeE6QFlagsINS_13StatusBarModeEE@Base 4.96.0
 _ZN20KStatusBarJobTracker16staticMetaObjectE@Base 4.96.0
 _ZN20KStatusBarJobTracker5speedEP4KJobm@Base 4.96.0
 _ZN20KStatusBarJobTracker6widgetEP4KJob@Base 4.96.0
 _ZN20KStatusBarJobTracker7percentEP4KJobm@Base 4.96.0
 _ZN20KStatusBarJobTracker9slotCleanEP4KJob@Base 4.96.0
 _ZN20KStatusBarJobTrackerC1EP7QWidgetb@Base 4.96.0
 _ZN20KStatusBarJobTrackerC2EP7QWidgetb@Base 4.96.0
 _ZN20KStatusBarJobTrackerD0Ev@Base 4.96.0
 _ZN20KStatusBarJobTrackerD1Ev@Base 4.96.0
 _ZN20KStatusBarJobTrackerD2Ev@Base 4.96.0
 _ZN21KUiServerV2JobTracker11descriptionEP4KJobRK7QStringRK5QPairIS2_S2_ES8_@Base 5.83.0
 _ZN21KUiServerV2JobTracker11infoMessageEP4KJobRK7QStringS4_@Base 5.83.0
 _ZN21KUiServerV2JobTracker11qt_metacallEN11QMetaObject4CallEiPPv@Base 5.83.0
 _ZN21KUiServerV2JobTracker11qt_metacastEPKc@Base 5.83.0
 _ZN21KUiServerV2JobTracker11registerJobEP4KJob@Base 5.83.0
 _ZN21KUiServerV2JobTracker11totalAmountEP4KJobNS0_4UnitEy@Base 5.83.0
 _ZN21KUiServerV2JobTracker13unregisterJobEP4KJob@Base 5.83.0
 _ZN21KUiServerV2JobTracker15processedAmountEP4KJobNS0_4UnitEy@Base 5.83.0
 _ZN21KUiServerV2JobTracker16staticMetaObjectE@Base 5.83.0
 _ZN21KUiServerV2JobTracker5speedEP4KJobm@Base 5.83.0
 _ZN21KUiServerV2JobTracker7percentEP4KJobm@Base 5.83.0
 _ZN21KUiServerV2JobTracker7resumedEP4KJob@Base 5.83.0
 _ZN21KUiServerV2JobTracker8finishedEP4KJob@Base 5.83.0
 _ZN21KUiServerV2JobTracker9suspendedEP4KJob@Base 5.83.0
 _ZN21KUiServerV2JobTrackerC1EP7QObject@Base 5.83.0
 _ZN21KUiServerV2JobTrackerC2EP7QObject@Base 5.83.0
 _ZN21KUiServerV2JobTrackerD0Ev@Base 5.83.0
 _ZN21KUiServerV2JobTrackerD1Ev@Base 5.83.0
 _ZN21KUiServerV2JobTrackerD2Ev@Base 5.83.0
 _ZN25KAbstractWidgetJobTracker10slotResumeEP4KJob@Base 4.96.0
 _ZN25KAbstractWidgetJobTracker11qt_metacallEN11QMetaObject4CallEiPPv@Base 4.96.0
 _ZN25KAbstractWidgetJobTracker11qt_metacastEPKc@Base 4.96.0
 _ZN25KAbstractWidgetJobTracker11registerJobEP4KJob@Base 4.96.0
 _ZN25KAbstractWidgetJobTracker11slotSuspendEP4KJob@Base 4.96.0
 _ZN25KAbstractWidgetJobTracker13setAutoDeleteEP4KJobb@Base 4.96.0
 _ZN25KAbstractWidgetJobTracker13unregisterJobEP4KJob@Base 4.96.0
 _ZN25KAbstractWidgetJobTracker14setStopOnCloseEP4KJobb@Base 4.96.0
 _ZN25KAbstractWidgetJobTracker16staticMetaObjectE@Base 4.96.0
 _ZN25KAbstractWidgetJobTracker6resumeEP4KJob@Base 4.96.0
 _ZN25KAbstractWidgetJobTracker7stoppedEP4KJob@Base 4.96.0
 _ZN25KAbstractWidgetJobTracker7suspendEP4KJob@Base 4.96.0
 _ZN25KAbstractWidgetJobTracker8finishedEP4KJob@Base 4.96.0
 _ZN25KAbstractWidgetJobTracker8slotStopEP4KJob@Base 4.96.0
 _ZN25KAbstractWidgetJobTracker9slotCleanEP4KJob@Base 4.96.0
 _ZN25KAbstractWidgetJobTrackerC1EP7QWidget@Base 4.96.0
 _ZN25KAbstractWidgetJobTrackerC1ER32KAbstractWidgetJobTrackerPrivateP7QWidget@Base 5.80.0
 _ZN25KAbstractWidgetJobTrackerC2EP7QWidget@Base 4.96.0
 _ZN25KAbstractWidgetJobTrackerC2ER32KAbstractWidgetJobTrackerPrivateP7QWidget@Base 5.80.0
 _ZN25KAbstractWidgetJobTrackerD0Ev@Base 4.96.0
 _ZN25KAbstractWidgetJobTrackerD1Ev@Base 4.96.0
 _ZN25KAbstractWidgetJobTrackerD2Ev@Base 4.96.0
 _ZNK17KWidgetJobTracker10metaObjectEv@Base 4.96.0
 _ZNK17KWidgetJobTracker8keepOpenEP4KJob@Base 4.96.0
 _ZNK19KUiServerJobTracker10metaObjectEv@Base 4.96.0
 _ZNK20KDialogJobUiDelegate10metaObjectEv@Base 4.96.0
 _ZNK20KDialogJobUiDelegate13userTimestampEv@Base 4.96.0
 _ZNK20KDialogJobUiDelegate6windowEv@Base 4.96.0
 _ZNK20KStatusBarJobTracker10metaObjectEv@Base 4.96.0
 _ZNK21KUiServerV2JobTracker10metaObjectEv@Base 5.83.0
 _ZNK25KAbstractWidgetJobTracker10autoDeleteEP4KJob@Base 4.96.0
 _ZNK25KAbstractWidgetJobTracker10metaObjectEv@Base 4.96.0
 _ZNK25KAbstractWidgetJobTracker11stopOnCloseEP4KJob@Base 4.96.0
 _ZTI17KWidgetJobTracker@Base 4.96.0
 _ZTI19KUiServerJobTracker@Base 4.96.0
 _ZTI20KDialogJobUiDelegate@Base 4.96.0
 _ZTI20KStatusBarJobTracker@Base 4.96.0
 _ZTI21KUiServerV2JobTracker@Base 5.83.0
 _ZTI25KAbstractWidgetJobTracker@Base 4.96.0
 _ZTS17KWidgetJobTracker@Base 4.96.0
 _ZTS19KUiServerJobTracker@Base 4.96.0
 _ZTS20KDialogJobUiDelegate@Base 4.96.0
 _ZTS20KStatusBarJobTracker@Base 4.96.0
 _ZTS21KUiServerV2JobTracker@Base 5.83.0
 _ZTS25KAbstractWidgetJobTracker@Base 4.96.0
 _ZTV17KWidgetJobTracker@Base 4.96.0
 _ZTV19KUiServerJobTracker@Base 4.96.0
 _ZTV20KDialogJobUiDelegate@Base 4.96.0
 _ZTV20KStatusBarJobTracker@Base 4.96.0
 _ZTV21KUiServerV2JobTracker@Base 5.83.0
 _ZTV25KAbstractWidgetJobTracker@Base 4.96.0
