# SymbolsHelper-Confirmed: 2.0.0.0 amd64
libkyfilewatcher.so.1 liblingmosdk-filesystem #MINVER#
 _ZN17LINGMOSDK_FILEWATCHER11FileWatcher10fileClosedE7QStringS1_@Base 1.2.1
 _ZN17LINGMOSDK_FILEWATCHER11FileWatcher10fileMoveInE7QStringS1_@Base 1.2.1
 _ZN17LINGMOSDK_FILEWATCHER11FileWatcher10fileOpenedE7QStringS1_@Base 1.2.1
 _ZN17LINGMOSDK_FILEWATCHER11FileWatcher10sendSignalEi7QStringi@Base 1.2.1
 _ZN17LINGMOSDK_FILEWATCHER11FileWatcher11fileCreatedE7QStringS1_@Base 1.2.1
 _ZN17LINGMOSDK_FILEWATCHER11FileWatcher11fileDeletedE7QStringS1_@Base 1.2.1
 _ZN17LINGMOSDK_FILEWATCHER11FileWatcher11fileMoveOutE7QStringS1_@Base 1.2.1
 _ZN17LINGMOSDK_FILEWATCHER11FileWatcher11fileUnmountE7QStringS1_@Base 1.2.1
 _ZN17LINGMOSDK_FILEWATCHER11FileWatcher11getChildDirE7QStringiii@Base 1.2.1
 _ZN17LINGMOSDK_FILEWATCHER11FileWatcher11qt_metacallEN11QMetaObject4CallEiPPv@Base 1.2.1
 _ZN17LINGMOSDK_FILEWATCHER11FileWatcher11qt_metacastEPKc@Base 1.2.1
 _ZN17LINGMOSDK_FILEWATCHER11FileWatcher12addWatchFileENS0_15FileDescriptionE@Base 1.2.1
 _ZN17LINGMOSDK_FILEWATCHER11FileWatcher12fileAccessedE7QStringS1_@Base 1.2.1
 _ZN17LINGMOSDK_FILEWATCHER11FileWatcher12fileModifiedE7QStringS1_@Base 1.2.1
 _ZN17LINGMOSDK_FILEWATCHER11FileWatcher12getChildFileE7QStringiii@Base 1.2.1
 _ZN17LINGMOSDK_FILEWATCHER11FileWatcher12getWatchListENS_15FileWatcherTypeE@Base 1.2.1
 _ZN17LINGMOSDK_FILEWATCHER11FileWatcher12getWatchListEi@Base 1.2.1
 _ZN17LINGMOSDK_FILEWATCHER11FileWatcher12getWatchListEv@Base 1.2.1
 _ZN17LINGMOSDK_FILEWATCHER11FileWatcher12pauseWatcherEv@Base 1.2.1
 _ZN17LINGMOSDK_FILEWATCHER11FileWatcher14addWatchTargetE7QStringNS_15FileWatcherTypeEi@Base 1.2.1
 _ZN17LINGMOSDK_FILEWATCHER11FileWatcher14clearWatchListEv@Base 1.2.1
 _ZN17LINGMOSDK_FILEWATCHER11FileWatcher14restartWatcherEv@Base 1.2.1
 _ZN17LINGMOSDK_FILEWATCHER11FileWatcher15fileAttrChangedE7QStringS1_@Base 1.2.1
 _ZN17LINGMOSDK_FILEWATCHER11FileWatcher15removeWatchFileE7QString@Base 1.2.1
 _ZN17LINGMOSDK_FILEWATCHER11FileWatcher16staticMetaObjectE@Base 1.2.1
 _ZN17LINGMOSDK_FILEWATCHER11FileWatcher17removeWatchTargetE7QString@Base 1.2.1
 _ZN17LINGMOSDK_FILEWATCHER11FileWatcher18addWatchTargetListE11QStringListNS_15FileWatcherTypeEi@Base 1.2.1
 _ZN17LINGMOSDK_FILEWATCHER11FileWatcher19updateWatchFileTypeE7QStringNS_15FileWatcherTypeE@Base 1.2.1
 _ZN17LINGMOSDK_FILEWATCHER11FileWatcher20fileIgnoredAutomaticE7QStringS1_@Base 1.2.1
 _ZN17LINGMOSDK_FILEWATCHER11FileWatcher21removeWatchTargetListE7QString@Base 1.2.1
 _ZN17LINGMOSDK_FILEWATCHER11FileWatcher21updateWatchTargetTypeE7QStringNS_15FileWatcherTypeE@Base 1.2.1
 _ZN17LINGMOSDK_FILEWATCHER11FileWatcher23addWatchTargetRecursiveE7QStringNS_15FileWatcherTypeEiii@Base 1.2.1
 _ZN17LINGMOSDK_FILEWATCHER11FileWatcher24updateWatchFileAttributeE7QStringi@Base 1.2.1
 _ZN17LINGMOSDK_FILEWATCHER11FileWatcher26removeWatchTargetRecursiveE7QStringii@Base 1.2.1
 _ZN17LINGMOSDK_FILEWATCHER11FileWatcher26updateWatchTargetAttributeE7QStringi@Base 1.2.1
 _ZN17LINGMOSDK_FILEWATCHER11FileWatcher27addWatchTargetListRecursiveE11QStringListNS_15FileWatcherTypeEiii@Base 1.2.1
 _ZN17LINGMOSDK_FILEWATCHER11FileWatcher30removeWatchTargetListRecursiveE7QStringii@Base 1.2.1
 _ZN17LINGMOSDK_FILEWATCHER11FileWatcherC1Ev@Base 1.2.1
 _ZN17LINGMOSDK_FILEWATCHER11FileWatcherC2Ev@Base 1.2.1
 _ZN17LINGMOSDK_FILEWATCHER11FileWatcherD0Ev@Base 1.2.1
 _ZN17LINGMOSDK_FILEWATCHER11FileWatcherD1Ev@Base 1.2.1
 _ZN17LINGMOSDK_FILEWATCHER11FileWatcherD2Ev@Base 1.2.1
 _ZN17LINGMOSDK_FILEWATCHER23fileWatcherThreadRunnerEPv@Base 1.2.1
 (optional=templinst)_ZN5QHashI7QStringN17LINGMOSDK_FILEWATCHER11FileWatcher15FileDescriptionEE13duplicateNodeEPN9QHashData4NodeEPv@Base 1.2.1
 (optional=templinst)_ZN5QHashIi7QStringE11deleteNode2EPN9QHashData4NodeE@Base 1.2.1
 (optional=templinst)_ZN5QHashIi7QStringE13duplicateNodeEPN9QHashData4NodeEPv@Base 1.2.1
 _ZNK17LINGMOSDK_FILEWATCHER11FileWatcher10metaObjectEv@Base 1.2.1
 _ZTIN17LINGMOSDK_FILEWATCHER11FileWatcherE@Base 1.2.1
 _ZTSN17LINGMOSDK_FILEWATCHER11FileWatcherE@Base 1.2.1
 _ZTVN17LINGMOSDK_FILEWATCHER11FileWatcherE@Base 1.2.1
