# SymbolsHelper-Confirmed: 4:5.74.0 amd64
libDWaylandServer.so.5 libdwaylandserver5 #MINVER#
 _ZN14KWaylandServer12ClientBuffer10initializeEP11wl_resource@Base 5.24.3-1
 _ZN14KWaylandServer12ClientBuffer11qt_metacallEN11QMetaObject4CallEiPPv@Base 5.24.3-1
 _ZN14KWaylandServer12ClientBuffer11qt_metacastEPKc@Base 5.24.3-1
 _ZN14KWaylandServer12ClientBuffer15markAsDestroyedEv@Base 5.24.3-1
 _ZN14KWaylandServer12ClientBuffer16staticMetaObjectE@Base 5.24.3-1
 _ZN14KWaylandServer12ClientBuffer3refEv@Base 5.24.3-1
 _ZN14KWaylandServer12ClientBuffer5unrefEv@Base 5.24.3-1
 _ZN14KWaylandServer12ClientBufferC1EP11wl_resourceRNS_19ClientBufferPrivateE@Base 5.24.3-1
 _ZN14KWaylandServer12ClientBufferC1ERNS_19ClientBufferPrivateE@Base 5.24.3-1
 _ZN14KWaylandServer12ClientBufferC2EP11wl_resourceRNS_19ClientBufferPrivateE@Base 5.24.3-1
 _ZN14KWaylandServer12ClientBufferC2ERNS_19ClientBufferPrivateE@Base 5.24.3-1
 _ZN14KWaylandServer12ClientBufferD0Ev@Base 5.24.3-1
 _ZN14KWaylandServer12ClientBufferD1Ev@Base 5.24.3-1
 _ZN14KWaylandServer12ClientBufferD2Ev@Base 5.24.3-1
 _ZN14KWaylandServer13BlurInterface11qt_metacallEN11QMetaObject4CallEiPPv@Base 5.24.3-1
 _ZN14KWaylandServer13BlurInterface11qt_metacastEPKc@Base 5.24.3-1
 _ZN14KWaylandServer13BlurInterface16staticMetaObjectE@Base 5.24.3-1
 _ZN14KWaylandServer13BlurInterface6regionEv@Base 5.24.3-1
 _ZN14KWaylandServer13BlurInterfaceC1EP11wl_resource@Base 5.24.3-1
 _ZN14KWaylandServer13BlurInterfaceC2EP11wl_resource@Base 5.24.3-1
 _ZN14KWaylandServer13BlurInterfaceD0Ev@Base 5.24.3-1
 _ZN14KWaylandServer13BlurInterfaceD1Ev@Base 5.24.3-1
 _ZN14KWaylandServer13BlurInterfaceD2Ev@Base 5.24.3-1
 _ZN14KWaylandServer13IdleInterface11qt_metacallEN11QMetaObject4CallEiPPv@Base 5.24.3-1
 _ZN14KWaylandServer13IdleInterface11qt_metacastEPKc@Base 5.24.3-1
 _ZN14KWaylandServer13IdleInterface16inhibitedChangedEv@Base 5.24.3-1
 _ZN14KWaylandServer13IdleInterface16staticMetaObjectE@Base 5.24.3-1
 _ZN14KWaylandServer13IdleInterface20simulateUserActivityEv@Base 5.24.3-1
 _ZN14KWaylandServer13IdleInterface7inhibitEv@Base 5.24.3-1
 _ZN14KWaylandServer13IdleInterface9uninhibitEv@Base 5.24.3-1
 _ZN14KWaylandServer13IdleInterfaceC1EPNS_7DisplayEP7QObject@Base 5.24.3-1
 _ZN14KWaylandServer13IdleInterfaceC2EPNS_7DisplayEP7QObject@Base 5.24.3-1
 _ZN14KWaylandServer13IdleInterfaceD0Ev@Base 5.24.3-1
 _ZN14KWaylandServer13IdleInterfaceD1Ev@Base 5.24.3-1
 _ZN14KWaylandServer13IdleInterfaceD2Ev@Base 5.24.3-1
 _ZN14KWaylandServer13SeatInterface10touchMovedEijRK7QPointF@Base 5.24.3-1
 _ZN14KWaylandServer13SeatInterface11dragDroppedEv@Base 5.24.3-1
 _ZN14KWaylandServer13SeatInterface11dragStartedEv@Base 5.24.3-1
 _ZN14KWaylandServer13SeatInterface11nameChangedERK7QString@Base 5.24.3-1
 _ZN14KWaylandServer13SeatInterface11qt_metacallEN11QMetaObject4CallEiPPv@Base 5.24.3-1
 _ZN14KWaylandServer13SeatInterface11qt_metacastEPKc@Base 5.24.3-1
 _ZN14KWaylandServer13SeatInterface11setHasTouchEb@Base 5.24.3-1
 _ZN14KWaylandServer13SeatInterface12setSelectionEPNS_18AbstractDataSourceE@Base 5.24.3-1
 _ZN14KWaylandServer13SeatInterface12setTimestampEj@Base 5.24.3-1
 _ZN14KWaylandServer13SeatInterface13notifyTouchUpEi@Base 5.24.3-1
 _ZN14KWaylandServer13SeatInterface13setDragTargetEPNS_19AbstractDropHandlerEPNS_16SurfaceInterfaceERK10QMatrix4x4@Base 5.24.3-1
 _ZN14KWaylandServer13SeatInterface13setDragTargetEPNS_19AbstractDropHandlerEPNS_16SurfaceInterfaceERK7QPointFRK10QMatrix4x4@Base 5.24.3-1
 _ZN14KWaylandServer13SeatInterface13setHasPointerEb@Base 5.24.3-1
 _ZN14KWaylandServer13SeatInterface14setHasKeyboardEb@Base 5.24.3-1
 _ZN14KWaylandServer13SeatInterface15hasTouchChangedEb@Base 5.24.3-1
 _ZN14KWaylandServer13SeatInterface15notifyTouchDownEiRK7QPointF@Base 5.24.3-1
 _ZN14KWaylandServer13SeatInterface16notifyTouchFrameEv@Base 5.24.3-1
 _ZN14KWaylandServer13SeatInterface16selectionChangedEPNS_18AbstractDataSourceE@Base 5.24.3-1
 _ZN14KWaylandServer13SeatInterface16staticMetaObjectE@Base 5.24.3-1
 _ZN14KWaylandServer13SeatInterface16timestampChangedEj@Base 5.24.3-1
 _ZN14KWaylandServer13SeatInterface17hasPointerChangedEb@Base 5.24.3-1
 _ZN14KWaylandServer13SeatInterface17notifyKeyboardKeyEjNS_16KeyboardKeyStateE@Base 5.24.3-1
 _ZN14KWaylandServer13SeatInterface17notifyPointerAxisEN2Qt11OrientationEdiNS_17PointerAxisSourceE@Base 5.24.3-1
 _ZN14KWaylandServer13SeatInterface17notifyTouchCancelEv@Base 5.24.3-1
 _ZN14KWaylandServer13SeatInterface17notifyTouchMotionEiRK7QPointF@Base 5.24.3-1
 _ZN14KWaylandServer13SeatInterface17pointerPosChangedERK7QPointF@Base 5.24.3-1
 _ZN14KWaylandServer13SeatInterface18dragSurfaceChangedEv@Base 5.24.3-1
 _ZN14KWaylandServer13SeatInterface18hasKeyboardChangedEb@Base 5.24.3-1
 _ZN14KWaylandServer13SeatInterface18notifyPointerFrameEv@Base 5.24.3-1
 _ZN14KWaylandServer13SeatInterface19notifyPointerButtonEN2Qt11MouseButtonENS_18PointerButtonStateE@Base 5.24.3-1
 _ZN14KWaylandServer13SeatInterface19notifyPointerButtonEjNS_18PointerButtonStateE@Base 5.24.3-1
 _ZN14KWaylandServer13SeatInterface19notifyPointerMotionERK7QPointF@Base 5.24.3-1
 _ZN14KWaylandServer13SeatInterface19setPrimarySelectionEPNS_18AbstractDataSourceE@Base 5.24.3-1
 _ZN14KWaylandServer13SeatInterface21endPointerHoldGestureEv@Base 5.24.3-1
 _ZN14KWaylandServer13SeatInterface21relativePointerMotionERK6QSizeFS3_y@Base 5.24.3-1
 _ZN14KWaylandServer13SeatInterface22endPointerPinchGestureEv@Base 5.24.3-1
 _ZN14KWaylandServer13SeatInterface22endPointerSwipeGestureEv@Base 5.24.3-1
 _ZN14KWaylandServer13SeatInterface22setFocusedTouchSurfaceEPNS_16SurfaceInterfaceERK7QPointF@Base 5.24.3-1
 _ZN14KWaylandServer13SeatInterface23notifyKeyboardModifiersEjjjj@Base 5.24.3-1
 _ZN14KWaylandServer13SeatInterface23primarySelectionChangedEPNS_18AbstractDataSourceE@Base 5.24.3-1
 _ZN14KWaylandServer13SeatInterface23startPointerHoldGestureEj@Base 5.24.3-1
 _ZN14KWaylandServer13SeatInterface24cancelPointerHoldGestureEv@Base 5.24.3-1
 _ZN14KWaylandServer13SeatInterface24setFocusedPointerSurfaceEPNS_16SurfaceInterfaceERK10QMatrix4x4@Base 5.24.3-1
 _ZN14KWaylandServer13SeatInterface24setFocusedPointerSurfaceEPNS_16SurfaceInterfaceERK7QPointF@Base 5.24.3-1
 _ZN14KWaylandServer13SeatInterface24startPointerPinchGestureEj@Base 5.24.3-1
 _ZN14KWaylandServer13SeatInterface24startPointerSwipeGestureEj@Base 5.24.3-1
 _ZN14KWaylandServer13SeatInterface25cancelPointerPinchGestureEv@Base 5.24.3-1
 _ZN14KWaylandServer13SeatInterface25cancelPointerSwipeGestureEv@Base 5.24.3-1
 _ZN14KWaylandServer13SeatInterface25notifyPointerAxisToClientEN2Qt11OrientationEiPNS_16SurfaceInterfaceE10QMatrix4x4@Base 5.24.3-1
 _ZN14KWaylandServer13SeatInterface25setFocusedKeyboardSurfaceEPNS_16SurfaceInterfaceE@Base 5.24.3-1
 _ZN14KWaylandServer13SeatInterface25updatePointerPinchGestureERK6QSizeFdd@Base 5.24.3-1
 _ZN14KWaylandServer13SeatInterface25updatePointerSwipeGestureERK6QSizeF@Base 5.24.3-1
 _ZN14KWaylandServer13SeatInterface26setFocusedTextInputSurfaceEPNS_16SurfaceInterfaceE@Base 5.24.3-1
 _ZN14KWaylandServer13SeatInterface30focusedTextInputSurfaceChangedEv@Base 5.24.3-1
 _ZN14KWaylandServer13SeatInterface30setFocusedTouchSurfacePositionERK7QPointF@Base 5.24.3-1
 _ZN14KWaylandServer13SeatInterface32setFocusedPointerSurfacePositionERK7QPointF@Base 5.24.3-1
 _ZN14KWaylandServer13SeatInterface38setFocusedPointerSurfaceTransformationERK10QMatrix4x4@Base 5.24.3-1
 _ZN14KWaylandServer13SeatInterface3getEP11wl_resource@Base 5.24.3-1
 _ZN14KWaylandServer13SeatInterface7setNameERK7QString@Base 5.24.3-1
 _ZN14KWaylandServer13SeatInterface9dragEndedEv@Base 5.24.3-1
 _ZN14KWaylandServer13SeatInterface9startDragEPNS_18AbstractDataSourceEPNS_16SurfaceInterfaceEiPNS_15DragAndDropIconE@Base 5.24.3-1
 _ZN14KWaylandServer13SeatInterfaceC1EPNS_7DisplayEP7QObject@Base 5.24.3-1
 _ZN14KWaylandServer13SeatInterfaceC2EPNS_7DisplayEP7QObject@Base 5.24.3-1
 _ZN14KWaylandServer13SeatInterfaceD0Ev@Base 5.24.3-1
 _ZN14KWaylandServer13SeatInterfaceD1Ev@Base 5.24.3-1
 _ZN14KWaylandServer13SeatInterfaceD2Ev@Base 5.24.3-1
 _ZN14KWaylandServer13XdgPositioner3getEP11wl_resource@Base 5.24.3-1
 _ZN14KWaylandServer13XdgPositionerC1ERK18QSharedDataPointerINS_17XdgPositionerDataEE@Base 5.24.3-1
 _ZN14KWaylandServer13XdgPositionerC1ERKS0_@Base 5.24.3-1
 _ZN14KWaylandServer13XdgPositionerC1Ev@Base 5.24.3-1
 _ZN14KWaylandServer13XdgPositionerC2ERK18QSharedDataPointerINS_17XdgPositionerDataEE@Base 5.24.3-1
 _ZN14KWaylandServer13XdgPositionerC2ERKS0_@Base 5.24.3-1
 _ZN14KWaylandServer13XdgPositionerC2Ev@Base 5.24.3-1
 _ZN14KWaylandServer13XdgPositionerD1Ev@Base 5.24.3-1
 _ZN14KWaylandServer13XdgPositionerD2Ev@Base 5.24.3-1
 _ZN14KWaylandServer13XdgPositioneraSERKS0_@Base 5.24.3-1
 _ZN14KWaylandServer14SlideInterface11qt_metacallEN11QMetaObject4CallEiPPv@Base 5.24.3-1
 _ZN14KWaylandServer14SlideInterface11qt_metacastEPKc@Base 5.24.3-1
 _ZN14KWaylandServer14SlideInterface16staticMetaObjectE@Base 5.24.3-1
 _ZN14KWaylandServer14SlideInterfaceC1EP11wl_resource@Base 5.24.3-1
 _ZN14KWaylandServer14SlideInterfaceC2EP11wl_resource@Base 5.24.3-1
 _ZN14KWaylandServer14SlideInterfaceD0Ev@Base 5.24.3-1
 _ZN14KWaylandServer14SlideInterfaceD1Ev@Base 5.24.3-1
 _ZN14KWaylandServer14SlideInterfaceD2Ev@Base 5.24.3-1
 _ZN14KWaylandServer14StrutInterface11qt_metacallEN11QMetaObject4CallEiPPv@Base 5.24.3-1
 _ZN14KWaylandServer14StrutInterface11qt_metacastEPKc@Base 5.24.3-1
 _ZN14KWaylandServer14StrutInterface16staticMetaObjectE@Base 5.24.3-1
 _ZN14KWaylandServer14StrutInterface3getEP11wl_resource@Base 5.24.3-1
 _ZN14KWaylandServer14StrutInterface8setStrutEPNS_16SurfaceInterfaceERNS_15deepinKwinStrutE@Base 5.24.3-1
 _ZN14KWaylandServer14StrutInterfaceC1EPNS_7DisplayEP7QObject@Base 5.24.3-1
 _ZN14KWaylandServer14StrutInterfaceC2EPNS_7DisplayEP7QObject@Base 5.24.3-1
 _ZN14KWaylandServer14StrutInterfaceD0Ev@Base 5.24.3-1
 _ZN14KWaylandServer14StrutInterfaceD1Ev@Base 5.24.3-1
 _ZN14KWaylandServer14StrutInterfaceD2Ev@Base 5.24.3-1
 _ZN14KWaylandServer14TabletCursorV211qt_metacallEN11QMetaObject4CallEiPPv@Base 5.24.3-1
 _ZN14KWaylandServer14TabletCursorV211qt_metacastEPKc@Base 5.24.3-1
 _ZN14KWaylandServer14TabletCursorV216staticMetaObjectE@Base 5.24.3-1
 _ZN14KWaylandServer14TabletCursorV27changedEv@Base 5.24.3-1
 _ZN14KWaylandServer14TabletCursorV2C1Ev@Base 5.24.3-1
 _ZN14KWaylandServer14TabletCursorV2C2Ev@Base 5.24.3-1
 _ZN14KWaylandServer14TabletCursorV2D0Ev@Base 5.24.3-1
 _ZN14KWaylandServer14TabletCursorV2D1Ev@Base 5.24.3-1
 _ZN14KWaylandServer14TabletCursorV2D2Ev@Base 5.24.3-1
 _ZN14KWaylandServer14TouchInterface10sendCancelEv@Base 5.24.3-1
 _ZN14KWaylandServer14TouchInterface10sendMotionEiRK7QPointF@Base 5.24.3-1
 _ZN14KWaylandServer14TouchInterface11qt_metacallEN11QMetaObject4CallEiPPv@Base 5.24.3-1
 _ZN14KWaylandServer14TouchInterface11qt_metacastEPKc@Base 5.24.3-1
 _ZN14KWaylandServer14TouchInterface16staticMetaObjectE@Base 5.24.3-1
 _ZN14KWaylandServer14TouchInterface17setFocusedSurfaceEPNS_16SurfaceInterfaceE@Base 5.24.3-1
 _ZN14KWaylandServer14TouchInterface6sendUpEij@Base 5.24.3-1
 _ZN14KWaylandServer14TouchInterface8sendDownEijRK7QPointF@Base 5.24.3-1
 _ZN14KWaylandServer14TouchInterface9sendFrameEv@Base 5.24.3-1
 _ZN14KWaylandServer14TouchInterfaceC1EPNS_13SeatInterfaceE@Base 5.24.3-1
 _ZN14KWaylandServer14TouchInterfaceC2EPNS_13SeatInterfaceE@Base 5.24.3-1
 _ZN14KWaylandServer14TouchInterfaceD0Ev@Base 5.24.3-1
 _ZN14KWaylandServer14TouchInterfaceD1Ev@Base 5.24.3-1
 _ZN14KWaylandServer14TouchInterfaceD2Ev@Base 5.24.3-1
 _ZN14KWaylandServer15DragAndDropIcon11qt_metacallEN11QMetaObject4CallEiPPv@Base 5.24.3-1
 _ZN14KWaylandServer15DragAndDropIcon11qt_metacastEPKc@Base 5.24.3-1
 _ZN14KWaylandServer15DragAndDropIcon16staticMetaObjectE@Base 5.24.3-1
 _ZN14KWaylandServer15DragAndDropIconC1EPNS_16SurfaceInterfaceE@Base 5.24.3-1
 _ZN14KWaylandServer15DragAndDropIconC2EPNS_16SurfaceInterfaceE@Base 5.24.3-1
 _ZN14KWaylandServer15DragAndDropIconD0Ev@Base 5.24.3-1
 _ZN14KWaylandServer15DragAndDropIconD1Ev@Base 5.24.3-1
 _ZN14KWaylandServer15DragAndDropIconD2Ev@Base 5.24.3-1
 _ZN14KWaylandServer15DrmClientBuffer11qt_metacallEN11QMetaObject4CallEiPPv@Base 5.24.3-1
 _ZN14KWaylandServer15DrmClientBuffer11qt_metacastEPKc@Base 5.24.3-1
 _ZN14KWaylandServer15DrmClientBuffer16staticMetaObjectE@Base 5.24.3-1
 _ZN14KWaylandServer15DrmClientBufferC1EP11wl_resourcePNS_26DrmClientBufferIntegrationE@Base 5.24.3-1
 _ZN14KWaylandServer15DrmClientBufferC2EP11wl_resourcePNS_26DrmClientBufferIntegrationE@Base 5.24.3-1
 _ZN14KWaylandServer15FakeInputDevice11qt_metacallEN11QMetaObject4CallEiPPv@Base 5.24.3-1
 _ZN14KWaylandServer15FakeInputDevice11qt_metacastEPKc@Base 5.24.3-1
 _ZN14KWaylandServer15FakeInputDevice16staticMetaObjectE@Base 5.24.3-1
 _ZN14KWaylandServer15FakeInputDevice16touchUpRequestedEj@Base 5.24.3-1
 _ZN14KWaylandServer15FakeInputDevice17setAuthenticationEb@Base 5.24.3-1
 _ZN14KWaylandServer15FakeInputDevice18touchDownRequestedEjRK7QPointF@Base 5.24.3-1
 _ZN14KWaylandServer15FakeInputDevice19touchFrameRequestedEv@Base 5.24.3-1
 _ZN14KWaylandServer15FakeInputDevice20pointerAxisRequestedEN2Qt11OrientationEd@Base 5.24.3-1
 _ZN14KWaylandServer15FakeInputDevice20touchCancelRequestedEv@Base 5.24.3-1
 _ZN14KWaylandServer15FakeInputDevice20touchMotionRequestedEjRK7QPointF@Base 5.24.3-1
 _ZN14KWaylandServer15FakeInputDevice22pointerMotionRequestedERK6QSizeF@Base 5.24.3-1
 _ZN14KWaylandServer15FakeInputDevice23authenticationRequestedERK7QStringS3_@Base 5.24.3-1
 _ZN14KWaylandServer15FakeInputDevice25keyboardKeyPressRequestedEj@Base 5.24.3-1
 _ZN14KWaylandServer15FakeInputDevice27keyboardKeyReleaseRequestedEj@Base 5.24.3-1
 _ZN14KWaylandServer15FakeInputDevice27pointerButtonPressRequestedEj@Base 5.24.3-1
 _ZN14KWaylandServer15FakeInputDevice29pointerButtonReleaseRequestedEj@Base 5.24.3-1
 _ZN14KWaylandServer15FakeInputDevice30pointerAxisRequestedForCaptureEN2Qt11OrientationEd@Base 5.24.3-1
 _ZN14KWaylandServer15FakeInputDevice30pointerMotionAbsoluteRequestedERK7QPointF@Base 5.24.3-1
 _ZN14KWaylandServer15FakeInputDevice8resourceEv@Base 5.24.3-1
 _ZN14KWaylandServer15FakeInputDeviceC1EPNS_18FakeInputInterfaceEP11wl_resource@Base 5.24.3-1
 _ZN14KWaylandServer15FakeInputDeviceC2EPNS_18FakeInputInterfaceEP11wl_resource@Base 5.24.3-1
 _ZN14KWaylandServer15FakeInputDeviceD0Ev@Base 5.24.3-1
 _ZN14KWaylandServer15FakeInputDeviceD1Ev@Base 5.24.3-1
 _ZN14KWaylandServer15FakeInputDeviceD2Ev@Base 5.24.3-1
 _ZN14KWaylandServer15FilteredDisplay11qt_metacallEN11QMetaObject4CallEiPPv@Base 5.24.3-1
 _ZN14KWaylandServer15FilteredDisplay11qt_metacastEPKc@Base 5.24.3-1
 _ZN14KWaylandServer15FilteredDisplay16staticMetaObjectE@Base 5.24.3-1
 _ZN14KWaylandServer15FilteredDisplayC1EP7QObject@Base 5.24.3-1
 _ZN14KWaylandServer15FilteredDisplayC2EP7QObject@Base 5.24.3-1
 _ZN14KWaylandServer15FilteredDisplayD0Ev@Base 5.24.3-1
 _ZN14KWaylandServer15FilteredDisplayD1Ev@Base 5.24.3-1
 _ZN14KWaylandServer15FilteredDisplayD2Ev@Base 5.24.3-1
 _ZN14KWaylandServer15OutputInterface11modeChangedEv@Base 5.24.3-1
 _ZN14KWaylandServer15OutputInterface11qt_metacallEN11QMetaObject4CallEiPPv@Base 5.24.3-1
 _ZN14KWaylandServer15OutputInterface11qt_metacastEPKc@Base 5.24.3-1
 _ZN14KWaylandServer15OutputInterface11setDpmsModeENS0_8DpmsModeE@Base 5.24.3-1
 _ZN14KWaylandServer15OutputInterface11setSubPixelENS0_8SubPixelE@Base 5.24.3-1
 _ZN14KWaylandServer15OutputInterface12modelChangedERK7QString@Base 5.24.3-1
 _ZN14KWaylandServer15OutputInterface12scaleChangedEi@Base 5.24.3-1
 _ZN14KWaylandServer15OutputInterface12setTransformENS0_9TransformE@Base 5.24.3-1
 _ZN14KWaylandServer15OutputInterface15dpmsModeChangedEv@Base 5.24.3-1
 _ZN14KWaylandServer15OutputInterface15setManufacturerERK7QString@Base 5.24.3-1
 _ZN14KWaylandServer15OutputInterface15setPhysicalSizeERK5QSize@Base 5.24.3-1
 _ZN14KWaylandServer15OutputInterface15subPixelChangedENS0_8SubPixelE@Base 5.24.3-1
 _ZN14KWaylandServer15OutputInterface16pixelSizeChangedERK5QSize@Base 5.24.3-1
 _ZN14KWaylandServer15OutputInterface16setDpmsSupportedEb@Base 5.24.3-1
 _ZN14KWaylandServer15OutputInterface16staticMetaObjectE@Base 5.24.3-1
 _ZN14KWaylandServer15OutputInterface16transformChangedENS0_9TransformE@Base 5.24.3-1
 _ZN14KWaylandServer15OutputInterface17dpmsModeRequestedENS0_8DpmsModeE@Base 5.24.3-1
 _ZN14KWaylandServer15OutputInterface17setGlobalPositionERK6QPoint@Base 5.24.3-1
 _ZN14KWaylandServer15OutputInterface18refreshRateChangedEi@Base 5.24.3-1
 _ZN14KWaylandServer15OutputInterface19manufacturerChangedERK7QString@Base 5.24.3-1
 _ZN14KWaylandServer15OutputInterface19physicalSizeChangedERK5QSize@Base 5.24.3-1
 _ZN14KWaylandServer15OutputInterface20dpmsSupportedChangedEv@Base 5.24.3-1
 _ZN14KWaylandServer15OutputInterface21globalPositionChangedERK6QPoint@Base 5.24.3-1
 _ZN14KWaylandServer15OutputInterface3getEP11wl_resource@Base 5.24.3-1
 _ZN14KWaylandServer15OutputInterface4doneEP9wl_client@Base 5.24.3-1
 _ZN14KWaylandServer15OutputInterface4doneEv@Base 5.24.3-1
 _ZN14KWaylandServer15OutputInterface5boundEPNS_16ClientConnectionEP11wl_resource@Base 5.24.3-1
 _ZN14KWaylandServer15OutputInterface6removeEv@Base 5.24.3-1
 _ZN14KWaylandServer15OutputInterface7removedEv@Base 5.24.3-1
 _ZN14KWaylandServer15OutputInterface7setModeERK5QSizei@Base 5.24.3-1
 _ZN14KWaylandServer15OutputInterface7setModeERKNS0_4ModeE@Base 5.24.3-1
 _ZN14KWaylandServer15OutputInterface8setModelERK7QString@Base 5.24.3-1
 _ZN14KWaylandServer15OutputInterface8setScaleEi@Base 5.24.3-1
 _ZN14KWaylandServer15OutputInterfaceC1EPNS_7DisplayEP7QObject@Base 5.24.3-1
 _ZN14KWaylandServer15OutputInterfaceC2EPNS_7DisplayEP7QObject@Base 5.24.3-1
 _ZN14KWaylandServer15OutputInterfaceD0Ev@Base 5.24.3-1
 _ZN14KWaylandServer15OutputInterfaceD1Ev@Base 5.24.3-1
 _ZN14KWaylandServer15OutputInterfaceD2Ev@Base 5.24.3-1
 _ZN14KWaylandServer15ShadowInterface11qt_metacallEN11QMetaObject4CallEiPPv@Base 5.24.3-1
 _ZN14KWaylandServer15ShadowInterface11qt_metacastEPKc@Base 5.24.3-1
 _ZN14KWaylandServer15ShadowInterface16staticMetaObjectE@Base 5.24.3-1
 _ZN14KWaylandServer15ShadowInterfaceC1EPNS_22ShadowManagerInterfaceEP11wl_resource@Base 5.24.3-1
 _ZN14KWaylandServer15ShadowInterfaceC2EPNS_22ShadowManagerInterfaceEP11wl_resource@Base 5.24.3-1
 _ZN14KWaylandServer15ShadowInterfaceD0Ev@Base 5.24.3-1
 _ZN14KWaylandServer15ShadowInterfaceD1Ev@Base 5.24.3-1
 _ZN14KWaylandServer15ShadowInterfaceD2Ev@Base 5.24.3-1
 _ZN14KWaylandServer15ShmClientBuffer11qt_metacallEN11QMetaObject4CallEiPPv@Base 5.24.3-1
 _ZN14KWaylandServer15ShmClientBuffer11qt_metacastEPKc@Base 5.24.3-1
 _ZN14KWaylandServer15ShmClientBuffer16staticMetaObjectE@Base 5.24.3-1
 _ZN14KWaylandServer15ShmClientBufferC1EP11wl_resource@Base 5.24.3-1
 _ZN14KWaylandServer15ShmClientBufferC2EP11wl_resource@Base 5.24.3-1
 _ZN14KWaylandServer16AppMenuInterface11qt_metacallEN11QMetaObject4CallEiPPv@Base 5.24.3-1
 _ZN14KWaylandServer16AppMenuInterface11qt_metacastEPKc@Base 5.24.3-1
 _ZN14KWaylandServer16AppMenuInterface14addressChangedENS0_16InterfaceAddressE@Base 5.24.3-1
 _ZN14KWaylandServer16AppMenuInterface16staticMetaObjectE@Base 5.24.3-1
 _ZN14KWaylandServer16AppMenuInterfaceC1EPNS_16SurfaceInterfaceEP11wl_resource@Base 5.24.3-1
 _ZN14KWaylandServer16AppMenuInterfaceC2EPNS_16SurfaceInterfaceEP11wl_resource@Base 5.24.3-1
 _ZN14KWaylandServer16AppMenuInterfaceD0Ev@Base 5.24.3-1
 _ZN14KWaylandServer16AppMenuInterfaceD1Ev@Base 5.24.3-1
 _ZN14KWaylandServer16AppMenuInterfaceD2Ev@Base 5.24.3-1
 _ZN14KWaylandServer16ClientConnection11qt_metacallEN11QMetaObject4CallEiPPv@Base 5.24.3-1
 _ZN14KWaylandServer16ClientConnection11qt_metacastEPKc@Base 5.24.3-1
 _ZN14KWaylandServer16ClientConnection12disconnectedEPS0_@Base 5.24.3-1
 _ZN14KWaylandServer16ClientConnection16staticMetaObjectE@Base 5.24.3-1
 _ZN14KWaylandServer16ClientConnection18aboutToBeDestroyedEv@Base 5.24.3-1
 _ZN14KWaylandServer16ClientConnection5flushEv@Base 5.24.3-1
 _ZN14KWaylandServer16ClientConnection7destroyEv@Base 5.24.3-1
 _ZN14KWaylandServer16ClientConnectionC1EP9wl_clientPNS_7DisplayE@Base 5.24.3-1
 _ZN14KWaylandServer16ClientConnectionC2EP9wl_clientPNS_7DisplayE@Base 5.24.3-1
 _ZN14KWaylandServer16ClientConnectionD0Ev@Base 5.24.3-1
 _ZN14KWaylandServer16ClientConnectionD1Ev@Base 5.24.3-1
 _ZN14KWaylandServer16ClientConnectionD2Ev@Base 5.24.3-1
 _ZN14KWaylandServer16ClientConnectioncvP9wl_clientEv@Base 5.24.3-1
 _ZN14KWaylandServer16DDESeatInterface10keyPressedEj@Base 5.24.3-1
 _ZN14KWaylandServer16DDESeatInterface11keyReleasedEj@Base 5.24.3-1
 _ZN14KWaylandServer16DDESeatInterface11pointerAxisEN2Qt11OrientationEi@Base 5.24.3-1
 _ZN14KWaylandServer16DDESeatInterface11qt_metacallEN11QMetaObject4CallEiPPv@Base 5.24.3-1
 _ZN14KWaylandServer16DDESeatInterface11qt_metacastEPKc@Base 5.24.3-1
 _ZN14KWaylandServer16DDESeatInterface11setHasTouchEb@Base 5.24.3-1
 _ZN14KWaylandServer16DDESeatInterface11touchMotionEiRK7QPointF@Base 5.24.3-1
 _ZN14KWaylandServer16DDESeatInterface12setTimestampEj@Base 5.24.3-1
 _ZN14KWaylandServer16DDESeatInterface13setHasPointerEb@Base 5.24.3-1
 _ZN14KWaylandServer16DDESeatInterface13setPointerPosERK7QPointF@Base 5.24.3-1
 _ZN14KWaylandServer16DDESeatInterface14setHasKeyboardEb@Base 5.24.3-1
 _ZN14KWaylandServer16DDESeatInterface15ddeTouchCreatedEPNS_17DDETouchInterfaceE@Base 5.24.3-1
 _ZN14KWaylandServer16DDESeatInterface16staticMetaObjectE@Base 5.24.3-1
 _ZN14KWaylandServer16DDESeatInterface17ddePointerCreatedEPNS_19DDEPointerInterfaceE@Base 5.24.3-1
 _ZN14KWaylandServer16DDESeatInterface17pointerPosChangedERK7QPointF@Base 5.24.3-1
 _ZN14KWaylandServer16DDESeatInterface17setTouchTimestampEj@Base 5.24.3-1
 _ZN14KWaylandServer16DDESeatInterface18ddeKeyboardCreatedEPNS_20DDEKeyboardInterfaceE@Base 5.24.3-1
 _ZN14KWaylandServer16DDESeatInterface20pointerButtonPressedEj@Base 5.24.3-1
 _ZN14KWaylandServer16DDESeatInterface21pointerButtonReleasedEj@Base 5.24.3-1
 _ZN14KWaylandServer16DDESeatInterface23updateKeyboardModifiersEjjjj@Base 5.24.3-1
 _ZN14KWaylandServer16DDESeatInterface3getEP11wl_resource@Base 5.24.3-1
 _ZN14KWaylandServer16DDESeatInterface7touchUpEi@Base 5.24.3-1
 _ZN14KWaylandServer16DDESeatInterface9setKeymapEij@Base 5.24.3-1
 _ZN14KWaylandServer16DDESeatInterface9touchDownEiRK7QPointF@Base 5.24.3-1
 _ZN14KWaylandServer16DDESeatInterfaceC1EPNS_7DisplayEP7QObject@Base 5.24.3-1
 _ZN14KWaylandServer16DDESeatInterfaceC2EPNS_7DisplayEP7QObject@Base 5.24.3-1
 _ZN14KWaylandServer16DDESeatInterfaceD0Ev@Base 5.24.3-1
 _ZN14KWaylandServer16DDESeatInterfaceD1Ev@Base 5.24.3-1
 _ZN14KWaylandServer16DDESeatInterfaceD2Ev@Base 5.24.3-1
 _ZN14KWaylandServer16PointerInterface10sendButtonEjNS_18PointerButtonStateEj@Base 5.24.3-1
 _ZN14KWaylandServer16PointerInterface10sendMotionERK7QPointF@Base 5.24.3-1
 _ZN14KWaylandServer16PointerInterface11qt_metacallEN11QMetaObject4CallEiPPv@Base 5.24.3-1
 _ZN14KWaylandServer16PointerInterface11qt_metacastEPKc@Base 5.24.3-1
 _ZN14KWaylandServer16PointerInterface13cursorChangedEv@Base 5.24.3-1
 _ZN14KWaylandServer16PointerInterface16staticMetaObjectE@Base 5.24.3-1
 _ZN14KWaylandServer16PointerInterface17setFocusedSurfaceEPNS_16SurfaceInterfaceERK7QPointFj@Base 5.24.3-1
 _ZN14KWaylandServer16PointerInterface21focusedSurfaceChangedEv@Base 5.24.3-1
 _ZN14KWaylandServer16PointerInterface3getEP11wl_resource@Base 5.24.3-1
 _ZN14KWaylandServer16PointerInterface8sendAxisEN2Qt11OrientationEdiNS_17PointerAxisSourceE@Base 5.24.3-1
 _ZN14KWaylandServer16PointerInterface9sendFrameEv@Base 5.24.3-1
 _ZN14KWaylandServer16PointerInterfaceC1EPNS_13SeatInterfaceE@Base 5.24.3-1
 _ZN14KWaylandServer16PointerInterfaceC2EPNS_13SeatInterfaceE@Base 5.24.3-1
 _ZN14KWaylandServer16PointerInterfaceD0Ev@Base 5.24.3-1
 _ZN14KWaylandServer16PointerInterfaceD1Ev@Base 5.24.3-1
 _ZN14KWaylandServer16PointerInterfaceD2Ev@Base 5.24.3-1
 _ZN14KWaylandServer16SurfaceInterface10setOutputsERK7QVectorIPNS_15OutputInterfaceEE@Base 5.24.3-1
 _ZN14KWaylandServer16SurfaceInterface11blurChangedEv@Base 5.24.3-1
 _ZN14KWaylandServer16SurfaceInterface11qt_metacallEN11QMetaObject4CallEiPPv@Base 5.24.3-1
 _ZN14KWaylandServer16SurfaceInterface11qt_metacastEPKc@Base 5.24.3-1
 _ZN14KWaylandServer16SurfaceInterface11sizeChangedEv@Base 5.24.3-1
 _ZN14KWaylandServer16SurfaceInterface12inputChangedERK7QRegion@Base 5.24.3-1
 _ZN14KWaylandServer16SurfaceInterface13frameRenderedEj@Base 5.24.3-1
 _ZN14KWaylandServer16SurfaceInterface13opaqueChangedERK7QRegion@Base 5.24.3-1
 _ZN14KWaylandServer16SurfaceInterface13shadowChangedEv@Base 5.24.3-1
 _ZN14KWaylandServer16SurfaceInterface14inputSurfaceAtERK7QPointF@Base 5.24.3-1
 _ZN14KWaylandServer16SurfaceInterface15contrastChangedEv@Base 5.24.3-1
 _ZN14KWaylandServer16SurfaceInterface16staticMetaObjectE@Base 5.24.3-1
 _ZN14KWaylandServer16SurfaceInterface17bufferSizeChangedEv@Base 5.24.3-1
 _ZN14KWaylandServer16SurfaceInterface18aboutToBeDestroyedEv@Base 5.24.3-1
 _ZN14KWaylandServer16SurfaceInterface18bufferScaleChangedEi@Base 5.24.3-1
 _ZN14KWaylandServer16SurfaceInterface19inhibitsIdleChangedEv@Base 5.24.3-1
 _ZN14KWaylandServer16SurfaceInterface20childSubSurfaceAddedEPNS_19SubSurfaceInterfaceE@Base 5.24.3-1
 _ZN14KWaylandServer16SurfaceInterface22bufferTransformChangedENS_15OutputInterface9TransformE@Base 5.24.3-1
 _ZN14KWaylandServer16SurfaceInterface22childSubSurfaceRemovedEPNS_19SubSurfaceInterfaceE@Base 5.24.3-1
 _ZN14KWaylandServer16SurfaceInterface22slideOnShowHideChangedEv@Base 5.24.3-1
 _ZN14KWaylandServer16SurfaceInterface23childSubSurfacesChangedEv@Base 5.24.3-1
 _ZN14KWaylandServer16SurfaceInterface25pointerConstraintsChangedEv@Base 5.24.3-1
 _ZN14KWaylandServer16SurfaceInterface28surfaceToBufferMatrixChangedEv@Base 5.24.3-1
 _ZN14KWaylandServer16SurfaceInterface3getEP11wl_resource@Base 5.24.3-1
 _ZN14KWaylandServer16SurfaceInterface3getEjPKNS_16ClientConnectionE@Base 5.24.3-1
 _ZN14KWaylandServer16SurfaceInterface6mappedEv@Base 5.24.3-1
 _ZN14KWaylandServer16SurfaceInterface7damagedERK7QRegion@Base 5.24.3-1
 _ZN14KWaylandServer16SurfaceInterface8unmappedEv@Base 5.24.3-1
 _ZN14KWaylandServer16SurfaceInterface9committedEv@Base 5.24.3-1
 _ZN14KWaylandServer16SurfaceInterface9surfaceAtERK7QPointF@Base 5.24.3-1
 _ZN14KWaylandServer16SurfaceInterfaceC1EPNS_19CompositorInterfaceEP11wl_resource@Base 5.24.3-1
 _ZN14KWaylandServer16SurfaceInterfaceC2EPNS_19CompositorInterfaceEP11wl_resource@Base 5.24.3-1
 _ZN14KWaylandServer16SurfaceInterfaceD0Ev@Base 5.24.3-1
 _ZN14KWaylandServer16SurfaceInterfaceD1Ev@Base 5.24.3-1
 _ZN14KWaylandServer16SurfaceInterfaceD2Ev@Base 5.24.3-1
 _ZN14KWaylandServer16staticMetaObjectE@Base 5.24.3-1
 _ZN14KWaylandServer17ContrastInterface11qt_metacallEN11QMetaObject4CallEiPPv@Base 5.24.3-1
 _ZN14KWaylandServer17ContrastInterface11qt_metacastEPKc@Base 5.24.3-1
 _ZN14KWaylandServer17ContrastInterface16staticMetaObjectE@Base 5.24.3-1
 _ZN14KWaylandServer17ContrastInterfaceC1EP11wl_resource@Base 5.24.3-1
 _ZN14KWaylandServer17ContrastInterfaceC2EP11wl_resource@Base 5.24.3-1
 _ZN14KWaylandServer17ContrastInterfaceD0Ev@Base 5.24.3-1
 _ZN14KWaylandServer17ContrastInterfaceD1Ev@Base 5.24.3-1
 _ZN14KWaylandServer17ContrastInterfaceD2Ev@Base 5.24.3-1
 _ZN14KWaylandServer17DDEShellInterface11qt_metacallEN11QMetaObject4CallEiPPv@Base 5.24.3-1
 _ZN14KWaylandServer17DDEShellInterface11qt_metacastEPKc@Base 5.24.3-1
 _ZN14KWaylandServer17DDEShellInterface16staticMetaObjectE@Base 5.24.3-1
 _ZN14KWaylandServer17DDEShellInterface19shellSurfaceCreatedEPNS_24DDEShellSurfaceInterfaceE@Base 5.24.3-1
 _ZN14KWaylandServer17DDEShellInterfaceC1EPNS_7DisplayEP7QObject@Base 5.24.3-1
 _ZN14KWaylandServer17DDEShellInterfaceC2EPNS_7DisplayEP7QObject@Base 5.24.3-1
 _ZN14KWaylandServer17DDEShellInterfaceD0Ev@Base 5.24.3-1
 _ZN14KWaylandServer17DDEShellInterfaceD1Ev@Base 5.24.3-1
 _ZN14KWaylandServer17DDEShellInterfaceD2Ev@Base 5.24.3-1
 _ZN14KWaylandServer17DDETouchInterface11qt_metacallEN11QMetaObject4CallEiPPv@Base 5.24.3-1
 _ZN14KWaylandServer17DDETouchInterface11qt_metacastEPKc@Base 5.24.3-1
 _ZN14KWaylandServer17DDETouchInterface11touchMotionEiRK7QPointF@Base 5.24.3-1
 _ZN14KWaylandServer17DDETouchInterface16staticMetaObjectE@Base 5.24.3-1
 _ZN14KWaylandServer17DDETouchInterface3getEP11wl_resource@Base 5.24.3-1
 _ZN14KWaylandServer17DDETouchInterface7touchUpEi@Base 5.24.3-1
 _ZN14KWaylandServer17DDETouchInterface9touchDownEiRK7QPointF@Base 5.24.3-1
 _ZN14KWaylandServer17DDETouchInterfaceC1EPNS_16DDESeatInterfaceEP11wl_resource@Base 5.24.3-1
 _ZN14KWaylandServer17DDETouchInterfaceC2EPNS_16DDESeatInterfaceEP11wl_resource@Base 5.24.3-1
 _ZN14KWaylandServer17DDETouchInterfaceD0Ev@Base 5.24.3-1
 _ZN14KWaylandServer17DDETouchInterfaceD1Ev@Base 5.24.3-1
 _ZN14KWaylandServer17DDETouchInterfaceD2Ev@Base 5.24.3-1
 _ZN14KWaylandServer17InputMethodGrabV110sendKeymapERK10QByteArray@Base 5.24.3-1
 _ZN14KWaylandServer17InputMethodGrabV111qt_metacallEN11QMetaObject4CallEiPPv@Base 5.24.3-1
 _ZN14KWaylandServer17InputMethodGrabV111qt_metacastEPKc@Base 5.24.3-1
 _ZN14KWaylandServer17InputMethodGrabV113sendModifiersEjjjjj@Base 5.24.3-1
 _ZN14KWaylandServer17InputMethodGrabV116staticMetaObjectE@Base 5.24.3-1
 _ZN14KWaylandServer17InputMethodGrabV17sendKeyEjjjNS_16KeyboardKeyStateE@Base 5.24.3-1
 _ZN14KWaylandServer17InputMethodGrabV1C1EP7QObject@Base 5.24.3-1
 _ZN14KWaylandServer17InputMethodGrabV1C2EP7QObject@Base 5.24.3-1
 _ZN14KWaylandServer17InputMethodGrabV1D0Ev@Base 5.24.3-1
 _ZN14KWaylandServer17InputMethodGrabV1D1Ev@Base 5.24.3-1
 _ZN14KWaylandServer17InputMethodGrabV1D2Ev@Base 5.24.3-1
 _ZN14KWaylandServer17KeyStateInterface11qt_metacallEN11QMetaObject4CallEiPPv@Base 5.24.3-1
 _ZN14KWaylandServer17KeyStateInterface11qt_metacastEPKc@Base 5.24.3-1
 _ZN14KWaylandServer17KeyStateInterface16staticMetaObjectE@Base 5.24.3-1
 _ZN14KWaylandServer17KeyStateInterface8setStateENS0_3KeyENS0_5StateE@Base 5.24.3-1
 _ZN14KWaylandServer17KeyStateInterfaceC1EPNS_7DisplayEP7QObject@Base 5.24.3-1
 _ZN14KWaylandServer17KeyStateInterfaceC2EPNS_7DisplayEP7QObject@Base 5.24.3-1
 _ZN14KWaylandServer17KeyStateInterfaceD0Ev@Base 5.24.3-1
 _ZN14KWaylandServer17KeyStateInterfaceD1Ev@Base 5.24.3-1
 _ZN14KWaylandServer17KeyStateInterfaceD2Ev@Base 5.24.3-1
 _ZN14KWaylandServer17KeyboardInterface11qt_metacallEN11QMetaObject4CallEiPPv@Base 5.24.3-1
 _ZN14KWaylandServer17KeyboardInterface11qt_metacastEPKc@Base 5.24.3-1
 _ZN14KWaylandServer17KeyboardInterface13sendModifiersEjjjj@Base 5.24.3-1
 _ZN14KWaylandServer17KeyboardInterface13setRepeatInfoEii@Base 5.24.3-1
 _ZN14KWaylandServer17KeyboardInterface16staticMetaObjectE@Base 5.24.3-1
 _ZN14KWaylandServer17KeyboardInterface17setFocusedSurfaceEPNS_16SurfaceInterfaceEj@Base 5.24.3-1
 _ZN14KWaylandServer17KeyboardInterface7sendKeyEjNS_16KeyboardKeyStateE@Base 5.24.3-1
 _ZN14KWaylandServer17KeyboardInterface9setKeymapERK10QByteArray@Base 5.24.3-1
 _ZN14KWaylandServer17KeyboardInterfaceC1EPNS_13SeatInterfaceE@Base 5.24.3-1
 _ZN14KWaylandServer17KeyboardInterfaceC2EPNS_13SeatInterfaceE@Base 5.24.3-1
 _ZN14KWaylandServer17KeyboardInterfaceD0Ev@Base 5.24.3-1
 _ZN14KWaylandServer17KeyboardInterfaceD1Ev@Base 5.24.3-1
 _ZN14KWaylandServer17KeyboardInterfaceD2Ev@Base 5.24.3-1
 _ZN14KWaylandServer17OutputChangeSetV211qt_metacallEN11QMetaObject4CallEiPPv@Base 5.24.3-1
 _ZN14KWaylandServer17OutputChangeSetV211qt_metacastEPKc@Base 5.24.3-1
 _ZN14KWaylandServer17OutputChangeSetV216staticMetaObjectE@Base 5.24.3-1
 _ZN14KWaylandServer17OutputChangeSetV2C1EPNS_23OutputDeviceV2InterfaceEP7QObject@Base 5.24.3-1
 _ZN14KWaylandServer17OutputChangeSetV2C2EPNS_23OutputDeviceV2InterfaceEP7QObject@Base 5.24.3-1
 _ZN14KWaylandServer17OutputChangeSetV2D0Ev@Base 5.24.3-1
 _ZN14KWaylandServer17OutputChangeSetV2D1Ev@Base 5.24.3-1
 _ZN14KWaylandServer17OutputChangeSetV2D2Ev@Base 5.24.3-1
 _ZN14KWaylandServer17TabletV2Interface11qt_metacallEN11QMetaObject4CallEiPPv@Base 5.24.3-1
 _ZN14KWaylandServer17TabletV2Interface11qt_metacastEPKc@Base 5.24.3-1
 _ZN14KWaylandServer17TabletV2Interface16staticMetaObjectE@Base 5.24.3-1
 _ZN14KWaylandServer17TabletV2InterfaceC1EjjRK7QStringRK11QStringListP7QObject@Base 5.24.3-1
 _ZN14KWaylandServer17TabletV2InterfaceC2EjjRK7QStringRK11QStringListP7QObject@Base 5.24.3-1
 _ZN14KWaylandServer17TabletV2InterfaceD0Ev@Base 5.24.3-1
 _ZN14KWaylandServer17TabletV2InterfaceD1Ev@Base 5.24.3-1
 _ZN14KWaylandServer17TabletV2InterfaceD2Ev@Base 5.24.3-1
 _ZN14KWaylandServer17XdgPopupInterface11qt_metacallEN11QMetaObject4CallEiPPv@Base 5.24.3-1
 _ZN14KWaylandServer17XdgPopupInterface11qt_metacastEPKc@Base 5.24.3-1
 _ZN14KWaylandServer17XdgPopupInterface13grabRequestedEPNS_13SeatInterfaceEj@Base 5.24.3-1
 _ZN14KWaylandServer17XdgPopupInterface13sendConfigureERK5QRect@Base 5.24.3-1
 _ZN14KWaylandServer17XdgPopupInterface13sendPopupDoneEv@Base 5.24.3-1
 _ZN14KWaylandServer17XdgPopupInterface16sendRepositionedEj@Base 5.24.3-1
 _ZN14KWaylandServer17XdgPopupInterface16staticMetaObjectE@Base 5.24.3-1
 _ZN14KWaylandServer17XdgPopupInterface18aboutToBeDestroyedEv@Base 5.24.3-1
 _ZN14KWaylandServer17XdgPopupInterface19initializeRequestedEv@Base 5.24.3-1
 _ZN14KWaylandServer17XdgPopupInterface19repositionRequestedEj@Base 5.24.3-1
 _ZN14KWaylandServer17XdgPopupInterface3getEP11wl_resource@Base 5.24.3-1
 _ZN14KWaylandServer17XdgPopupInterfaceC1EPNS_19XdgSurfaceInterfaceEPNS_16SurfaceInterfaceERKNS_13XdgPositionerEP11wl_resource@Base 5.24.3-1
 _ZN14KWaylandServer17XdgPopupInterfaceC2EPNS_19XdgSurfaceInterfaceEPNS_16SurfaceInterfaceERKNS_13XdgPositionerEP11wl_resource@Base 5.24.3-1
 _ZN14KWaylandServer17XdgPopupInterfaceD0Ev@Base 5.24.3-1
 _ZN14KWaylandServer17XdgPopupInterfaceD1Ev@Base 5.24.3-1
 _ZN14KWaylandServer17XdgPopupInterfaceD2Ev@Base 5.24.3-1
 _ZN14KWaylandServer17XdgShellInterface11pingDelayedEj@Base 5.24.3-1
 _ZN14KWaylandServer17XdgShellInterface11pingTimeoutEj@Base 5.24.3-1
 _ZN14KWaylandServer17XdgShellInterface11qt_metacallEN11QMetaObject4CallEiPPv@Base 5.24.3-1
 _ZN14KWaylandServer17XdgShellInterface11qt_metacastEPKc@Base 5.24.3-1
 _ZN14KWaylandServer17XdgShellInterface12pongReceivedEj@Base 5.24.3-1
 _ZN14KWaylandServer17XdgShellInterface12popupCreatedEPNS_17XdgPopupInterfaceE@Base 5.24.3-1
 _ZN14KWaylandServer17XdgShellInterface15toplevelCreatedEPNS_20XdgToplevelInterfaceE@Base 5.24.3-1
 _ZN14KWaylandServer17XdgShellInterface16staticMetaObjectE@Base 5.24.3-1
 _ZN14KWaylandServer17XdgShellInterface4pingEPNS_19XdgSurfaceInterfaceE@Base 5.24.3-1
 _ZN14KWaylandServer17XdgShellInterfaceC1EPNS_7DisplayEP7QObject@Base 5.24.3-1
 _ZN14KWaylandServer17XdgShellInterfaceC2EPNS_7DisplayEP7QObject@Base 5.24.3-1
 _ZN14KWaylandServer17XdgShellInterfaceD0Ev@Base 5.24.3-1
 _ZN14KWaylandServer17XdgShellInterfaceD1Ev@Base 5.24.3-1
 _ZN14KWaylandServer17XdgShellInterfaceD2Ev@Base 5.24.3-1
 _ZN14KWaylandServer18AbstractDataSource11qt_metacallEN11QMetaObject4CallEiPPv@Base 5.24.3-1
 _ZN14KWaylandServer18AbstractDataSource11qt_metacastEPKc@Base 5.24.3-1
 _ZN14KWaylandServer18AbstractDataSource15mimeTypeOfferedERK7QString@Base 5.24.3-1
 _ZN14KWaylandServer18AbstractDataSource16staticMetaObjectE@Base 5.24.3-1
 _ZN14KWaylandServer18AbstractDataSource18aboutToBeDestroyedEv@Base 5.24.3-1
 _ZN14KWaylandServer18AbstractDataSource34supportedDragAndDropActionsChangedEv@Base 5.24.3-1
 _ZN14KWaylandServer18AbstractDataSourceC1EP7QObject@Base 5.24.3-1
 _ZN14KWaylandServer18AbstractDataSourceC2EP7QObject@Base 5.24.3-1
 _ZN14KWaylandServer18DataOfferInterface11qt_metacallEN11QMetaObject4CallEiPPv@Base 5.24.3-1
 _ZN14KWaylandServer18DataOfferInterface11qt_metacastEPKc@Base 5.24.3-1
 _ZN14KWaylandServer18DataOfferInterface13sendAllOffersEv@Base 5.24.3-1
 _ZN14KWaylandServer18DataOfferInterface16staticMetaObjectE@Base 5.24.3-1
 _ZN14KWaylandServer18DataOfferInterface17sendSourceActionsEv@Base 5.24.3-1
 _ZN14KWaylandServer18DataOfferInterface25dragAndDropActionsChangedEv@Base 5.24.3-1
 _ZN14KWaylandServer18DataOfferInterface9dndActionENS_26DataDeviceManagerInterface9DnDActionE@Base 5.24.3-1
 _ZN14KWaylandServer18DataOfferInterfaceC1EPNS_18AbstractDataSourceEP11wl_resource@Base 5.24.3-1
 _ZN14KWaylandServer18DataOfferInterfaceC2EPNS_18AbstractDataSourceEP11wl_resource@Base 5.24.3-1
 _ZN14KWaylandServer18DataOfferInterfaceD0Ev@Base 5.24.3-1
 _ZN14KWaylandServer18DataOfferInterfaceD1Ev@Base 5.24.3-1
 _ZN14KWaylandServer18DataOfferInterfaceD2Ev@Base 5.24.3-1
 _ZN14KWaylandServer18FakeInputInterface11qt_metacallEN11QMetaObject4CallEiPPv@Base 5.24.3-1
 _ZN14KWaylandServer18FakeInputInterface11qt_metacastEPKc@Base 5.24.3-1
 _ZN14KWaylandServer18FakeInputInterface13deviceCreatedEPNS_15FakeInputDeviceE@Base 5.24.3-1
 _ZN14KWaylandServer18FakeInputInterface16staticMetaObjectE@Base 5.24.3-1
 _ZN14KWaylandServer18FakeInputInterfaceC1EPNS_7DisplayEP7QObject@Base 5.24.3-1
 _ZN14KWaylandServer18FakeInputInterfaceC2EPNS_7DisplayEP7QObject@Base 5.24.3-1
 _ZN14KWaylandServer18FakeInputInterfaceD0Ev@Base 5.24.3-1
 _ZN14KWaylandServer18FakeInputInterfaceD1Ev@Base 5.24.3-1
 _ZN14KWaylandServer18FakeInputInterfaceD2Ev@Base 5.24.3-1
 _ZN14KWaylandServer19AbstractDropHandler11qt_metacallEN11QMetaObject4CallEiPPv@Base 5.24.3-1
 _ZN14KWaylandServer19AbstractDropHandler11qt_metacastEPKc@Base 5.24.3-1
 _ZN14KWaylandServer19AbstractDropHandler16staticMetaObjectE@Base 5.24.3-1
 _ZN14KWaylandServer19AbstractDropHandlerC1EP7QObject@Base 5.24.3-1
 _ZN14KWaylandServer19AbstractDropHandlerC2EP7QObject@Base 5.24.3-1
 _ZN14KWaylandServer19CompositorInterface11qt_metacallEN11QMetaObject4CallEiPPv@Base 5.24.3-1
 _ZN14KWaylandServer19CompositorInterface11qt_metacastEPKc@Base 5.24.3-1
 _ZN14KWaylandServer19CompositorInterface14surfaceCreatedEPNS_16SurfaceInterfaceE@Base 5.24.3-1
 _ZN14KWaylandServer19CompositorInterface16staticMetaObjectE@Base 5.24.3-1
 _ZN14KWaylandServer19CompositorInterfaceC1EPNS_7DisplayEP7QObject@Base 5.24.3-1
 _ZN14KWaylandServer19CompositorInterfaceC2EPNS_7DisplayEP7QObject@Base 5.24.3-1
 _ZN14KWaylandServer19CompositorInterfaceD0Ev@Base 5.24.3-1
 _ZN14KWaylandServer19CompositorInterfaceD1Ev@Base 5.24.3-1
 _ZN14KWaylandServer19CompositorInterfaceD2Ev@Base 5.24.3-1
 _ZN14KWaylandServer19DDEPointerInterface10sendMotionERK7QPointF@Base 5.24.3-1
 _ZN14KWaylandServer19DDEPointerInterface11qt_metacallEN11QMetaObject4CallEiPPv@Base 5.24.3-1
 _ZN14KWaylandServer19DDEPointerInterface11qt_metacastEPKc@Base 5.24.3-1
 _ZN14KWaylandServer19DDEPointerInterface13buttonPressedEj@Base 5.24.3-1
 _ZN14KWaylandServer19DDEPointerInterface14buttonReleasedEj@Base 5.24.3-1
 _ZN14KWaylandServer19DDEPointerInterface16staticMetaObjectE@Base 5.24.3-1
 _ZN14KWaylandServer19DDEPointerInterface4axisEN2Qt11OrientationEi@Base 5.24.3-1
 _ZN14KWaylandServer19DDEPointerInterfaceC1EPNS_16DDESeatInterfaceEP11wl_resource@Base 5.24.3-1
 _ZN14KWaylandServer19DDEPointerInterfaceC2EPNS_16DDESeatInterfaceEP11wl_resource@Base 5.24.3-1
 _ZN14KWaylandServer19DDEPointerInterfaceD0Ev@Base 5.24.3-1
 _ZN14KWaylandServer19DDEPointerInterfaceD1Ev@Base 5.24.3-1
 _ZN14KWaylandServer19DDEPointerInterfaceD2Ev@Base 5.24.3-1
 _ZN14KWaylandServer19DataDeviceInterface11dragStartedEPNS_18AbstractDataSourceEPNS_16SurfaceInterfaceEjPNS_15DragAndDropIconE@Base 5.24.3-1
 _ZN14KWaylandServer19DataDeviceInterface11qt_metacallEN11QMetaObject4CallEiPPv@Base 5.24.3-1
 _ZN14KWaylandServer19DataDeviceInterface11qt_metacastEPKc@Base 5.24.3-1
 _ZN14KWaylandServer19DataDeviceInterface11updateProxyEPNS_16SurfaceInterfaceE@Base 5.24.3-1
 _ZN14KWaylandServer19DataDeviceInterface13sendSelectionEPNS_18AbstractDataSourceE@Base 5.24.3-1
 _ZN14KWaylandServer19DataDeviceInterface16selectionChangedEPNS_19DataSourceInterfaceE@Base 5.24.3-1
 _ZN14KWaylandServer19DataDeviceInterface16selectionClearedEv@Base 5.24.3-1
 _ZN14KWaylandServer19DataDeviceInterface16staticMetaObjectE@Base 5.24.3-1
 _ZN14KWaylandServer19DataDeviceInterface16updateDragTargetEPNS_16SurfaceInterfaceEj@Base 5.24.3-1
 _ZN14KWaylandServer19DataDeviceInterface18aboutToBeDestroyedEv@Base 5.24.3-1
 _ZN14KWaylandServer19DataDeviceInterface18sendClearSelectionEv@Base 5.24.3-1
 _ZN14KWaylandServer19DataDeviceInterface4dropEv@Base 5.24.3-1
 _ZN14KWaylandServer19DataDeviceInterface6clientEv@Base 5.24.3-1
 _ZN14KWaylandServer19DataDeviceInterfaceC1EPNS_13SeatInterfaceEP11wl_resource@Base 5.24.3-1
 _ZN14KWaylandServer19DataDeviceInterfaceC2EPNS_13SeatInterfaceEP11wl_resource@Base 5.24.3-1
 _ZN14KWaylandServer19DataDeviceInterfaceD0Ev@Base 5.24.3-1
 _ZN14KWaylandServer19DataDeviceInterfaceD1Ev@Base 5.24.3-1
 _ZN14KWaylandServer19DataDeviceInterfaceD2Ev@Base 5.24.3-1
 _ZN14KWaylandServer19DataSourceInterface11dndFinishedEv@Base 5.24.3-1
 _ZN14KWaylandServer19DataSourceInterface11qt_metacallEN11QMetaObject4CallEiPPv@Base 5.24.3-1
 _ZN14KWaylandServer19DataSourceInterface11qt_metacastEPKc@Base 5.24.3-1
 _ZN14KWaylandServer19DataSourceInterface11requestDataERK7QStringi@Base 5.24.3-1
 _ZN14KWaylandServer19DataSourceInterface11setAcceptedEb@Base 5.24.3-1
 _ZN14KWaylandServer19DataSourceInterface12dndCancelledEv@Base 5.24.3-1
 _ZN14KWaylandServer19DataSourceInterface13dropPerformedEv@Base 5.24.3-1
 _ZN14KWaylandServer19DataSourceInterface16staticMetaObjectE@Base 5.24.3-1
 _ZN14KWaylandServer19DataSourceInterface3getEP11wl_resource@Base 5.24.3-1
 _ZN14KWaylandServer19DataSourceInterface6acceptERK7QString@Base 5.24.3-1
 _ZN14KWaylandServer19DataSourceInterface6cancelEv@Base 5.24.3-1
 _ZN14KWaylandServer19DataSourceInterface9dndActionENS_26DataDeviceManagerInterface9DnDActionE@Base 5.24.3-1
 _ZN14KWaylandServer19DataSourceInterfaceC1EPNS_26DataDeviceManagerInterfaceEP11wl_resource@Base 5.24.3-1
 _ZN14KWaylandServer19DataSourceInterfaceC2EPNS_26DataDeviceManagerInterfaceEP11wl_resource@Base 5.24.3-1
 _ZN14KWaylandServer19DataSourceInterfaceD0Ev@Base 5.24.3-1
 _ZN14KWaylandServer19DataSourceInterfaceD1Ev@Base 5.24.3-1
 _ZN14KWaylandServer19DataSourceInterfaceD2Ev@Base 5.24.3-1
 _ZN14KWaylandServer19DrmLeaseV1Interface11qt_metacallEN11QMetaObject4CallEiPPv@Base 5.24.3-1
 _ZN14KWaylandServer19DrmLeaseV1Interface11qt_metacastEPKc@Base 5.24.3-1
 _ZN14KWaylandServer19DrmLeaseV1Interface16staticMetaObjectE@Base 5.24.3-1
 _ZN14KWaylandServer19DrmLeaseV1Interface4denyEv@Base 5.24.3-1
 _ZN14KWaylandServer19DrmLeaseV1Interface5grantEij@Base 5.24.3-1
 _ZN14KWaylandServer19DrmLeaseV1InterfaceC1EPNS_32DrmLeaseDeviceV1InterfacePrivateEP11wl_resource@Base 5.24.3-1
 _ZN14KWaylandServer19DrmLeaseV1InterfaceC2EPNS_32DrmLeaseDeviceV1InterfacePrivateEP11wl_resource@Base 5.24.3-1
 _ZN14KWaylandServer19DrmLeaseV1InterfaceD0Ev@Base 5.24.3-1
 _ZN14KWaylandServer19DrmLeaseV1InterfaceD1Ev@Base 5.24.3-1
 _ZN14KWaylandServer19DrmLeaseV1InterfaceD2Ev@Base 5.24.3-1
 _ZN14KWaylandServer19SubSurfaceInterface11modeChangedENS0_4ModeE@Base 5.24.3-1
 _ZN14KWaylandServer19SubSurfaceInterface11qt_metacallEN11QMetaObject4CallEiPPv@Base 5.24.3-1
 _ZN14KWaylandServer19SubSurfaceInterface11qt_metacastEPKc@Base 5.24.3-1
 _ZN14KWaylandServer19SubSurfaceInterface15positionChangedERK6QPoint@Base 5.24.3-1
 _ZN14KWaylandServer19SubSurfaceInterface16staticMetaObjectE@Base 5.24.3-1
 _ZN14KWaylandServer19SubSurfaceInterfaceC1EPNS_16SurfaceInterfaceES2_P11wl_resource@Base 5.24.3-1
 _ZN14KWaylandServer19SubSurfaceInterfaceC2EPNS_16SurfaceInterfaceES2_P11wl_resource@Base 5.24.3-1
 _ZN14KWaylandServer19SubSurfaceInterfaceD0Ev@Base 5.24.3-1
 _ZN14KWaylandServer19SubSurfaceInterfaceD1Ev@Base 5.24.3-1
 _ZN14KWaylandServer19SubSurfaceInterfaceD2Ev@Base 5.24.3-1
 _ZN14KWaylandServer19ViewporterInterface11qt_metacallEN11QMetaObject4CallEiPPv@Base 5.24.3-1
 _ZN14KWaylandServer19ViewporterInterface11qt_metacastEPKc@Base 5.24.3-1
 _ZN14KWaylandServer19ViewporterInterface16staticMetaObjectE@Base 5.24.3-1
 _ZN14KWaylandServer19ViewporterInterfaceC1EPNS_7DisplayEP7QObject@Base 5.24.3-1
 _ZN14KWaylandServer19ViewporterInterfaceC2EPNS_7DisplayEP7QObject@Base 5.24.3-1
 _ZN14KWaylandServer19ViewporterInterfaceD0Ev@Base 5.24.3-1
 _ZN14KWaylandServer19ViewporterInterfaceD1Ev@Base 5.24.3-1
 _ZN14KWaylandServer19ViewporterInterfaceD2Ev@Base 5.24.3-1
 _ZN14KWaylandServer19XdgSurfaceInterface11qt_metacallEN11QMetaObject4CallEiPPv@Base 5.24.3-1
 _ZN14KWaylandServer19XdgSurfaceInterface11qt_metacastEPKc@Base 5.24.3-1
 _ZN14KWaylandServer19XdgSurfaceInterface13resetOccurredEv@Base 5.24.3-1
 _ZN14KWaylandServer19XdgSurfaceInterface16staticMetaObjectE@Base 5.24.3-1
 _ZN14KWaylandServer19XdgSurfaceInterface18aboutToBeDestroyedEv@Base 5.24.3-1
 _ZN14KWaylandServer19XdgSurfaceInterface21configureAcknowledgedEj@Base 5.24.3-1
 _ZN14KWaylandServer19XdgSurfaceInterface21windowGeometryChangedERK5QRect@Base 5.24.3-1
 _ZN14KWaylandServer19XdgSurfaceInterface3getEP11wl_resource@Base 5.24.3-1
 _ZN14KWaylandServer19XdgSurfaceInterfaceC1EPNS_17XdgShellInterfaceEPNS_16SurfaceInterfaceEP11wl_resource@Base 5.24.3-1
 _ZN14KWaylandServer19XdgSurfaceInterfaceC2EPNS_17XdgShellInterfaceEPNS_16SurfaceInterfaceEP11wl_resource@Base 5.24.3-1
 _ZN14KWaylandServer19XdgSurfaceInterfaceD0Ev@Base 5.24.3-1
 _ZN14KWaylandServer19XdgSurfaceInterfaceD1Ev@Base 5.24.3-1
 _ZN14KWaylandServer19XdgSurfaceInterfaceD2Ev@Base 5.24.3-1
 _ZN14KWaylandServer20BlurManagerInterface11qt_metacallEN11QMetaObject4CallEiPPv@Base 5.24.3-1
 _ZN14KWaylandServer20BlurManagerInterface11qt_metacastEPKc@Base 5.24.3-1
 _ZN14KWaylandServer20BlurManagerInterface16staticMetaObjectE@Base 5.24.3-1
 _ZN14KWaylandServer20BlurManagerInterface6removeEv@Base 5.24.3-1
 _ZN14KWaylandServer20BlurManagerInterfaceC1EPNS_7DisplayEP7QObject@Base 5.24.3-1
 _ZN14KWaylandServer20BlurManagerInterfaceC2EPNS_7DisplayEP7QObject@Base 5.24.3-1
 _ZN14KWaylandServer20BlurManagerInterfaceD0Ev@Base 5.24.3-1
 _ZN14KWaylandServer20BlurManagerInterfaceD1Ev@Base 5.24.3-1
 _ZN14KWaylandServer20BlurManagerInterfaceD2Ev@Base 5.24.3-1
 _ZN14KWaylandServer20DDEKeyboardInterface10keyPressedEjj@Base 5.24.3-1
 _ZN14KWaylandServer20DDEKeyboardInterface10repeatInfoEii@Base 5.24.3-1
 _ZN14KWaylandServer20DDEKeyboardInterface11keyReleasedEjj@Base 5.24.3-1
 _ZN14KWaylandServer20DDEKeyboardInterface11qt_metacallEN11QMetaObject4CallEiPPv@Base 5.24.3-1
 _ZN14KWaylandServer20DDEKeyboardInterface11qt_metacastEPKc@Base 5.24.3-1
 _ZN14KWaylandServer20DDEKeyboardInterface15updateModifiersEjjjjj@Base 5.24.3-1
 _ZN14KWaylandServer20DDEKeyboardInterface16staticMetaObjectE@Base 5.24.3-1
 _ZN14KWaylandServer20DDEKeyboardInterface9setKeymapEij@Base 5.24.3-1
 _ZN14KWaylandServer20DDEKeyboardInterfaceC1EPNS_16DDESeatInterfaceEP11wl_resource@Base 5.24.3-1
 _ZN14KWaylandServer20DDEKeyboardInterfaceC2EPNS_16DDESeatInterfaceEP11wl_resource@Base 5.24.3-1
 _ZN14KWaylandServer20DDEKeyboardInterfaceD0Ev@Base 5.24.3-1
 _ZN14KWaylandServer20DDEKeyboardInterfaceD1Ev@Base 5.24.3-1
 _ZN14KWaylandServer20DDEKeyboardInterfaceD2Ev@Base 5.24.3-1
 _ZN14KWaylandServer20DpmsManagerInterface11qt_metacallEN11QMetaObject4CallEiPPv@Base 5.24.3-1
 _ZN14KWaylandServer20DpmsManagerInterface11qt_metacastEPKc@Base 5.24.3-1
 _ZN14KWaylandServer20DpmsManagerInterface16staticMetaObjectE@Base 5.24.3-1
 _ZN14KWaylandServer20DpmsManagerInterfaceC1EPNS_7DisplayEP7QObject@Base 5.24.3-1
 _ZN14KWaylandServer20DpmsManagerInterfaceC2EPNS_7DisplayEP7QObject@Base 5.24.3-1
 _ZN14KWaylandServer20DpmsManagerInterfaceD0Ev@Base 5.24.3-1
 _ZN14KWaylandServer20DpmsManagerInterfaceD1Ev@Base 5.24.3-1
 _ZN14KWaylandServer20DpmsManagerInterfaceD2Ev@Base 5.24.3-1
 _ZN14KWaylandServer20PlasmaShellInterface11qt_metacallEN11QMetaObject4CallEiPPv@Base 5.24.3-1
 _ZN14KWaylandServer20PlasmaShellInterface11qt_metacastEPKc@Base 5.24.3-1
 _ZN14KWaylandServer20PlasmaShellInterface14surfaceCreatedEPNS_27PlasmaShellSurfaceInterfaceE@Base 5.24.3-1
 _ZN14KWaylandServer20PlasmaShellInterface16staticMetaObjectE@Base 5.24.3-1
 _ZN14KWaylandServer20PlasmaShellInterfaceC1EPNS_7DisplayEP7QObject@Base 5.24.3-1
 _ZN14KWaylandServer20PlasmaShellInterfaceC2EPNS_7DisplayEP7QObject@Base 5.24.3-1
 _ZN14KWaylandServer20PlasmaShellInterfaceD0Ev@Base 5.24.3-1
 _ZN14KWaylandServer20PlasmaShellInterfaceD1Ev@Base 5.24.3-1
 _ZN14KWaylandServer20PlasmaShellInterfaceD2Ev@Base 5.24.3-1
 _ZN14KWaylandServer20SeatInterfacePrivate3getEPNS_13SeatInterfaceE@Base 5.24.3-1
 _ZN14KWaylandServer20TabletPadV2Interface10sendButtonEjjb@Base 5.24.3-1
 _ZN14KWaylandServer20TabletPadV2Interface11qt_metacallEN11QMetaObject4CallEiPPv@Base 5.24.3-1
 _ZN14KWaylandServer20TabletPadV2Interface11qt_metacastEPKc@Base 5.24.3-1
 _ZN14KWaylandServer20TabletPadV2Interface16staticMetaObjectE@Base 5.24.3-1
 _ZN14KWaylandServer20TabletPadV2Interface17setCurrentSurfaceEPNS_16SurfaceInterfaceEPNS_17TabletV2InterfaceE@Base 5.24.3-1
 _ZN14KWaylandServer20TabletPadV2Interface8feedbackEPNS_16ClientConnectionEjRK7QStringj@Base 5.24.3-1
 _ZN14KWaylandServer20TabletPadV2InterfaceC1ERK7QStringjjjjjPNS_7DisplayEPNS_21TabletSeatV2InterfaceE@Base 5.24.3-1
 _ZN14KWaylandServer20TabletPadV2InterfaceC2ERK7QStringjjjjjPNS_7DisplayEPNS_21TabletSeatV2InterfaceE@Base 5.24.3-1
 _ZN14KWaylandServer20TabletPadV2InterfaceD0Ev@Base 5.24.3-1
 _ZN14KWaylandServer20TabletPadV2InterfaceD1Ev@Base 5.24.3-1
 _ZN14KWaylandServer20TabletPadV2InterfaceD2Ev@Base 5.24.3-1
 _ZN14KWaylandServer20TextInputV2Interface11qt_metacallEN11QMetaObject4CallEiPPv@Base 5.24.3-1
 _ZN14KWaylandServer20TextInputV2Interface11qt_metacastEPKc@Base 5.24.3-1
 _ZN14KWaylandServer20TextInputV2Interface11setLanguageERK7QString@Base 5.24.3-1
 _ZN14KWaylandServer20TextInputV2Interface12commitStringERK7QString@Base 5.24.3-1
 _ZN14KWaylandServer20TextInputV2Interface12stateUpdatedEjNS0_12UpdateReasonE@Base 5.24.3-1
 _ZN14KWaylandServer20TextInputV2Interface13keysymPressedEjj@Base 5.24.3-1
 _ZN14KWaylandServer20TextInputV2Interface14enabledChangedEv@Base 5.24.3-1
 _ZN14KWaylandServer20TextInputV2Interface14keysymReleasedEjj@Base 5.24.3-1
 _ZN14KWaylandServer20TextInputV2Interface14preEditStylingEjjj@Base 5.24.3-1
 _ZN14KWaylandServer20TextInputV2Interface15setModifiersMapERK10QByteArray@Base 5.24.3-1
 _ZN14KWaylandServer20TextInputV2Interface16setPreEditCursorEi@Base 5.24.3-1
 _ZN14KWaylandServer20TextInputV2Interface16setTextDirectionEN2Qt15LayoutDirectionE@Base 5.24.3-1
 _ZN14KWaylandServer20TextInputV2Interface16staticMetaObjectE@Base 5.24.3-1
 _ZN14KWaylandServer20TextInputV2Interface17setCursorPositionEii@Base 5.24.3-1
 _ZN14KWaylandServer20TextInputV2Interface18contentTypeChangedEv@Base 5.24.3-1
 _ZN14KWaylandServer20TextInputV2Interface18setInputPanelStateEbRK5QRect@Base 5.24.3-1
 _ZN14KWaylandServer20TextInputV2Interface21deleteSurroundingTextEjj@Base 5.24.3-1
 _ZN14KWaylandServer20TextInputV2Interface21requestHideInputPanelEv@Base 5.24.3-1
 _ZN14KWaylandServer20TextInputV2Interface21requestShowInputPanelEv@Base 5.24.3-1
 _ZN14KWaylandServer20TextInputV2Interface22cursorRectangleChangedERK5QRect@Base 5.24.3-1
 _ZN14KWaylandServer20TextInputV2Interface22surroundingTextChangedEv@Base 5.24.3-1
 _ZN14KWaylandServer20TextInputV2Interface24preferredLanguageChangedERK7QString@Base 5.24.3-1
 _ZN14KWaylandServer20TextInputV2Interface7preEditERK7QStringS3_@Base 5.24.3-1
 _ZN14KWaylandServer20TextInputV2InterfaceC1EPNS_13SeatInterfaceE@Base 5.24.3-1
 _ZN14KWaylandServer20TextInputV2InterfaceC2EPNS_13SeatInterfaceE@Base 5.24.3-1
 _ZN14KWaylandServer20TextInputV2InterfaceD0Ev@Base 5.24.3-1
 _ZN14KWaylandServer20TextInputV2InterfaceD1Ev@Base 5.24.3-1
 _ZN14KWaylandServer20TextInputV2InterfaceD2Ev@Base 5.24.3-1
 _ZN14KWaylandServer20TextInputV3Interface11qt_metacallEN11QMetaObject4CallEiPPv@Base 5.24.3-1
 _ZN14KWaylandServer20TextInputV3Interface11qt_metacastEPKc@Base 5.24.3-1
 _ZN14KWaylandServer20TextInputV3Interface12commitStringERK7QString@Base 5.24.3-1
 _ZN14KWaylandServer20TextInputV3Interface14enabledChangedEv@Base 5.24.3-1
 _ZN14KWaylandServer20TextInputV3Interface14stateCommittedEj@Base 5.24.3-1
 _ZN14KWaylandServer20TextInputV3Interface16staticMetaObjectE@Base 5.24.3-1
 _ZN14KWaylandServer20TextInputV3Interface17sendPreEditStringERK7QStringjj@Base 5.24.3-1
 _ZN14KWaylandServer20TextInputV3Interface18contentTypeChangedEv@Base 5.24.3-1
 _ZN14KWaylandServer20TextInputV3Interface21deleteSurroundingTextEjj@Base 5.24.3-1
 _ZN14KWaylandServer20TextInputV3Interface22cursorRectangleChangedERK5QRect@Base 5.24.3-1
 _ZN14KWaylandServer20TextInputV3Interface22surroundingTextChangedEv@Base 5.24.3-1
 _ZN14KWaylandServer20TextInputV3Interface4doneEv@Base 5.24.3-1
 _ZN14KWaylandServer20TextInputV3InterfaceC1EPNS_13SeatInterfaceE@Base 5.24.3-1
 _ZN14KWaylandServer20TextInputV3InterfaceC2EPNS_13SeatInterfaceE@Base 5.24.3-1
 _ZN14KWaylandServer20TextInputV3InterfaceD0Ev@Base 5.24.3-1
 _ZN14KWaylandServer20TextInputV3InterfaceD1Ev@Base 5.24.3-1
 _ZN14KWaylandServer20TextInputV3InterfaceD2Ev@Base 5.24.3-1
 _ZN14KWaylandServer20XdgOutputV1Interface11qt_metacallEN11QMetaObject4CallEiPPv@Base 5.24.3-1
 _ZN14KWaylandServer20XdgOutputV1Interface11qt_metacastEPKc@Base 5.24.3-1
 _ZN14KWaylandServer20XdgOutputV1Interface14setDescriptionERK7QString@Base 5.24.3-1
 _ZN14KWaylandServer20XdgOutputV1Interface14setLogicalSizeERK5QSize@Base 5.24.3-1
 _ZN14KWaylandServer20XdgOutputV1Interface16staticMetaObjectE@Base 5.24.3-1
 _ZN14KWaylandServer20XdgOutputV1Interface18setLogicalPositionERK6QPoint@Base 5.24.3-1
 _ZN14KWaylandServer20XdgOutputV1Interface4doneEv@Base 5.24.3-1
 _ZN14KWaylandServer20XdgOutputV1Interface7setNameERK7QString@Base 5.24.3-1
 _ZN14KWaylandServer20XdgOutputV1InterfaceC1EPNS_15OutputInterfaceEP7QObject@Base 5.24.3-1
 _ZN14KWaylandServer20XdgOutputV1InterfaceC2EPNS_15OutputInterfaceEP7QObject@Base 5.24.3-1
 _ZN14KWaylandServer20XdgOutputV1InterfaceD0Ev@Base 5.24.3-1
 _ZN14KWaylandServer20XdgOutputV1InterfaceD1Ev@Base 5.24.3-1
 _ZN14KWaylandServer20XdgOutputV1InterfaceD2Ev@Base 5.24.3-1
 _ZN14KWaylandServer20XdgToplevelInterface11qt_metacallEN11QMetaObject4CallEiPPv@Base 5.24.3-1
 _ZN14KWaylandServer20XdgToplevelInterface11qt_metacastEPKc@Base 5.24.3-1
 _ZN14KWaylandServer20XdgToplevelInterface13moveRequestedEPNS_13SeatInterfaceEj@Base 5.24.3-1
 _ZN14KWaylandServer20XdgToplevelInterface13resetOccurredEv@Base 5.24.3-1
 _ZN14KWaylandServer20XdgToplevelInterface13sendConfigureERK5QSizeRK6QFlagsINS0_5StateEE@Base 5.24.3-1
 _ZN14KWaylandServer20XdgToplevelInterface15resizeRequestedEPNS_13SeatInterfaceENS0_12ResizeAnchorEj@Base 5.24.3-1
 _ZN14KWaylandServer20XdgToplevelInterface16staticMetaObjectE@Base 5.24.3-1
 _ZN14KWaylandServer20XdgToplevelInterface17maximizeRequestedEv@Base 5.24.3-1
 _ZN14KWaylandServer20XdgToplevelInterface17minimizeRequestedEv@Base 5.24.3-1
 _ZN14KWaylandServer20XdgToplevelInterface18aboutToBeDestroyedEv@Base 5.24.3-1
 _ZN14KWaylandServer20XdgToplevelInterface18maximumSizeChangedERK5QSize@Base 5.24.3-1
 _ZN14KWaylandServer20XdgToplevelInterface18minimumSizeChangedERK5QSize@Base 5.24.3-1
 _ZN14KWaylandServer20XdgToplevelInterface18windowClassChangedERK7QString@Base 5.24.3-1
 _ZN14KWaylandServer20XdgToplevelInterface18windowTitleChangedERK7QString@Base 5.24.3-1
 _ZN14KWaylandServer20XdgToplevelInterface19fullscreenRequestedEPNS_15OutputInterfaceE@Base 5.24.3-1
 _ZN14KWaylandServer20XdgToplevelInterface19initializeRequestedEv@Base 5.24.3-1
 _ZN14KWaylandServer20XdgToplevelInterface19unmaximizeRequestedEv@Base 5.24.3-1
 _ZN14KWaylandServer20XdgToplevelInterface19windowMenuRequestedEPNS_13SeatInterfaceERK6QPointj@Base 5.24.3-1
 _ZN14KWaylandServer20XdgToplevelInterface21unfullscreenRequestedEv@Base 5.24.3-1
 _ZN14KWaylandServer20XdgToplevelInterface24parentXdgToplevelChangedEv@Base 5.24.3-1
 _ZN14KWaylandServer20XdgToplevelInterface3getEP11wl_resource@Base 5.24.3-1
 _ZN14KWaylandServer20XdgToplevelInterface9sendCloseEv@Base 5.24.3-1
 _ZN14KWaylandServer20XdgToplevelInterfaceC1EPNS_19XdgSurfaceInterfaceEP11wl_resource@Base 5.24.3-1
 _ZN14KWaylandServer20XdgToplevelInterfaceC2EPNS_19XdgSurfaceInterfaceEP11wl_resource@Base 5.24.3-1
 _ZN14KWaylandServer20XdgToplevelInterfaceD0Ev@Base 5.24.3-1
 _ZN14KWaylandServer20XdgToplevelInterfaceD1Ev@Base 5.24.3-1
 _ZN14KWaylandServer20XdgToplevelInterfaceD2Ev@Base 5.24.3-1
 _ZN14KWaylandServer21InputPanelV1Interface11qt_metacallEN11QMetaObject4CallEiPPv@Base 5.24.3-1
 _ZN14KWaylandServer21InputPanelV1Interface11qt_metacastEPKc@Base 5.24.3-1
 _ZN14KWaylandServer21InputPanelV1Interface16staticMetaObjectE@Base 5.24.3-1
 _ZN14KWaylandServer21InputPanelV1Interface22inputPanelSurfaceAddedEPNS_28InputPanelSurfaceV1InterfaceE@Base 5.24.3-1
 _ZN14KWaylandServer21InputPanelV1InterfaceC1EPNS_7DisplayEP7QObject@Base 5.24.3-1
 _ZN14KWaylandServer21InputPanelV1InterfaceC2EPNS_7DisplayEP7QObject@Base 5.24.3-1
 _ZN14KWaylandServer21InputPanelV1InterfaceD0Ev@Base 5.24.3-1
 _ZN14KWaylandServer21InputPanelV1InterfaceD1Ev@Base 5.24.3-1
 _ZN14KWaylandServer21InputPanelV1InterfaceD2Ev@Base 5.24.3-1
 _ZN14KWaylandServer21LayerShellV1Interface11qt_metacallEN11QMetaObject4CallEiPPv@Base 5.24.3-1
 _ZN14KWaylandServer21LayerShellV1Interface11qt_metacastEPKc@Base 5.24.3-1
 _ZN14KWaylandServer21LayerShellV1Interface14surfaceCreatedEPNS_23LayerSurfaceV1InterfaceE@Base 5.24.3-1
 _ZN14KWaylandServer21LayerShellV1Interface16staticMetaObjectE@Base 5.24.3-1
 _ZN14KWaylandServer21LayerShellV1InterfaceC1EPNS_7DisplayEP7QObject@Base 5.24.3-1
 _ZN14KWaylandServer21LayerShellV1InterfaceC2EPNS_7DisplayEP7QObject@Base 5.24.3-1
 _ZN14KWaylandServer21LayerShellV1InterfaceD0Ev@Base 5.24.3-1
 _ZN14KWaylandServer21LayerShellV1InterfaceD1Ev@Base 5.24.3-1
 _ZN14KWaylandServer21LayerShellV1InterfaceD2Ev@Base 5.24.3-1
 _ZN14KWaylandServer21LinuxDmaBufV1Feedback11qt_metacallEN11QMetaObject4CallEiPPv@Base 5.24.3-1
 _ZN14KWaylandServer21LinuxDmaBufV1Feedback11qt_metacastEPKc@Base 5.24.3-1
 _ZN14KWaylandServer21LinuxDmaBufV1Feedback11setTranchesERK7QVectorINS0_7TrancheEE@Base 5.24.3-1
 _ZN14KWaylandServer21LinuxDmaBufV1Feedback16staticMetaObjectE@Base 5.24.3-1
 _ZN14KWaylandServer21LinuxDmaBufV1FeedbackC1EPNS_43LinuxDmaBufV1ClientBufferIntegrationPrivateE@Base 5.24.3-1
 _ZN14KWaylandServer21LinuxDmaBufV1FeedbackC2EPNS_43LinuxDmaBufV1ClientBufferIntegrationPrivateE@Base 5.24.3-1
 _ZN14KWaylandServer21LinuxDmaBufV1FeedbackD0Ev@Base 5.24.3-1
 _ZN14KWaylandServer21LinuxDmaBufV1FeedbackD1Ev@Base 5.24.3-1
 _ZN14KWaylandServer21LinuxDmaBufV1FeedbackD2Ev@Base 5.24.3-1
 _ZN14KWaylandServer21PlasmaWindowInterface10setMovableEb@Base 5.24.3-1
 _ZN14KWaylandServer21PlasmaWindowInterface11qt_metacallEN11QMetaObject4CallEiPPv@Base 5.24.3-1
 _ZN14KWaylandServer21PlasmaWindowInterface11qt_metacastEPKc@Base 5.24.3-1
 _ZN14KWaylandServer21PlasmaWindowInterface11setGeometryERK5QRect@Base 5.24.3-1
 _ZN14KWaylandServer21PlasmaWindowInterface11setWindowIdEj@Base 5.24.3-1
 _ZN14KWaylandServer21PlasmaWindowInterface12sendToOutputEPNS_15OutputInterfaceE@Base 5.24.3-1
 _ZN14KWaylandServer21PlasmaWindowInterface12setCloseableEb@Base 5.24.3-1
 _ZN14KWaylandServer21PlasmaWindowInterface12setKeepAboveEb@Base 5.24.3-1
 _ZN14KWaylandServer21PlasmaWindowInterface12setKeepBelowEb@Base 5.24.3-1
 _ZN14KWaylandServer21PlasmaWindowInterface12setMaximizedEb@Base 5.24.3-1
 _ZN14KWaylandServer21PlasmaWindowInterface12setMinimizedEb@Base 5.24.3-1
 _ZN14KWaylandServer21PlasmaWindowInterface12setResizableEb@Base 5.24.3-1
 _ZN14KWaylandServer21PlasmaWindowInterface12setShadeableEb@Base 5.24.3-1
 _ZN14KWaylandServer21PlasmaWindowInterface13moveRequestedEv@Base 5.24.3-1
 _ZN14KWaylandServer21PlasmaWindowInterface13setFullscreenEb@Base 5.24.3-1
 _ZN14KWaylandServer21PlasmaWindowInterface14closeRequestedEv@Base 5.24.3-1
 _ZN14KWaylandServer21PlasmaWindowInterface14setSkipTaskbarEb@Base 5.24.3-1
 _ZN14KWaylandServer21PlasmaWindowInterface15activeRequestedEb@Base 5.24.3-1
 _ZN14KWaylandServer21PlasmaWindowInterface15resizeRequestedEv@Base 5.24.3-1
 _ZN14KWaylandServer21PlasmaWindowInterface15setMaximizeableEb@Base 5.24.3-1
 _ZN14KWaylandServer21PlasmaWindowInterface15setMinimizeableEb@Base 5.24.3-1
 _ZN14KWaylandServer21PlasmaWindowInterface15setParentWindowEPS0_@Base 5.24.3-1
 _ZN14KWaylandServer21PlasmaWindowInterface15setSkipSwitcherEb@Base 5.24.3-1
 _ZN14KWaylandServer21PlasmaWindowInterface15shadedRequestedEb@Base 5.24.3-1
 _ZN14KWaylandServer21PlasmaWindowInterface16movableRequestedEb@Base 5.24.3-1
 _ZN14KWaylandServer21PlasmaWindowInterface16setOnAllDesktopsEb@Base 5.24.3-1
 _ZN14KWaylandServer21PlasmaWindowInterface16staticMetaObjectE@Base 5.24.3-1
 _ZN14KWaylandServer21PlasmaWindowInterface17addPlasmaActivityERK7QString@Base 5.24.3-1
 _ZN14KWaylandServer21PlasmaWindowInterface17setFullscreenableEb@Base 5.24.3-1
 _ZN14KWaylandServer21PlasmaWindowInterface18closeableRequestedEb@Base 5.24.3-1
 _ZN14KWaylandServer21PlasmaWindowInterface18keepAboveRequestedEb@Base 5.24.3-1
 _ZN14KWaylandServer21PlasmaWindowInterface18keepBelowRequestedEb@Base 5.24.3-1
 _ZN14KWaylandServer21PlasmaWindowInterface18maximizedRequestedEb@Base 5.24.3-1
 _ZN14KWaylandServer21PlasmaWindowInterface18minimizedRequestedEb@Base 5.24.3-1
 _ZN14KWaylandServer21PlasmaWindowInterface18resizableRequestedEb@Base 5.24.3-1
 _ZN14KWaylandServer21PlasmaWindowInterface18shadeableRequestedEb@Base 5.24.3-1
 _ZN14KWaylandServer21PlasmaWindowInterface19fullscreenRequestedEb@Base 5.24.3-1
 _ZN14KWaylandServer21PlasmaWindowInterface19setDemandsAttentionEb@Base 5.24.3-1
 _ZN14KWaylandServer21PlasmaWindowInterface20removePlasmaActivityERK7QString@Base 5.24.3-1
 _ZN14KWaylandServer21PlasmaWindowInterface20skipTaskbarRequestedEb@Base 5.24.3-1
 _ZN14KWaylandServer21PlasmaWindowInterface21maximizeableRequestedEb@Base 5.24.3-1
 _ZN14KWaylandServer21PlasmaWindowInterface21minimizeableRequestedEb@Base 5.24.3-1
 _ZN14KWaylandServer21PlasmaWindowInterface21skipSwitcherRequestedEb@Base 5.24.3-1
 _ZN14KWaylandServer21PlasmaWindowInterface23addPlasmaVirtualDesktopERK7QString@Base 5.24.3-1
 _ZN14KWaylandServer21PlasmaWindowInterface23fullscreenableRequestedEb@Base 5.24.3-1
 _ZN14KWaylandServer21PlasmaWindowInterface23setApplicationMenuPathsERK7QStringS3_@Base 5.24.3-1
 _ZN14KWaylandServer21PlasmaWindowInterface25demandsAttentionRequestedEb@Base 5.24.3-1
 _ZN14KWaylandServer21PlasmaWindowInterface26minimizedGeometriesChangedEv@Base 5.24.3-1
 _ZN14KWaylandServer21PlasmaWindowInterface26removePlasmaVirtualDesktopERK7QString@Base 5.24.3-1
 _ZN14KWaylandServer21PlasmaWindowInterface27setVirtualDesktopChangeableEb@Base 5.24.3-1
 _ZN14KWaylandServer21PlasmaWindowInterface28enterPlasmaActivityRequestedERK7QString@Base 5.24.3-1
 _ZN14KWaylandServer21PlasmaWindowInterface28leavePlasmaActivityRequestedERK7QString@Base 5.24.3-1
 _ZN14KWaylandServer21PlasmaWindowInterface33virtualDesktopChangeableRequestedEb@Base 5.24.3-1
 _ZN14KWaylandServer21PlasmaWindowInterface34enterPlasmaVirtualDesktopRequestedERK7QString@Base 5.24.3-1
 _ZN14KWaylandServer21PlasmaWindowInterface34leavePlasmaVirtualDesktopRequestedERK7QString@Base 5.24.3-1
 _ZN14KWaylandServer21PlasmaWindowInterface37enterNewPlasmaVirtualDesktopRequestedEv@Base 5.24.3-1
 _ZN14KWaylandServer21PlasmaWindowInterface5unmapEv@Base 5.24.3-1
 _ZN14KWaylandServer21PlasmaWindowInterface6setPidEj@Base 5.24.3-1
 _ZN14KWaylandServer21PlasmaWindowInterface7setIconERK5QIcon@Base 5.24.3-1
 _ZN14KWaylandServer21PlasmaWindowInterface8setAppIdERK7QString@Base 5.24.3-1
 _ZN14KWaylandServer21PlasmaWindowInterface8setTitleERK7QString@Base 5.24.3-1
 _ZN14KWaylandServer21PlasmaWindowInterface9setActiveEb@Base 5.24.3-1
 _ZN14KWaylandServer21PlasmaWindowInterface9setShadedEb@Base 5.24.3-1
 _ZN14KWaylandServer21PlasmaWindowInterfaceC1EPNS_31PlasmaWindowManagementInterfaceEP7QObject@Base 5.24.3-1
 _ZN14KWaylandServer21PlasmaWindowInterfaceC2EPNS_31PlasmaWindowManagementInterfaceEP7QObject@Base 5.24.3-1
 _ZN14KWaylandServer21PlasmaWindowInterfaceD0Ev@Base 5.24.3-1
 _ZN14KWaylandServer21PlasmaWindowInterfaceD1Ev@Base 5.24.3-1
 _ZN14KWaylandServer21PlasmaWindowInterfaceD2Ev@Base 5.24.3-1
 _ZN14KWaylandServer21ScreencastV1Interface11qt_metacallEN11QMetaObject4CallEiPPv@Base 5.24.3-1
 _ZN14KWaylandServer21ScreencastV1Interface11qt_metacastEPKc@Base 5.24.3-1
 _ZN14KWaylandServer21ScreencastV1Interface16staticMetaObjectE@Base 5.24.3-1
 _ZN14KWaylandServer21ScreencastV1Interface25outputScreencastRequestedEPNS_27ScreencastStreamV1InterfaceEPNS_15OutputInterfaceENS0_10CursorModeE@Base 5.24.3-1
 _ZN14KWaylandServer21ScreencastV1Interface25windowScreencastRequestedEPNS_27ScreencastStreamV1InterfaceERK7QStringNS0_10CursorModeE@Base 5.24.3-1
 _ZN14KWaylandServer21ScreencastV1Interface32virtualOutputScreencastRequestedEPNS_27ScreencastStreamV1InterfaceERK7QStringRK5QSizedNS0_10CursorModeE@Base 5.24.3-1
 _ZN14KWaylandServer21ScreencastV1InterfaceC1EPNS_7DisplayEP7QObject@Base 5.24.3-1
 _ZN14KWaylandServer21ScreencastV1InterfaceC2EPNS_7DisplayEP7QObject@Base 5.24.3-1
 _ZN14KWaylandServer21ScreencastV1InterfaceD0Ev@Base 5.24.3-1
 _ZN14KWaylandServer21ScreencastV1InterfaceD1Ev@Base 5.24.3-1
 _ZN14KWaylandServer21ScreencastV1InterfaceD2Ev@Base 5.24.3-1
 _ZN14KWaylandServer21SlideManagerInterface11qt_metacallEN11QMetaObject4CallEiPPv@Base 5.24.3-1
 _ZN14KWaylandServer21SlideManagerInterface11qt_metacastEPKc@Base 5.24.3-1
 _ZN14KWaylandServer21SlideManagerInterface16staticMetaObjectE@Base 5.24.3-1
 _ZN14KWaylandServer21SlideManagerInterface6removeEv@Base 5.24.3-1
 _ZN14KWaylandServer21SlideManagerInterfaceC1EPNS_7DisplayEP7QObject@Base 5.24.3-1
 _ZN14KWaylandServer21SlideManagerInterfaceC2EPNS_7DisplayEP7QObject@Base 5.24.3-1
 _ZN14KWaylandServer21SlideManagerInterfaceD0Ev@Base 5.24.3-1
 _ZN14KWaylandServer21SlideManagerInterfaceD1Ev@Base 5.24.3-1
 _ZN14KWaylandServer21SlideManagerInterfaceD2Ev@Base 5.24.3-1
 _ZN14KWaylandServer21TabletSeatV2Interface11qt_metacallEN11QMetaObject4CallEiPPv@Base 5.24.3-1
 _ZN14KWaylandServer21TabletSeatV2Interface11qt_metacastEPKc@Base 5.24.3-1
 _ZN14KWaylandServer21TabletSeatV2Interface12addTabletPadERK7QStringS3_RK11QStringListjjjjjPNS_17TabletV2InterfaceE@Base 5.24.3-1
 _ZN14KWaylandServer21TabletSeatV2Interface12removeDeviceERK7QString@Base 5.24.3-1
 _ZN14KWaylandServer21TabletSeatV2Interface16staticMetaObjectE@Base 5.24.3-1
 _ZN14KWaylandServer21TabletSeatV2Interface7addToolENS_21TabletToolV2Interface4TypeEyyRK7QVectorINS1_10CapabilityEE@Base 5.24.3-1
 _ZN14KWaylandServer21TabletSeatV2Interface9addTabletEjjRK7QStringS3_RK11QStringList@Base 5.24.3-1
 _ZN14KWaylandServer21TabletSeatV2InterfaceC1EPNS_7DisplayEP7QObject@Base 5.24.3-1
 _ZN14KWaylandServer21TabletSeatV2InterfaceC2EPNS_7DisplayEP7QObject@Base 5.24.3-1
 _ZN14KWaylandServer21TabletSeatV2InterfaceD0Ev@Base 5.24.3-1
 _ZN14KWaylandServer21TabletSeatV2InterfaceD1Ev@Base 5.24.3-1
 _ZN14KWaylandServer21TabletSeatV2InterfaceD2Ev@Base 5.24.3-1
 _ZN14KWaylandServer21TabletToolV2Interface10sendButtonEjb@Base 5.24.3-1
 _ZN14KWaylandServer21TabletToolV2Interface10sendMotionERK7QPointF@Base 5.24.3-1
 _ZN14KWaylandServer21TabletToolV2Interface10sendSliderEi@Base 5.24.3-1
 _ZN14KWaylandServer21TabletToolV2Interface11qt_metacallEN11QMetaObject4CallEiPPv@Base 5.24.3-1
 _ZN14KWaylandServer21TabletToolV2Interface11qt_metacastEPKc@Base 5.24.3-1
 _ZN14KWaylandServer21TabletToolV2Interface12sendDistanceEj@Base 5.24.3-1
 _ZN14KWaylandServer21TabletToolV2Interface12sendPressureEj@Base 5.24.3-1
 _ZN14KWaylandServer21TabletToolV2Interface12sendRotationEd@Base 5.24.3-1
 _ZN14KWaylandServer21TabletToolV2Interface15sendProximityInEPNS_17TabletV2InterfaceE@Base 5.24.3-1
 _ZN14KWaylandServer21TabletToolV2Interface16sendProximityOutEv@Base 5.24.3-1
 _ZN14KWaylandServer21TabletToolV2Interface16staticMetaObjectE@Base 5.24.3-1
 _ZN14KWaylandServer21TabletToolV2Interface17setCurrentSurfaceEPNS_16SurfaceInterfaceE@Base 5.24.3-1
 _ZN14KWaylandServer21TabletToolV2Interface6sendUpEv@Base 5.24.3-1
 _ZN14KWaylandServer21TabletToolV2Interface8sendDownEv@Base 5.24.3-1
 _ZN14KWaylandServer21TabletToolV2Interface8sendTiltEdd@Base 5.24.3-1
 _ZN14KWaylandServer21TabletToolV2Interface9sendFrameEj@Base 5.24.3-1
 _ZN14KWaylandServer21TabletToolV2Interface9sendWheelEii@Base 5.24.3-1
 _ZN14KWaylandServer21TabletToolV2InterfaceC1EPNS_7DisplayENS0_4TypeEjjjjRK7QVectorINS0_10CapabilityEEP7QObject@Base 5.24.3-1
 _ZN14KWaylandServer21TabletToolV2InterfaceC2EPNS_7DisplayENS0_4TypeEjjjjRK7QVectorINS0_10CapabilityEEP7QObject@Base 5.24.3-1
 _ZN14KWaylandServer21TabletToolV2InterfaceD0Ev@Base 5.24.3-1
 _ZN14KWaylandServer21TabletToolV2InterfaceD1Ev@Base 5.24.3-1
 _ZN14KWaylandServer21TabletToolV2InterfaceD2Ev@Base 5.24.3-1
 _ZN14KWaylandServer21XdgForeignV2Interface11qt_metacallEN11QMetaObject4CallEiPPv@Base 5.24.3-1
 _ZN14KWaylandServer21XdgForeignV2Interface11qt_metacastEPKc@Base 5.24.3-1
 _ZN14KWaylandServer21XdgForeignV2Interface12transientForEPNS_16SurfaceInterfaceE@Base 5.24.3-1
 _ZN14KWaylandServer21XdgForeignV2Interface16staticMetaObjectE@Base 5.24.3-1
 _ZN14KWaylandServer21XdgForeignV2Interface16transientChangedEPNS_16SurfaceInterfaceES2_@Base 5.24.3-1
 _ZN14KWaylandServer21XdgForeignV2InterfaceC1EPNS_7DisplayEP7QObject@Base 5.24.3-1
 _ZN14KWaylandServer21XdgForeignV2InterfaceC2EPNS_7DisplayEP7QObject@Base 5.24.3-1
 _ZN14KWaylandServer21XdgForeignV2InterfaceD0Ev@Base 5.24.3-1
 _ZN14KWaylandServer21XdgForeignV2InterfaceD1Ev@Base 5.24.3-1
 _ZN14KWaylandServer21XdgForeignV2InterfaceD2Ev@Base 5.24.3-1
 _ZN14KWaylandServer22InputMethodV1Interface11qt_metacallEN11QMetaObject4CallEiPPv@Base 5.24.3-1
 _ZN14KWaylandServer22InputMethodV1Interface11qt_metacastEPKc@Base 5.24.3-1
 _ZN14KWaylandServer22InputMethodV1Interface12sendActivateEv@Base 5.24.3-1
 _ZN14KWaylandServer22InputMethodV1Interface14sendDeactivateEv@Base 5.24.3-1
 _ZN14KWaylandServer22InputMethodV1Interface16staticMetaObjectE@Base 5.24.3-1
 _ZN14KWaylandServer22InputMethodV1InterfaceC1EPNS_7DisplayEP7QObject@Base 5.24.3-1
 _ZN14KWaylandServer22InputMethodV1InterfaceC2EPNS_7DisplayEP7QObject@Base 5.24.3-1
 _ZN14KWaylandServer22InputMethodV1InterfaceD0Ev@Base 5.24.3-1
 _ZN14KWaylandServer22InputMethodV1InterfaceD1Ev@Base 5.24.3-1
 _ZN14KWaylandServer22InputMethodV1InterfaceD2Ev@Base 5.24.3-1
 _ZN14KWaylandServer22ShadowManagerInterface11qt_metacallEN11QMetaObject4CallEiPPv@Base 5.24.3-1
 _ZN14KWaylandServer22ShadowManagerInterface11qt_metacastEPKc@Base 5.24.3-1
 _ZN14KWaylandServer22ShadowManagerInterface16staticMetaObjectE@Base 5.24.3-1
 _ZN14KWaylandServer22ShadowManagerInterfaceC1EPNS_7DisplayEP7QObject@Base 5.24.3-1
 _ZN14KWaylandServer22ShadowManagerInterfaceC2EPNS_7DisplayEP7QObject@Base 5.24.3-1
 _ZN14KWaylandServer22ShadowManagerInterfaceD0Ev@Base 5.24.3-1
 _ZN14KWaylandServer22ShadowManagerInterfaceD1Ev@Base 5.24.3-1
 _ZN14KWaylandServer22ShadowManagerInterfaceD2Ev@Base 5.24.3-1
 _ZN14KWaylandServer22SubCompositorInterface11qt_metacallEN11QMetaObject4CallEiPPv@Base 5.24.3-1
 _ZN14KWaylandServer22SubCompositorInterface11qt_metacastEPKc@Base 5.24.3-1
 _ZN14KWaylandServer22SubCompositorInterface16staticMetaObjectE@Base 5.24.3-1
 _ZN14KWaylandServer22SubCompositorInterface17subSurfaceCreatedEPNS_19SubSurfaceInterfaceE@Base 5.24.3-1
 _ZN14KWaylandServer22SubCompositorInterfaceC1EPNS_7DisplayEP7QObject@Base 5.24.3-1
 _ZN14KWaylandServer22SubCompositorInterfaceC2EPNS_7DisplayEP7QObject@Base 5.24.3-1
 _ZN14KWaylandServer22SubCompositorInterfaceD0Ev@Base 5.24.3-1
 _ZN14KWaylandServer22SubCompositorInterfaceD1Ev@Base 5.24.3-1
 _ZN14KWaylandServer22SubCompositorInterfaceD2Ev@Base 5.24.3-1
 _ZN14KWaylandServer23AppMenuManagerInterface11qt_metacallEN11QMetaObject4CallEiPPv@Base 5.24.3-1
 _ZN14KWaylandServer23AppMenuManagerInterface11qt_metacastEPKc@Base 5.24.3-1
 _ZN14KWaylandServer23AppMenuManagerInterface14appMenuCreatedEPNS_16AppMenuInterfaceE@Base 5.24.3-1
 _ZN14KWaylandServer23AppMenuManagerInterface16staticMetaObjectE@Base 5.24.3-1
 _ZN14KWaylandServer23AppMenuManagerInterface17appMenuForSurfaceEPNS_16SurfaceInterfaceE@Base 5.24.3-1
 _ZN14KWaylandServer23AppMenuManagerInterfaceC1EPNS_7DisplayEP7QObject@Base 5.24.3-1
 _ZN14KWaylandServer23AppMenuManagerInterfaceC2EPNS_7DisplayEP7QObject@Base 5.24.3-1
 _ZN14KWaylandServer23AppMenuManagerInterfaceD0Ev@Base 5.24.3-1
 _ZN14KWaylandServer23AppMenuManagerInterfaceD1Ev@Base 5.24.3-1
 _ZN14KWaylandServer23AppMenuManagerInterfaceD2Ev@Base 5.24.3-1
 _ZN14KWaylandServer23ClientBufferIntegration11qt_metacallEN11QMetaObject4CallEiPPv@Base 5.24.3-1
 _ZN14KWaylandServer23ClientBufferIntegration11qt_metacastEPKc@Base 5.24.3-1
 _ZN14KWaylandServer23ClientBufferIntegration12createBufferEP11wl_resource@Base 5.24.3-1
 _ZN14KWaylandServer23ClientBufferIntegration16staticMetaObjectE@Base 5.24.3-1
 _ZN14KWaylandServer23ClientBufferIntegrationC1EPNS_7DisplayE@Base 5.24.3-1
 _ZN14KWaylandServer23ClientBufferIntegrationC2EPNS_7DisplayE@Base 5.24.3-1
 _ZN14KWaylandServer23ClientBufferIntegrationD0Ev@Base 5.24.3-1
 _ZN14KWaylandServer23ClientBufferIntegrationD1Ev@Base 5.24.3-1
 _ZN14KWaylandServer23ClientBufferIntegrationD2Ev@Base 5.24.3-1
 _ZN14KWaylandServer23LayerSurfaceV1Interface10sendClosedEv@Base 5.24.3-1
 _ZN14KWaylandServer23LayerSurfaceV1Interface11qt_metacallEN11QMetaObject4CallEiPPv@Base 5.24.3-1
 _ZN14KWaylandServer23LayerSurfaceV1Interface11qt_metacastEPKc@Base 5.24.3-1
 _ZN14KWaylandServer23LayerSurfaceV1Interface12layerChangedEv@Base 5.24.3-1
 _ZN14KWaylandServer23LayerSurfaceV1Interface13anchorChangedEv@Base 5.24.3-1
 _ZN14KWaylandServer23LayerSurfaceV1Interface13sendConfigureERK5QSize@Base 5.24.3-1
 _ZN14KWaylandServer23LayerSurfaceV1Interface14marginsChangedEv@Base 5.24.3-1
 _ZN14KWaylandServer23LayerSurfaceV1Interface16staticMetaObjectE@Base 5.24.3-1
 _ZN14KWaylandServer23LayerSurfaceV1Interface18aboutToBeDestroyedEv@Base 5.24.3-1
 _ZN14KWaylandServer23LayerSurfaceV1Interface18desiredSizeChangedEv@Base 5.24.3-1
 _ZN14KWaylandServer23LayerSurfaceV1Interface19acceptsFocusChangedEv@Base 5.24.3-1
 _ZN14KWaylandServer23LayerSurfaceV1Interface20exclusiveZoneChangedEv@Base 5.24.3-1
 _ZN14KWaylandServer23LayerSurfaceV1Interface21configureAcknowledgedEj@Base 5.24.3-1
 _ZN14KWaylandServer23LayerSurfaceV1InterfaceC1EPNS_21LayerShellV1InterfaceEPNS_16SurfaceInterfaceEPNS_15OutputInterfaceENS0_5LayerERK7QStringP11wl_resource@Base 5.24.3-1
 _ZN14KWaylandServer23LayerSurfaceV1InterfaceC2EPNS_21LayerShellV1InterfaceEPNS_16SurfaceInterfaceEPNS_15OutputInterfaceENS0_5LayerERK7QStringP11wl_resource@Base 5.24.3-1
 _ZN14KWaylandServer23LayerSurfaceV1InterfaceD0Ev@Base 5.24.3-1
 _ZN14KWaylandServer23LayerSurfaceV1InterfaceD1Ev@Base 5.24.3-1
 _ZN14KWaylandServer23LayerSurfaceV1InterfaceD2Ev@Base 5.24.3-1
 _ZN14KWaylandServer23OutputDeviceV2Interface10setEnabledEb@Base 5.24.3-1
 _ZN14KWaylandServer23OutputDeviceV2Interface11qt_metacallEN11QMetaObject4CallEiPPv@Base 5.24.3-1
 _ZN14KWaylandServer23OutputDeviceV2Interface11qt_metacastEPKc@Base 5.24.3-1
 _ZN14KWaylandServer23OutputDeviceV2Interface11setOverscanEj@Base 5.24.3-1
 _ZN14KWaylandServer23OutputDeviceV2Interface11setRgbRangeENS0_8RgbRangeE@Base 5.24.3-1
 _ZN14KWaylandServer23OutputDeviceV2Interface11setSubPixelENS0_8SubPixelE@Base 5.24.3-1
 _ZN14KWaylandServer23OutputDeviceV2Interface12setTransformENS0_9TransformE@Base 5.24.3-1
 _ZN14KWaylandServer23OutputDeviceV2Interface12setVrrPolicyENS0_9VrrPolicyE@Base 5.24.3-1
 _ZN14KWaylandServer23OutputDeviceV2Interface14setCurrentModeEPNS_27OutputDeviceModeV2InterfaceE@Base 5.24.3-1
 _ZN14KWaylandServer23OutputDeviceV2Interface14setCurrentModeERK5QSizei@Base 5.24.3-1
 _ZN14KWaylandServer23OutputDeviceV2Interface15setCapabilitiesE6QFlagsINS0_10CapabilityEE@Base 5.24.3-1
 _ZN14KWaylandServer23OutputDeviceV2Interface15setManufacturerERK7QString@Base 5.24.3-1
 _ZN14KWaylandServer23OutputDeviceV2Interface15setPhysicalSizeERK5QSize@Base 5.24.3-1
 _ZN14KWaylandServer23OutputDeviceV2Interface15setSerialNumberERK7QString@Base 5.24.3-1
 _ZN14KWaylandServer23OutputDeviceV2Interface16staticMetaObjectE@Base 5.24.3-1
 _ZN14KWaylandServer23OutputDeviceV2Interface17setGlobalPositionERK6QPoint@Base 5.24.3-1
 _ZN14KWaylandServer23OutputDeviceV2Interface3getEP11wl_resource@Base 5.24.3-1
 _ZN14KWaylandServer23OutputDeviceV2Interface6removeEv@Base 5.24.3-1
 _ZN14KWaylandServer23OutputDeviceV2Interface7setEdidERK10QByteArray@Base 5.24.3-1
 _ZN14KWaylandServer23OutputDeviceV2Interface7setNameERK7QString@Base 5.24.3-1
 _ZN14KWaylandServer23OutputDeviceV2Interface7setUuidERK5QUuid@Base 5.24.3-1
 _ZN14KWaylandServer23OutputDeviceV2Interface8setModelERK7QString@Base 5.24.3-1
 _ZN14KWaylandServer23OutputDeviceV2Interface8setModesERK5QListIPNS_27OutputDeviceModeV2InterfaceEE@Base 5.24.3-1
 _ZN14KWaylandServer23OutputDeviceV2Interface8setScaleEd@Base 5.24.3-1
 _ZN14KWaylandServer23OutputDeviceV2Interface9setEisaIdERK7QString@Base 5.24.3-1
 _ZN14KWaylandServer23OutputDeviceV2InterfaceC1EPNS_7DisplayEP7QObject@Base 5.24.3-1
 _ZN14KWaylandServer23OutputDeviceV2InterfaceC2EPNS_7DisplayEP7QObject@Base 5.24.3-1
 _ZN14KWaylandServer23OutputDeviceV2InterfaceD0Ev@Base 5.24.3-1
 _ZN14KWaylandServer23OutputDeviceV2InterfaceD1Ev@Base 5.24.3-1
 _ZN14KWaylandServer23OutputDeviceV2InterfaceD2Ev@Base 5.24.3-1
 _ZN14KWaylandServer24ContrastManagerInterface11qt_metacallEN11QMetaObject4CallEiPPv@Base 5.24.3-1
 _ZN14KWaylandServer24ContrastManagerInterface11qt_metacastEPKc@Base 5.24.3-1
 _ZN14KWaylandServer24ContrastManagerInterface16staticMetaObjectE@Base 5.24.3-1
 _ZN14KWaylandServer24ContrastManagerInterface6removeEv@Base 5.24.3-1
 _ZN14KWaylandServer24ContrastManagerInterfaceC1EPNS_7DisplayEP7QObject@Base 5.24.3-1
 _ZN14KWaylandServer24ContrastManagerInterfaceC2EPNS_7DisplayEP7QObject@Base 5.24.3-1
 _ZN14KWaylandServer24ContrastManagerInterfaceD0Ev@Base 5.24.3-1
 _ZN14KWaylandServer24ContrastManagerInterfaceD1Ev@Base 5.24.3-1
 _ZN14KWaylandServer24ContrastManagerInterfaceD2Ev@Base 5.24.3-1
 _ZN14KWaylandServer24DDEShellSurfaceInterface10setMovableEb@Base 5.24.3-1
 _ZN14KWaylandServer24DDEShellSurfaceInterface11qt_metacallEN11QMetaObject4CallEiPPv@Base 5.24.3-1
 _ZN14KWaylandServer24DDEShellSurfaceInterface11qt_metacastEPKc@Base 5.24.3-1
 _ZN14KWaylandServer24DDEShellSurfaceInterface12sendGeometryERK5QRect@Base 5.24.3-1
 _ZN14KWaylandServer24DDEShellSurfaceInterface12setCloseableEb@Base 5.24.3-1
 _ZN14KWaylandServer24DDEShellSurfaceInterface12setKeepAboveEb@Base 5.24.3-1
 _ZN14KWaylandServer24DDEShellSurfaceInterface12setKeepBelowEb@Base 5.24.3-1
 _ZN14KWaylandServer24DDEShellSurfaceInterface12setMaximizedEb@Base 5.24.3-1
 _ZN14KWaylandServer24DDEShellSurfaceInterface12setMinimizedEb@Base 5.24.3-1
 _ZN14KWaylandServer24DDEShellSurfaceInterface12setResizableEb@Base 5.24.3-1
 _ZN14KWaylandServer24DDEShellSurfaceInterface13setFullscreenEb@Base 5.24.3-1
 _ZN14KWaylandServer24DDEShellSurfaceInterface14setAcceptFocusEb@Base 5.24.3-1
 _ZN14KWaylandServer24DDEShellSurfaceInterface15activeRequestedEb@Base 5.24.3-1
 _ZN14KWaylandServer24DDEShellSurfaceInterface15setMaximizeableEb@Base 5.24.3-1
 _ZN14KWaylandServer24DDEShellSurfaceInterface15setMinimizeableEb@Base 5.24.3-1
 _ZN14KWaylandServer24DDEShellSurfaceInterface16movableRequestedEb@Base 5.24.3-1
 _ZN14KWaylandServer24DDEShellSurfaceInterface16staticMetaObjectE@Base 5.24.3-1
 _ZN14KWaylandServer24DDEShellSurfaceInterface17modalityRequestedEb@Base 5.24.3-1
 _ZN14KWaylandServer24DDEShellSurfaceInterface17setFullscreenableEb@Base 5.24.3-1
 _ZN14KWaylandServer24DDEShellSurfaceInterface18closeableRequestedEb@Base 5.24.3-1
 _ZN14KWaylandServer24DDEShellSurfaceInterface18keepAboveRequestedEb@Base 5.24.3-1
 _ZN14KWaylandServer24DDEShellSurfaceInterface18keepBelowRequestedEb@Base 5.24.3-1
 _ZN14KWaylandServer24DDEShellSurfaceInterface18maximizedRequestedEb@Base 5.24.3-1
 _ZN14KWaylandServer24DDEShellSurfaceInterface18minimizedRequestedEb@Base 5.24.3-1
 _ZN14KWaylandServer24DDEShellSurfaceInterface18resizableRequestedEb@Base 5.24.3-1
 _ZN14KWaylandServer24DDEShellSurfaceInterface19activationRequestedEv@Base 5.24.3-1
 _ZN14KWaylandServer24DDEShellSurfaceInterface19fullscreenRequestedEb@Base 5.24.3-1
 _ZN14KWaylandServer24DDEShellSurfaceInterface20acceptFocusRequestedEb@Base 5.24.3-1
 _ZN14KWaylandServer24DDEShellSurfaceInterface21maximizeableRequestedEb@Base 5.24.3-1
 _ZN14KWaylandServer24DDEShellSurfaceInterface21minimizeableRequestedEb@Base 5.24.3-1
 _ZN14KWaylandServer24DDEShellSurfaceInterface23fullscreenableRequestedEb@Base 5.24.3-1
 _ZN14KWaylandServer24DDEShellSurfaceInterface27noTitleBarPropertyRequestedEi@Base 5.24.3-1
 _ZN14KWaylandServer24DDEShellSurfaceInterface29windowRadiusPropertyRequestedE7QPointF@Base 5.24.3-1
 _ZN14KWaylandServer24DDEShellSurfaceInterface3getEP11wl_resource@Base 5.24.3-1
 _ZN14KWaylandServer24DDEShellSurfaceInterface3getEPNS_16SurfaceInterfaceE@Base 5.24.3-1
 _ZN14KWaylandServer24DDEShellSurfaceInterface8setModalEb@Base 5.24.3-1
 _ZN14KWaylandServer24DDEShellSurfaceInterface9setActiveEb@Base 5.24.3-1
 _ZN14KWaylandServer24DDEShellSurfaceInterfaceC1EPNS_16SurfaceInterfaceEP11wl_resource@Base 5.24.3-1
 _ZN14KWaylandServer24DDEShellSurfaceInterfaceC2EPNS_16SurfaceInterfaceEP11wl_resource@Base 5.24.3-1
 _ZN14KWaylandServer24DDEShellSurfaceInterfaceD0Ev@Base 5.24.3-1
 _ZN14KWaylandServer24DDEShellSurfaceInterfaceD1Ev@Base 5.24.3-1
 _ZN14KWaylandServer24DDEShellSurfaceInterfaceD2Ev@Base 5.24.3-1
 _ZN14KWaylandServer24LockedPointerV1Interface11qt_metacallEN11QMetaObject4CallEiPPv@Base 5.24.3-1
 _ZN14KWaylandServer24LockedPointerV1Interface11qt_metacastEPKc@Base 5.24.3-1
 _ZN14KWaylandServer24LockedPointerV1Interface13lockedChangedEv@Base 5.24.3-1
 _ZN14KWaylandServer24LockedPointerV1Interface13regionChangedEv@Base 5.24.3-1
 _ZN14KWaylandServer24LockedPointerV1Interface16staticMetaObjectE@Base 5.24.3-1
 _ZN14KWaylandServer24LockedPointerV1Interface18aboutToBeDestroyedEv@Base 5.24.3-1
 _ZN14KWaylandServer24LockedPointerV1Interface25cursorPositionHintChangedEv@Base 5.24.3-1
 _ZN14KWaylandServer24LockedPointerV1Interface9setLockedEb@Base 5.24.3-1
 _ZN14KWaylandServer24LockedPointerV1InterfaceC1ENS0_8LifeTimeERK7QRegionP11wl_resource@Base 5.24.3-1
 _ZN14KWaylandServer24LockedPointerV1InterfaceC2ENS0_8LifeTimeERK7QRegionP11wl_resource@Base 5.24.3-1
 _ZN14KWaylandServer24LockedPointerV1InterfaceD0Ev@Base 5.24.3-1
 _ZN14KWaylandServer24LockedPointerV1InterfaceD1Ev@Base 5.24.3-1
 _ZN14KWaylandServer24LockedPointerV1InterfaceD2Ev@Base 5.24.3-1
 _ZN14KWaylandServer24PrimaryOutputV1Interface11qt_metacallEN11QMetaObject4CallEiPPv@Base 5.24.3-1
 _ZN14KWaylandServer24PrimaryOutputV1Interface11qt_metacastEPKc@Base 5.24.3-1
 _ZN14KWaylandServer24PrimaryOutputV1Interface16setPrimaryOutputERK7QString@Base 5.24.3-1
 _ZN14KWaylandServer24PrimaryOutputV1Interface16staticMetaObjectE@Base 5.24.3-1
 _ZN14KWaylandServer24PrimaryOutputV1InterfaceC1EPNS_7DisplayEP7QObject@Base 5.24.3-1
 _ZN14KWaylandServer24PrimaryOutputV1InterfaceC2EPNS_7DisplayEP7QObject@Base 5.24.3-1
 _ZN14KWaylandServer24PrimaryOutputV1InterfaceD0Ev@Base 5.24.3-1
 _ZN14KWaylandServer24PrimaryOutputV1InterfaceD1Ev@Base 5.24.3-1
 _ZN14KWaylandServer24PrimaryOutputV1InterfaceD2Ev@Base 5.24.3-1
 _ZN14KWaylandServer24TabletManagerV2Interface11qt_metacallEN11QMetaObject4CallEiPPv@Base 5.24.3-1
 _ZN14KWaylandServer24TabletManagerV2Interface11qt_metacastEPKc@Base 5.24.3-1
 _ZN14KWaylandServer24TabletManagerV2Interface16staticMetaObjectE@Base 5.24.3-1
 _ZN14KWaylandServer24TabletManagerV2InterfaceC1EPNS_7DisplayEP7QObject@Base 5.24.3-1
 _ZN14KWaylandServer24TabletManagerV2InterfaceC2EPNS_7DisplayEP7QObject@Base 5.24.3-1
 _ZN14KWaylandServer24TabletManagerV2InterfaceD0Ev@Base 5.24.3-1
 _ZN14KWaylandServer24TabletManagerV2InterfaceD1Ev@Base 5.24.3-1
 _ZN14KWaylandServer24TabletManagerV2InterfaceD2Ev@Base 5.24.3-1
 _ZN14KWaylandServer24TabletPadRingV2Interface10sendSourceENS0_6SourceE@Base 5.24.3-1
 _ZN14KWaylandServer24TabletPadRingV2Interface11qt_metacallEN11QMetaObject4CallEiPPv@Base 5.24.3-1
 _ZN14KWaylandServer24TabletPadRingV2Interface11qt_metacastEPKc@Base 5.24.3-1
 _ZN14KWaylandServer24TabletPadRingV2Interface16staticMetaObjectE@Base 5.24.3-1
 _ZN14KWaylandServer24TabletPadRingV2Interface8sendStopEv@Base 5.24.3-1
 _ZN14KWaylandServer24TabletPadRingV2Interface9sendAngleEd@Base 5.24.3-1
 _ZN14KWaylandServer24TabletPadRingV2Interface9sendFrameEj@Base 5.24.3-1
 _ZN14KWaylandServer24TabletPadRingV2InterfaceC1EPNS_20TabletPadV2InterfaceE@Base 5.24.3-1
 _ZN14KWaylandServer24TabletPadRingV2InterfaceC2EPNS_20TabletPadV2InterfaceE@Base 5.24.3-1
 _ZN14KWaylandServer24TabletPadRingV2InterfaceD0Ev@Base 5.24.3-1
 _ZN14KWaylandServer24TabletPadRingV2InterfaceD1Ev@Base 5.24.3-1
 _ZN14KWaylandServer24TabletPadRingV2InterfaceD2Ev@Base 5.24.3-1
 _ZN14KWaylandServer24XdgActivationV1Interface11qt_metacallEN11QMetaObject4CallEiPPv@Base 5.24.3-1
 _ZN14KWaylandServer24XdgActivationV1Interface11qt_metacastEPKc@Base 5.24.3-1
 _ZN14KWaylandServer24XdgActivationV1Interface16staticMetaObjectE@Base 5.24.3-1
 _ZN14KWaylandServer24XdgActivationV1Interface17activateRequestedEPNS_16SurfaceInterfaceERK7QString@Base 5.24.3-1
 _ZN14KWaylandServer24XdgActivationV1Interface25setActivationTokenCreatorERKSt8functionIF7QStringPNS_16ClientConnectionEPNS_16SurfaceInterfaceEjPNS_13SeatInterfaceERKS2_EE@Base 5.24.3-1
 _ZN14KWaylandServer24XdgActivationV1InterfaceC1EPNS_7DisplayEP7QObject@Base 5.24.3-1
 _ZN14KWaylandServer24XdgActivationV1InterfaceC2EPNS_7DisplayEP7QObject@Base 5.24.3-1
 _ZN14KWaylandServer24XdgActivationV1InterfaceD0Ev@Base 5.24.3-1
 _ZN14KWaylandServer24XdgActivationV1InterfaceD1Ev@Base 5.24.3-1
 _ZN14KWaylandServer24XdgActivationV1InterfaceD2Ev@Base 5.24.3-1
 _ZN14KWaylandServer25ClientManagementInterface11qt_metacallEN11QMetaObject4CallEiPPv@Base 5.24.3-1
 _ZN14KWaylandServer25ClientManagementInterface11qt_metacastEPKc@Base 5.24.3-1
 _ZN14KWaylandServer25ClientManagementInterface15setWindowStatesER5QListIPNS0_11WindowStateEE@Base 5.24.3-1
 _ZN14KWaylandServer25ClientManagementInterface16staticMetaObjectE@Base 5.24.3-1
 _ZN14KWaylandServer25ClientManagementInterface17sendWindowCaptionEiP11wl_resourcePNS_16SurfaceInterfaceE@Base 5.24.3-1
 _ZN14KWaylandServer25ClientManagementInterface19windowStatesChangedEv@Base 5.24.3-1
 _ZN14KWaylandServer25ClientManagementInterface19windowStatesRequestEv@Base 5.24.3-1
 _ZN14KWaylandServer25ClientManagementInterface22sendWindowCaptionImageEiP11wl_resource6QImage@Base 5.24.3-1
 _ZN14KWaylandServer25ClientManagementInterface25captureWindowImageRequestEiP11wl_resource@Base 5.24.3-1
 _ZN14KWaylandServer25ClientManagementInterface3getEP11wl_resource@Base 5.24.3-1
 _ZN14KWaylandServer25ClientManagementInterfaceC1EPNS_7DisplayEP7QObject@Base 5.24.3-1
 _ZN14KWaylandServer25ClientManagementInterfaceC2EPNS_7DisplayEP7QObject@Base 5.24.3-1
 _ZN14KWaylandServer25ClientManagementInterfaceD0Ev@Base 5.24.3-1
 _ZN14KWaylandServer25ClientManagementInterfaceD1Ev@Base 5.24.3-1
 _ZN14KWaylandServer25ClientManagementInterfaceD2Ev@Base 5.24.3-1
 _ZN14KWaylandServer25DrmLeaseDeviceV1Interface11qt_metacallEN11QMetaObject4CallEiPPv@Base 5.24.3-1
 _ZN14KWaylandServer25DrmLeaseDeviceV1Interface11qt_metacastEPKc@Base 5.24.3-1
 _ZN14KWaylandServer25DrmLeaseDeviceV1Interface12leaseRevokedEPNS_19DrmLeaseV1InterfaceE@Base 5.24.3-1
 _ZN14KWaylandServer25DrmLeaseDeviceV1Interface12setDrmMasterEb@Base 5.24.3-1
 _ZN14KWaylandServer25DrmLeaseDeviceV1Interface14leaseRequestedEPNS_19DrmLeaseV1InterfaceE@Base 5.24.3-1
 _ZN14KWaylandServer25DrmLeaseDeviceV1Interface16staticMetaObjectE@Base 5.24.3-1
 _ZN14KWaylandServer25DrmLeaseDeviceV1InterfaceC1EPNS_7DisplayESt8functionIFivEE@Base 5.24.3-1
 _ZN14KWaylandServer25DrmLeaseDeviceV1InterfaceC2EPNS_7DisplayESt8functionIFivEE@Base 5.24.3-1
 _ZN14KWaylandServer25DrmLeaseDeviceV1InterfaceD0Ev@Base 5.24.3-1
 _ZN14KWaylandServer25DrmLeaseDeviceV1InterfaceD1Ev@Base 5.24.3-1
 _ZN14KWaylandServer25DrmLeaseDeviceV1InterfaceD2Ev@Base 5.24.3-1
 _ZN14KWaylandServer25LinuxDmaBufV1ClientBuffer10initializeEP11wl_resource@Base 5.24.3-1
 _ZN14KWaylandServer25LinuxDmaBufV1ClientBuffer11qt_metacallEN11QMetaObject4CallEiPPv@Base 5.24.3-1
 _ZN14KWaylandServer25LinuxDmaBufV1ClientBuffer11qt_metacastEPKc@Base 5.24.3-1
 _ZN14KWaylandServer25LinuxDmaBufV1ClientBuffer16staticMetaObjectE@Base 5.24.3-1
 _ZN14KWaylandServer25LinuxDmaBufV1ClientBufferC1ERK5QSizejjRK7QVectorINS_18LinuxDmaBufV1PlaneEE@Base 5.24.3-1
 _ZN14KWaylandServer25LinuxDmaBufV1ClientBufferC2ERK5QSizejjRK7QVectorINS_18LinuxDmaBufV1PlaneEE@Base 5.24.3-1
 _ZN14KWaylandServer25LinuxDmaBufV1ClientBufferD0Ev@Base 5.24.3-1
 _ZN14KWaylandServer25LinuxDmaBufV1ClientBufferD1Ev@Base 5.24.3-1
 _ZN14KWaylandServer25LinuxDmaBufV1ClientBufferD2Ev@Base 5.24.3-1
 _ZN14KWaylandServer25TabletPadGroupV2Interface11qt_metacallEN11QMetaObject4CallEiPPv@Base 5.24.3-1
 _ZN14KWaylandServer25TabletPadGroupV2Interface11qt_metacastEPKc@Base 5.24.3-1
 _ZN14KWaylandServer25TabletPadGroupV2Interface14sendModeSwitchEjjj@Base 5.24.3-1
 _ZN14KWaylandServer25TabletPadGroupV2Interface16staticMetaObjectE@Base 5.24.3-1
 _ZN14KWaylandServer25TabletPadGroupV2InterfaceC1EjPNS_20TabletPadV2InterfaceE@Base 5.24.3-1
 _ZN14KWaylandServer25TabletPadGroupV2InterfaceC2EjPNS_20TabletPadV2InterfaceE@Base 5.24.3-1
 _ZN14KWaylandServer25TabletPadGroupV2InterfaceD0Ev@Base 5.24.3-1
 _ZN14KWaylandServer25TabletPadGroupV2InterfaceD1Ev@Base 5.24.3-1
 _ZN14KWaylandServer25TabletPadGroupV2InterfaceD2Ev@Base 5.24.3-1
 _ZN14KWaylandServer25TabletPadStripV2Interface10sendSourceENS0_6SourceE@Base 5.24.3-1
 _ZN14KWaylandServer25TabletPadStripV2Interface11qt_metacallEN11QMetaObject4CallEiPPv@Base 5.24.3-1
 _ZN14KWaylandServer25TabletPadStripV2Interface11qt_metacastEPKc@Base 5.24.3-1
 _ZN14KWaylandServer25TabletPadStripV2Interface12sendPositionEj@Base 5.24.3-1
 _ZN14KWaylandServer25TabletPadStripV2Interface16staticMetaObjectE@Base 5.24.3-1
 _ZN14KWaylandServer25TabletPadStripV2Interface8sendStopEv@Base 5.24.3-1
 _ZN14KWaylandServer25TabletPadStripV2Interface9sendFrameEj@Base 5.24.3-1
 _ZN14KWaylandServer25TabletPadStripV2InterfaceC1EPNS_20TabletPadV2InterfaceE@Base 5.24.3-1
 _ZN14KWaylandServer25TabletPadStripV2InterfaceC2EPNS_20TabletPadV2InterfaceE@Base 5.24.3-1
 _ZN14KWaylandServer25TabletPadStripV2InterfaceD0Ev@Base 5.24.3-1
 _ZN14KWaylandServer25TabletPadStripV2InterfaceD1Ev@Base 5.24.3-1
 _ZN14KWaylandServer25TabletPadStripV2InterfaceD2Ev@Base 5.24.3-1
 _ZN14KWaylandServer26ConfinedPointerV1Interface11qt_metacallEN11QMetaObject4CallEiPPv@Base 5.24.3-1
 _ZN14KWaylandServer26ConfinedPointerV1Interface11qt_metacastEPKc@Base 5.24.3-1
 _ZN14KWaylandServer26ConfinedPointerV1Interface11setConfinedEb@Base 5.24.3-1
 _ZN14KWaylandServer26ConfinedPointerV1Interface13regionChangedEv@Base 5.24.3-1
 _ZN14KWaylandServer26ConfinedPointerV1Interface15confinedChangedEv@Base 5.24.3-1
 _ZN14KWaylandServer26ConfinedPointerV1Interface16staticMetaObjectE@Base 5.24.3-1
 _ZN14KWaylandServer26ConfinedPointerV1InterfaceC1ENS0_8LifeTimeERK7QRegionP11wl_resource@Base 5.24.3-1
 _ZN14KWaylandServer26ConfinedPointerV1InterfaceC2ENS0_8LifeTimeERK7QRegionP11wl_resource@Base 5.24.3-1
 _ZN14KWaylandServer26ConfinedPointerV1InterfaceD0Ev@Base 5.24.3-1
 _ZN14KWaylandServer26ConfinedPointerV1InterfaceD1Ev@Base 5.24.3-1
 _ZN14KWaylandServer26ConfinedPointerV1InterfaceD2Ev@Base 5.24.3-1
 _ZN14KWaylandServer26DataDeviceManagerInterface11qt_metacallEN11QMetaObject4CallEiPPv@Base 5.24.3-1
 _ZN14KWaylandServer26DataDeviceManagerInterface11qt_metacastEPKc@Base 5.24.3-1
 _ZN14KWaylandServer26DataDeviceManagerInterface16staticMetaObjectE@Base 5.24.3-1
 _ZN14KWaylandServer26DataDeviceManagerInterface17dataDeviceCreatedEPNS_19DataDeviceInterfaceE@Base 5.24.3-1
 _ZN14KWaylandServer26DataDeviceManagerInterface17dataSourceCreatedEPNS_19DataSourceInterfaceE@Base 5.24.3-1
 _ZN14KWaylandServer26DataDeviceManagerInterfaceC1EPNS_7DisplayEP7QObject@Base 5.24.3-1
 _ZN14KWaylandServer26DataDeviceManagerInterfaceC2EPNS_7DisplayEP7QObject@Base 5.24.3-1
 _ZN14KWaylandServer26DataDeviceManagerInterfaceD0Ev@Base 5.24.3-1
 _ZN14KWaylandServer26DataDeviceManagerInterfaceD1Ev@Base 5.24.3-1
 _ZN14KWaylandServer26DataDeviceManagerInterfaceD2Ev@Base 5.24.3-1
 _ZN14KWaylandServer26DrmClientBufferIntegration11qt_metacallEN11QMetaObject4CallEiPPv@Base 5.24.3-1
 _ZN14KWaylandServer26DrmClientBufferIntegration11qt_metacastEPKc@Base 5.24.3-1
 _ZN14KWaylandServer26DrmClientBufferIntegration12createBufferEP11wl_resource@Base 5.24.3-1
 _ZN14KWaylandServer26DrmClientBufferIntegration16staticMetaObjectE@Base 5.24.3-1
 _ZN14KWaylandServer26DrmClientBufferIntegrationC1EPNS_7DisplayE@Base 5.24.3-1
 _ZN14KWaylandServer26DrmClientBufferIntegrationC2EPNS_7DisplayE@Base 5.24.3-1
 _ZN14KWaylandServer26PointerGesturesV1Interface11qt_metacallEN11QMetaObject4CallEiPPv@Base 5.24.3-1
 _ZN14KWaylandServer26PointerGesturesV1Interface11qt_metacastEPKc@Base 5.24.3-1
 _ZN14KWaylandServer26PointerGesturesV1Interface16staticMetaObjectE@Base 5.24.3-1
 _ZN14KWaylandServer26PointerGesturesV1InterfaceC1EPNS_7DisplayEP7QObject@Base 5.24.3-1
 _ZN14KWaylandServer26PointerGesturesV1InterfaceC2EPNS_7DisplayEP7QObject@Base 5.24.3-1
 _ZN14KWaylandServer26PointerGesturesV1InterfaceD0Ev@Base 5.24.3-1
 _ZN14KWaylandServer26PointerGesturesV1InterfaceD1Ev@Base 5.24.3-1
 _ZN14KWaylandServer26PointerGesturesV1InterfaceD2Ev@Base 5.24.3-1
 _ZN14KWaylandServer27DataControlOfferV1Interface11qt_metacallEN11QMetaObject4CallEiPPv@Base 5.24.3-1
 _ZN14KWaylandServer27DataControlOfferV1Interface11qt_metacastEPKc@Base 5.24.3-1
 _ZN14KWaylandServer27DataControlOfferV1Interface13sendAllOffersEv@Base 5.24.3-1
 _ZN14KWaylandServer27DataControlOfferV1Interface16staticMetaObjectE@Base 5.24.3-1
 _ZN14KWaylandServer27DataControlOfferV1InterfaceC1EPNS_18AbstractDataSourceEP11wl_resource@Base 5.24.3-1
 _ZN14KWaylandServer27DataControlOfferV1InterfaceC2EPNS_18AbstractDataSourceEP11wl_resource@Base 5.24.3-1
 _ZN14KWaylandServer27DataControlOfferV1InterfaceD0Ev@Base 5.24.3-1
 _ZN14KWaylandServer27DataControlOfferV1InterfaceD1Ev@Base 5.24.3-1
 _ZN14KWaylandServer27DataControlOfferV1InterfaceD2Ev@Base 5.24.3-1
 _ZN14KWaylandServer27OutputDeviceModeV2Interface11qt_metacallEN11QMetaObject4CallEiPPv@Base 5.24.3-1
 _ZN14KWaylandServer27OutputDeviceModeV2Interface11qt_metacastEPKc@Base 5.24.3-1
 _ZN14KWaylandServer27OutputDeviceModeV2Interface16staticMetaObjectE@Base 5.24.3-1
 _ZN14KWaylandServer27OutputDeviceModeV2Interface3getEP11wl_resource@Base 5.24.3-1
 _ZN14KWaylandServer27OutputDeviceModeV2Interface8setFlagsE6QFlagsINS0_8ModeFlagEE@Base 5.24.3-1
 _ZN14KWaylandServer27OutputDeviceModeV2InterfaceC1ERK5QSizei6QFlagsINS0_8ModeFlagEEP7QObject@Base 5.24.3-1
 _ZN14KWaylandServer27OutputDeviceModeV2InterfaceC2ERK5QSizei6QFlagsINS0_8ModeFlagEEP7QObject@Base 5.24.3-1
 _ZN14KWaylandServer27OutputDeviceModeV2InterfaceD0Ev@Base 5.24.3-1
 _ZN14KWaylandServer27OutputDeviceModeV2InterfaceD1Ev@Base 5.24.3-1
 _ZN14KWaylandServer27OutputDeviceModeV2InterfaceD2Ev@Base 5.24.3-1
 _ZN14KWaylandServer27OutputManagementV2Interface11qt_metacallEN11QMetaObject4CallEiPPv@Base 5.24.3-1
 _ZN14KWaylandServer27OutputManagementV2Interface11qt_metacastEPKc@Base 5.24.3-1
 _ZN14KWaylandServer27OutputManagementV2Interface16staticMetaObjectE@Base 5.24.3-1
 _ZN14KWaylandServer27OutputManagementV2Interface28configurationChangeRequestedEPNS_30OutputConfigurationV2InterfaceE@Base 5.24.3-1
 _ZN14KWaylandServer27OutputManagementV2InterfaceC1EPNS_7DisplayEP7QObject@Base 5.24.3-1
 _ZN14KWaylandServer27OutputManagementV2InterfaceC2EPNS_7DisplayEP7QObject@Base 5.24.3-1
 _ZN14KWaylandServer27OutputManagementV2InterfaceD0Ev@Base 5.24.3-1
 _ZN14KWaylandServer27OutputManagementV2InterfaceD1Ev@Base 5.24.3-1
 _ZN14KWaylandServer27OutputManagementV2InterfaceD2Ev@Base 5.24.3-1
 _ZN14KWaylandServer27PlasmaShellSurfaceInterface11qt_metacallEN11QMetaObject4CallEiPPv@Base 5.24.3-1
 _ZN14KWaylandServer27PlasmaShellSurfaceInterface11qt_metacastEPKc@Base 5.24.3-1
 _ZN14KWaylandServer27PlasmaShellSurfaceInterface11roleChangedEv@Base 5.24.3-1
 _ZN14KWaylandServer27PlasmaShellSurfaceInterface15positionChangedEv@Base 5.24.3-1
 _ZN14KWaylandServer27PlasmaShellSurfaceInterface16resetPositionSetEv@Base 5.24.3-1
 _ZN14KWaylandServer27PlasmaShellSurfaceInterface16staticMetaObjectE@Base 5.24.3-1
 _ZN14KWaylandServer27PlasmaShellSurfaceInterface18skipTaskbarChangedEv@Base 5.24.3-1
 _ZN14KWaylandServer27PlasmaShellSurfaceInterface19hideAutoHidingPanelEv@Base 5.24.3-1
 _ZN14KWaylandServer27PlasmaShellSurfaceInterface19showAutoHidingPanelEv@Base 5.24.3-1
 _ZN14KWaylandServer27PlasmaShellSurfaceInterface19skipSwitcherChangedEv@Base 5.24.3-1
 _ZN14KWaylandServer27PlasmaShellSurfaceInterface20panelBehaviorChangedEv@Base 5.24.3-1
 _ZN14KWaylandServer27PlasmaShellSurfaceInterface22panelTakesFocusChangedEv@Base 5.24.3-1
 _ZN14KWaylandServer27PlasmaShellSurfaceInterface26panelAutoHideHideRequestedEv@Base 5.24.3-1
 _ZN14KWaylandServer27PlasmaShellSurfaceInterface26panelAutoHideShowRequestedEv@Base 5.24.3-1
 _ZN14KWaylandServer27PlasmaShellSurfaceInterface3getEP11wl_resource@Base 5.24.3-1
 _ZN14KWaylandServer27PlasmaShellSurfaceInterface3getEPNS_16SurfaceInterfaceE@Base 5.24.3-1
 _ZN14KWaylandServer27PlasmaShellSurfaceInterfaceC1EPNS_16SurfaceInterfaceEP11wl_resource@Base 5.24.3-1
 _ZN14KWaylandServer27PlasmaShellSurfaceInterfaceC2EPNS_16SurfaceInterfaceEP11wl_resource@Base 5.24.3-1
 _ZN14KWaylandServer27PlasmaShellSurfaceInterfaceD0Ev@Base 5.24.3-1
 _ZN14KWaylandServer27PlasmaShellSurfaceInterfaceD1Ev@Base 5.24.3-1
 _ZN14KWaylandServer27PlasmaShellSurfaceInterfaceD2Ev@Base 5.24.3-1
 _ZN14KWaylandServer27ScreencastStreamV1Interface10sendClosedEv@Base 5.24.3-1
 _ZN14KWaylandServer27ScreencastStreamV1Interface10sendFailedERK7QString@Base 5.24.3-1
 _ZN14KWaylandServer27ScreencastStreamV1Interface11qt_metacallEN11QMetaObject4CallEiPPv@Base 5.24.3-1
 _ZN14KWaylandServer27ScreencastStreamV1Interface11qt_metacastEPKc@Base 5.24.3-1
 _ZN14KWaylandServer27ScreencastStreamV1Interface11sendCreatedEj@Base 5.24.3-1
 _ZN14KWaylandServer27ScreencastStreamV1Interface16staticMetaObjectE@Base 5.24.3-1
 _ZN14KWaylandServer27ScreencastStreamV1Interface8finishedEv@Base 5.24.3-1
 _ZN14KWaylandServer27ScreencastStreamV1InterfaceC1EP7QObject@Base 5.24.3-1
 _ZN14KWaylandServer27ScreencastStreamV1InterfaceC2EP7QObject@Base 5.24.3-1
 _ZN14KWaylandServer27ScreencastStreamV1InterfaceD0Ev@Base 5.24.3-1
 _ZN14KWaylandServer27ScreencastStreamV1InterfaceD1Ev@Base 5.24.3-1
 _ZN14KWaylandServer27ScreencastStreamV1InterfaceD2Ev@Base 5.24.3-1
 _ZN14KWaylandServer27TextInputManagerV2Interface11qt_metacallEN11QMetaObject4CallEiPPv@Base 5.24.3-1
 _ZN14KWaylandServer27TextInputManagerV2Interface11qt_metacastEPKc@Base 5.24.3-1
 _ZN14KWaylandServer27TextInputManagerV2Interface16staticMetaObjectE@Base 5.24.3-1
 _ZN14KWaylandServer27TextInputManagerV2InterfaceC1EPNS_7DisplayEP7QObject@Base 5.24.3-1
 _ZN14KWaylandServer27TextInputManagerV2InterfaceC2EPNS_7DisplayEP7QObject@Base 5.24.3-1
 _ZN14KWaylandServer27TextInputManagerV2InterfaceD0Ev@Base 5.24.3-1
 _ZN14KWaylandServer27TextInputManagerV2InterfaceD1Ev@Base 5.24.3-1
 _ZN14KWaylandServer27TextInputManagerV2InterfaceD2Ev@Base 5.24.3-1
 _ZN14KWaylandServer27TextInputManagerV3Interface11qt_metacallEN11QMetaObject4CallEiPPv@Base 5.24.3-1
 _ZN14KWaylandServer27TextInputManagerV3Interface11qt_metacastEPKc@Base 5.24.3-1
 _ZN14KWaylandServer27TextInputManagerV3Interface16staticMetaObjectE@Base 5.24.3-1
 _ZN14KWaylandServer27TextInputManagerV3InterfaceC1EPNS_7DisplayEP7QObject@Base 5.24.3-1
 _ZN14KWaylandServer27TextInputManagerV3InterfaceC2EPNS_7DisplayEP7QObject@Base 5.24.3-1
 _ZN14KWaylandServer27TextInputManagerV3InterfaceD0Ev@Base 5.24.3-1
 _ZN14KWaylandServer27TextInputManagerV3InterfaceD1Ev@Base 5.24.3-1
 _ZN14KWaylandServer27TextInputManagerV3InterfaceD2Ev@Base 5.24.3-1
 _ZN14KWaylandServer27XdgOutputManagerV1Interface11qt_metacallEN11QMetaObject4CallEiPPv@Base 5.24.3-1
 _ZN14KWaylandServer27XdgOutputManagerV1Interface11qt_metacastEPKc@Base 5.24.3-1
 _ZN14KWaylandServer27XdgOutputManagerV1Interface15createXdgOutputEPNS_15OutputInterfaceEP7QObject@Base 5.24.3-1
 _ZN14KWaylandServer27XdgOutputManagerV1Interface16staticMetaObjectE@Base 5.24.3-1
 _ZN14KWaylandServer27XdgOutputManagerV1InterfaceC1EPNS_7DisplayEP7QObject@Base 5.24.3-1
 _ZN14KWaylandServer27XdgOutputManagerV1InterfaceC2EPNS_7DisplayEP7QObject@Base 5.24.3-1
 _ZN14KWaylandServer27XdgOutputManagerV1InterfaceD0Ev@Base 5.24.3-1
 _ZN14KWaylandServer27XdgOutputManagerV1InterfaceD1Ev@Base 5.24.3-1
 _ZN14KWaylandServer27XdgOutputManagerV1InterfaceD2Ev@Base 5.24.3-1
 _ZN14KWaylandServer28DataControlDeviceV1Interface11qt_metacallEN11QMetaObject4CallEiPPv@Base 5.24.3-1
 _ZN14KWaylandServer28DataControlDeviceV1Interface11qt_metacastEPKc@Base 5.24.3-1
 _ZN14KWaylandServer28DataControlDeviceV1Interface13sendSelectionEPNS_18AbstractDataSourceE@Base 5.24.3-1
 _ZN14KWaylandServer28DataControlDeviceV1Interface16selectionChangedEPNS_28DataControlSourceV1InterfaceE@Base 5.24.3-1
 _ZN14KWaylandServer28DataControlDeviceV1Interface16selectionClearedEv@Base 5.24.3-1
 _ZN14KWaylandServer28DataControlDeviceV1Interface16staticMetaObjectE@Base 5.24.3-1
 _ZN14KWaylandServer28DataControlDeviceV1Interface18sendClearSelectionEv@Base 5.24.3-1
 _ZN14KWaylandServer28DataControlDeviceV1Interface20sendPrimarySelectionEPNS_18AbstractDataSourceE@Base 5.24.3-1
 _ZN14KWaylandServer28DataControlDeviceV1Interface23primarySelectionChangedEPNS_28DataControlSourceV1InterfaceE@Base 5.24.3-1
 _ZN14KWaylandServer28DataControlDeviceV1Interface25sendClearPrimarySelectionEv@Base 5.24.3-1
 _ZN14KWaylandServer28DataControlDeviceV1InterfaceC1EPNS_13SeatInterfaceEP11wl_resource@Base 5.24.3-1
 _ZN14KWaylandServer28DataControlDeviceV1InterfaceC2EPNS_13SeatInterfaceEP11wl_resource@Base 5.24.3-1
 _ZN14KWaylandServer28DataControlDeviceV1InterfaceD0Ev@Base 5.24.3-1
 _ZN14KWaylandServer28DataControlDeviceV1InterfaceD1Ev@Base 5.24.3-1
 _ZN14KWaylandServer28DataControlDeviceV1InterfaceD2Ev@Base 5.24.3-1
 _ZN14KWaylandServer28DataControlSourceV1Interface11qt_metacallEN11QMetaObject4CallEiPPv@Base 5.24.3-1
 _ZN14KWaylandServer28DataControlSourceV1Interface11qt_metacastEPKc@Base 5.24.3-1
 _ZN14KWaylandServer28DataControlSourceV1Interface11requestDataERK7QStringi@Base 5.24.3-1
 _ZN14KWaylandServer28DataControlSourceV1Interface16staticMetaObjectE@Base 5.24.3-1
 _ZN14KWaylandServer28DataControlSourceV1Interface3getEP11wl_resource@Base 5.24.3-1
 _ZN14KWaylandServer28DataControlSourceV1Interface6cancelEv@Base 5.24.3-1
 _ZN14KWaylandServer28DataControlSourceV1InterfaceC1EPNS_35DataControlDeviceManagerV1InterfaceEP11wl_resource@Base 5.24.3-1
 _ZN14KWaylandServer28DataControlSourceV1InterfaceC2EPNS_35DataControlDeviceManagerV1InterfaceEP11wl_resource@Base 5.24.3-1
 _ZN14KWaylandServer28DataControlSourceV1InterfaceD0Ev@Base 5.24.3-1
 _ZN14KWaylandServer28DataControlSourceV1InterfaceD1Ev@Base 5.24.3-1
 _ZN14KWaylandServer28DataControlSourceV1InterfaceD2Ev@Base 5.24.3-1
 _ZN14KWaylandServer28DrmLeaseConnectorV1Interface11qt_metacallEN11QMetaObject4CallEiPPv@Base 5.24.3-1
 _ZN14KWaylandServer28DrmLeaseConnectorV1Interface11qt_metacastEPKc@Base 5.24.3-1
 _ZN14KWaylandServer28DrmLeaseConnectorV1Interface16staticMetaObjectE@Base 5.24.3-1
 _ZN14KWaylandServer28DrmLeaseConnectorV1Interface3getEP11wl_resource@Base 5.24.3-1
 _ZN14KWaylandServer28DrmLeaseConnectorV1InterfaceC1EPNS_25DrmLeaseDeviceV1InterfaceEjRK7QStringS5_@Base 5.24.3-1
 _ZN14KWaylandServer28DrmLeaseConnectorV1InterfaceC2EPNS_25DrmLeaseDeviceV1InterfaceEjRK7QStringS5_@Base 5.24.3-1
 _ZN14KWaylandServer28DrmLeaseConnectorV1InterfaceD0Ev@Base 5.24.3-1
 _ZN14KWaylandServer28DrmLeaseConnectorV1InterfaceD1Ev@Base 5.24.3-1
 _ZN14KWaylandServer28DrmLeaseConnectorV1InterfaceD2Ev@Base 5.24.3-1
 _ZN14KWaylandServer28InputPanelSurfaceV1Interface11qt_metacallEN11QMetaObject4CallEiPPv@Base 5.24.3-1
 _ZN14KWaylandServer28InputPanelSurfaceV1Interface11qt_metacastEPKc@Base 5.24.3-1
 _ZN14KWaylandServer28InputPanelSurfaceV1Interface12overlayPanelEv@Base 5.24.3-1
 _ZN14KWaylandServer28InputPanelSurfaceV1Interface16staticMetaObjectE@Base 5.24.3-1
 _ZN14KWaylandServer28InputPanelSurfaceV1Interface8topLevelEPNS_15OutputInterfaceENS0_8PositionE@Base 5.24.3-1
 _ZN14KWaylandServer28InputPanelSurfaceV1InterfaceC1EPNS_16SurfaceInterfaceEjP7QObject@Base 5.24.3-1
 _ZN14KWaylandServer28InputPanelSurfaceV1InterfaceC2EPNS_16SurfaceInterfaceEjP7QObject@Base 5.24.3-1
 _ZN14KWaylandServer28InputPanelSurfaceV1InterfaceD0Ev@Base 5.24.3-1
 _ZN14KWaylandServer28InputPanelSurfaceV1InterfaceD1Ev@Base 5.24.3-1
 _ZN14KWaylandServer28InputPanelSurfaceV1InterfaceD2Ev@Base 5.24.3-1
 _ZN14KWaylandServer29IdleInhibitManagerV1Interface11qt_metacallEN11QMetaObject4CallEiPPv@Base 5.24.3-1
 _ZN14KWaylandServer29IdleInhibitManagerV1Interface11qt_metacastEPKc@Base 5.24.3-1
 _ZN14KWaylandServer29IdleInhibitManagerV1Interface16staticMetaObjectE@Base 5.24.3-1
 _ZN14KWaylandServer29IdleInhibitManagerV1InterfaceC1EPNS_7DisplayEP7QObject@Base 5.24.3-1
 _ZN14KWaylandServer29IdleInhibitManagerV1InterfaceC2EPNS_7DisplayEP7QObject@Base 5.24.3-1
 _ZN14KWaylandServer29IdleInhibitManagerV1InterfaceD0Ev@Base 5.24.3-1
 _ZN14KWaylandServer29IdleInhibitManagerV1InterfaceD1Ev@Base 5.24.3-1
 _ZN14KWaylandServer29IdleInhibitManagerV1InterfaceD2Ev@Base 5.24.3-1
 _ZN14KWaylandServer29InputMethodContextV1Interface11qt_metacallEN11QMetaObject4CallEiPPv@Base 5.24.3-1
 _ZN14KWaylandServer29InputMethodContextV1Interface11qt_metacastEPKc@Base 5.24.3-1
 _ZN14KWaylandServer29InputMethodContextV1Interface12commitStringEjRK7QString@Base 5.24.3-1
 _ZN14KWaylandServer29InputMethodContextV1Interface12modifiersMapERK10QByteArray@Base 5.24.3-1
 _ZN14KWaylandServer29InputMethodContextV1Interface13preeditCursorEi@Base 5.24.3-1
 _ZN14KWaylandServer29InputMethodContextV1Interface13preeditStringEjRK7QStringS3_@Base 5.24.3-1
 _ZN14KWaylandServer29InputMethodContextV1Interface13textDirectionEjN2Qt15LayoutDirectionE@Base 5.24.3-1
 _ZN14KWaylandServer29InputMethodContextV1Interface14cursorPositionEii@Base 5.24.3-1
 _ZN14KWaylandServer29InputMethodContextV1Interface14preeditStylingEjjj@Base 5.24.3-1
 _ZN14KWaylandServer29InputMethodContextV1Interface15sendCommitStateEj@Base 5.24.3-1
 _ZN14KWaylandServer29InputMethodContextV1Interface15sendContentTypeE6QFlagsINS_20TextInputContentHintEENS_23TextInputContentPurposeE@Base 5.24.3-1
 _ZN14KWaylandServer29InputMethodContextV1Interface16sendInvokeActionEjj@Base 5.24.3-1
 _ZN14KWaylandServer29InputMethodContextV1Interface16staticMetaObjectE@Base 5.24.3-1
 _ZN14KWaylandServer29InputMethodContextV1Interface19sendSurroundingTextERK7QStringjj@Base 5.24.3-1
 _ZN14KWaylandServer29InputMethodContextV1Interface21deleteSurroundingTextEij@Base 5.24.3-1
 _ZN14KWaylandServer29InputMethodContextV1Interface21keyboardGrabRequestedEPNS_17InputMethodGrabV1E@Base 5.24.3-1
 _ZN14KWaylandServer29InputMethodContextV1Interface21sendPreferredLanguageERK7QString@Base 5.24.3-1
 _ZN14KWaylandServer29InputMethodContextV1Interface3keyEjjjb@Base 5.24.3-1
 _ZN14KWaylandServer29InputMethodContextV1Interface6keysymEjjjbj@Base 5.24.3-1
 _ZN14KWaylandServer29InputMethodContextV1Interface8languageEjRK7QString@Base 5.24.3-1
 _ZN14KWaylandServer29InputMethodContextV1Interface9modifiersEjjjjj@Base 5.24.3-1
 _ZN14KWaylandServer29InputMethodContextV1Interface9sendResetEv@Base 5.24.3-1
 _ZN14KWaylandServer29InputMethodContextV1InterfaceC1EPNS_22InputMethodV1InterfaceE@Base 5.24.3-1
 _ZN14KWaylandServer29InputMethodContextV1InterfaceC2EPNS_22InputMethodV1InterfaceE@Base 5.24.3-1
 _ZN14KWaylandServer29InputMethodContextV1InterfaceD0Ev@Base 5.24.3-1
 _ZN14KWaylandServer29InputMethodContextV1InterfaceD1Ev@Base 5.24.3-1
 _ZN14KWaylandServer29InputMethodContextV1InterfaceD2Ev@Base 5.24.3-1
 _ZN14KWaylandServer29PlasmaVirtualDesktopInterface11qt_metacallEN11QMetaObject4CallEiPPv@Base 5.24.3-1
 _ZN14KWaylandServer29PlasmaVirtualDesktopInterface11qt_metacastEPKc@Base 5.24.3-1
 _ZN14KWaylandServer29PlasmaVirtualDesktopInterface16staticMetaObjectE@Base 5.24.3-1
 _ZN14KWaylandServer29PlasmaVirtualDesktopInterface17activateRequestedEv@Base 5.24.3-1
 _ZN14KWaylandServer29PlasmaVirtualDesktopInterface7setNameERK7QString@Base 5.24.3-1
 _ZN14KWaylandServer29PlasmaVirtualDesktopInterface8sendDoneEv@Base 5.24.3-1
 _ZN14KWaylandServer29PlasmaVirtualDesktopInterface9setActiveEb@Base 5.24.3-1
 _ZN14KWaylandServer29PlasmaVirtualDesktopInterfaceC1EPNS_39PlasmaVirtualDesktopManagementInterfaceE@Base 5.24.3-1
 _ZN14KWaylandServer29PlasmaVirtualDesktopInterfaceC2EPNS_39PlasmaVirtualDesktopManagementInterfaceE@Base 5.24.3-1
 _ZN14KWaylandServer29PlasmaVirtualDesktopInterfaceD0Ev@Base 5.24.3-1
 _ZN14KWaylandServer29PlasmaVirtualDesktopInterfaceD1Ev@Base 5.24.3-1
 _ZN14KWaylandServer29PlasmaVirtualDesktopInterfaceD2Ev@Base 5.24.3-1
 _ZN14KWaylandServer29PointerConstraintsV1Interface11qt_metacallEN11QMetaObject4CallEiPPv@Base 5.24.3-1
 _ZN14KWaylandServer29PointerConstraintsV1Interface11qt_metacastEPKc@Base 5.24.3-1
 _ZN14KWaylandServer29PointerConstraintsV1Interface16staticMetaObjectE@Base 5.24.3-1
 _ZN14KWaylandServer29PointerConstraintsV1InterfaceC1EPNS_7DisplayEP7QObject@Base 5.24.3-1
 _ZN14KWaylandServer29PointerConstraintsV1InterfaceC2EPNS_7DisplayEP7QObject@Base 5.24.3-1
 _ZN14KWaylandServer29PointerConstraintsV1InterfaceD0Ev@Base 5.24.3-1
 _ZN14KWaylandServer29PointerConstraintsV1InterfaceD1Ev@Base 5.24.3-1
 _ZN14KWaylandServer29PointerConstraintsV1InterfaceD2Ev@Base 5.24.3-1
 _ZN14KWaylandServer29ServerSideDecorationInterface11qt_metacallEN11QMetaObject4CallEiPPv@Base 5.24.3-1
 _ZN14KWaylandServer29ServerSideDecorationInterface11qt_metacastEPKc@Base 5.24.3-1
 _ZN14KWaylandServer29ServerSideDecorationInterface16staticMetaObjectE@Base 5.24.3-1
 _ZN14KWaylandServer29ServerSideDecorationInterface20preferredModeChangedEv@Base 5.24.3-1
 _ZN14KWaylandServer29ServerSideDecorationInterface3getEPNS_16SurfaceInterfaceE@Base 5.24.3-1
 _ZN14KWaylandServer29ServerSideDecorationInterface7setModeENS_36ServerSideDecorationManagerInterface4ModeE@Base 5.24.3-1
 _ZN14KWaylandServer29ServerSideDecorationInterfaceC1EPNS_36ServerSideDecorationManagerInterfaceEPNS_16SurfaceInterfaceEP11wl_resource@Base 5.24.3-1
 _ZN14KWaylandServer29ServerSideDecorationInterfaceC2EPNS_36ServerSideDecorationManagerInterfaceEPNS_16SurfaceInterfaceEP11wl_resource@Base 5.24.3-1
 _ZN14KWaylandServer29ServerSideDecorationInterfaceD0Ev@Base 5.24.3-1
 _ZN14KWaylandServer29ServerSideDecorationInterfaceD1Ev@Base 5.24.3-1
 _ZN14KWaylandServer29ServerSideDecorationInterfaceD2Ev@Base 5.24.3-1
 _ZN14KWaylandServer30OutputConfigurationV2Interface10setAppliedEv@Base 5.24.3-1
 _ZN14KWaylandServer30OutputConfigurationV2Interface11qt_metacallEN11QMetaObject4CallEiPPv@Base 5.24.3-1
 _ZN14KWaylandServer30OutputConfigurationV2Interface11qt_metacastEPKc@Base 5.24.3-1
 _ZN14KWaylandServer30OutputConfigurationV2Interface16staticMetaObjectE@Base 5.24.3-1
 _ZN14KWaylandServer30OutputConfigurationV2Interface9setFailedEv@Base 5.24.3-1
 _ZN14KWaylandServer30OutputConfigurationV2InterfaceC1EPNS_27OutputManagementV2InterfaceEP11wl_resource@Base 5.24.3-1
 _ZN14KWaylandServer30OutputConfigurationV2InterfaceC2EPNS_27OutputManagementV2InterfaceEP11wl_resource@Base 5.24.3-1
 _ZN14KWaylandServer30OutputConfigurationV2InterfaceD0Ev@Base 5.24.3-1
 _ZN14KWaylandServer30OutputConfigurationV2InterfaceD1Ev@Base 5.24.3-1
 _ZN14KWaylandServer30OutputConfigurationV2InterfaceD2Ev@Base 5.24.3-1
 _ZN14KWaylandServer31PlasmaWindowActivationInterface9sendAppIdERK7QString@Base 5.24.3-1
 _ZN14KWaylandServer31PlasmaWindowActivationInterfaceC1Ev@Base 5.24.3-1
 _ZN14KWaylandServer31PlasmaWindowActivationInterfaceC2Ev@Base 5.24.3-1
 _ZN14KWaylandServer31PlasmaWindowActivationInterfaceD1Ev@Base 5.24.3-1
 _ZN14KWaylandServer31PlasmaWindowActivationInterfaceD2Ev@Base 5.24.3-1
 _ZN14KWaylandServer31PlasmaWindowManagementInterface11qt_metacallEN11QMetaObject4CallEiPPv@Base 5.24.3-1
 _ZN14KWaylandServer31PlasmaWindowManagementInterface11qt_metacastEPKc@Base 5.24.3-1
 _ZN14KWaylandServer31PlasmaWindowManagementInterface12createWindowEP7QObjectRK5QUuid@Base 5.24.3-1
 _ZN14KWaylandServer31PlasmaWindowManagementInterface16setStackingOrderERK7QVectorIjE@Base 5.24.3-1
 _ZN14KWaylandServer31PlasmaWindowManagementInterface16staticMetaObjectE@Base 5.24.3-1
 _ZN14KWaylandServer31PlasmaWindowManagementInterface21setStackingOrderUuidsERK7QVectorI7QStringE@Base 5.24.3-1
 _ZN14KWaylandServer31PlasmaWindowManagementInterface22setShowingDesktopStateENS0_19ShowingDesktopStateE@Base 5.24.3-1
 _ZN14KWaylandServer31PlasmaWindowManagementInterface27requestChangeShowingDesktopENS0_19ShowingDesktopStateE@Base 5.24.3-1
 _ZN14KWaylandServer31PlasmaWindowManagementInterface42setPlasmaVirtualDesktopManagementInterfaceEPNS_39PlasmaVirtualDesktopManagementInterfaceE@Base 5.24.3-1
 _ZN14KWaylandServer31PlasmaWindowManagementInterfaceC1EPNS_7DisplayEP7QObject@Base 5.24.3-1
 _ZN14KWaylandServer31PlasmaWindowManagementInterfaceC2EPNS_7DisplayEP7QObject@Base 5.24.3-1
 _ZN14KWaylandServer31PlasmaWindowManagementInterfaceD0Ev@Base 5.24.3-1
 _ZN14KWaylandServer31PlasmaWindowManagementInterfaceD1Ev@Base 5.24.3-1
 _ZN14KWaylandServer31PlasmaWindowManagementInterfaceD2Ev@Base 5.24.3-1
 _ZN14KWaylandServer31XdgDecorationManagerV1Interface11qt_metacallEN11QMetaObject4CallEiPPv@Base 5.24.3-1
 _ZN14KWaylandServer31XdgDecorationManagerV1Interface11qt_metacastEPKc@Base 5.24.3-1
 _ZN14KWaylandServer31XdgDecorationManagerV1Interface16staticMetaObjectE@Base 5.24.3-1
 _ZN14KWaylandServer31XdgDecorationManagerV1Interface17decorationCreatedEPNS_32XdgToplevelDecorationV1InterfaceE@Base 5.24.3-1
 _ZN14KWaylandServer31XdgDecorationManagerV1InterfaceC1EPNS_7DisplayEP7QObject@Base 5.24.3-1
 _ZN14KWaylandServer31XdgDecorationManagerV1InterfaceC2EPNS_7DisplayEP7QObject@Base 5.24.3-1
 _ZN14KWaylandServer31XdgDecorationManagerV1InterfaceD0Ev@Base 5.24.3-1
 _ZN14KWaylandServer31XdgDecorationManagerV1InterfaceD1Ev@Base 5.24.3-1
 _ZN14KWaylandServer31XdgDecorationManagerV1InterfaceD2Ev@Base 5.24.3-1
 _ZN14KWaylandServer32PrimarySelectionOfferV1Interface11qt_metacallEN11QMetaObject4CallEiPPv@Base 5.24.3-1
 _ZN14KWaylandServer32PrimarySelectionOfferV1Interface11qt_metacastEPKc@Base 5.24.3-1
 _ZN14KWaylandServer32PrimarySelectionOfferV1Interface13sendAllOffersEv@Base 5.24.3-1
 _ZN14KWaylandServer32PrimarySelectionOfferV1Interface16staticMetaObjectE@Base 5.24.3-1
 _ZN14KWaylandServer32PrimarySelectionOfferV1InterfaceC1EPNS_18AbstractDataSourceEP11wl_resource@Base 5.24.3-1
 _ZN14KWaylandServer32PrimarySelectionOfferV1InterfaceC2EPNS_18AbstractDataSourceEP11wl_resource@Base 5.24.3-1
 _ZN14KWaylandServer32PrimarySelectionOfferV1InterfaceD0Ev@Base 5.24.3-1
 _ZN14KWaylandServer32PrimarySelectionOfferV1InterfaceD1Ev@Base 5.24.3-1
 _ZN14KWaylandServer32PrimarySelectionOfferV1InterfaceD2Ev@Base 5.24.3-1
 _ZN14KWaylandServer32XdgToplevelDecorationV1Interface11qt_metacallEN11QMetaObject4CallEiPPv@Base 5.24.3-1
 _ZN14KWaylandServer32XdgToplevelDecorationV1Interface11qt_metacastEPKc@Base 5.24.3-1
 _ZN14KWaylandServer32XdgToplevelDecorationV1Interface13sendConfigureENS0_4ModeE@Base 5.24.3-1
 _ZN14KWaylandServer32XdgToplevelDecorationV1Interface16staticMetaObjectE@Base 5.24.3-1
 _ZN14KWaylandServer32XdgToplevelDecorationV1Interface20preferredModeChangedENS0_4ModeE@Base 5.24.3-1
 _ZN14KWaylandServer32XdgToplevelDecorationV1Interface3getEPNS_20XdgToplevelInterfaceE@Base 5.24.3-1
 _ZN14KWaylandServer32XdgToplevelDecorationV1InterfaceC1EPNS_20XdgToplevelInterfaceEP11wl_resource@Base 5.24.3-1
 _ZN14KWaylandServer32XdgToplevelDecorationV1InterfaceC2EPNS_20XdgToplevelInterfaceEP11wl_resource@Base 5.24.3-1
 _ZN14KWaylandServer32XdgToplevelDecorationV1InterfaceD0Ev@Base 5.24.3-1
 _ZN14KWaylandServer32XdgToplevelDecorationV1InterfaceD1Ev@Base 5.24.3-1
 _ZN14KWaylandServer32XdgToplevelDecorationV1InterfaceD2Ev@Base 5.24.3-1
 _ZN14KWaylandServer33PrimarySelectionDeviceV1Interface11qt_metacallEN11QMetaObject4CallEiPPv@Base 5.24.3-1
 _ZN14KWaylandServer33PrimarySelectionDeviceV1Interface11qt_metacastEPKc@Base 5.24.3-1
 _ZN14KWaylandServer33PrimarySelectionDeviceV1Interface13sendSelectionEPNS_18AbstractDataSourceE@Base 5.24.3-1
 _ZN14KWaylandServer33PrimarySelectionDeviceV1Interface16selectionChangedEPNS_33PrimarySelectionSourceV1InterfaceE@Base 5.24.3-1
 _ZN14KWaylandServer33PrimarySelectionDeviceV1Interface16selectionClearedEv@Base 5.24.3-1
 _ZN14KWaylandServer33PrimarySelectionDeviceV1Interface16staticMetaObjectE@Base 5.24.3-1
 _ZN14KWaylandServer33PrimarySelectionDeviceV1Interface18sendClearSelectionEv@Base 5.24.3-1
 _ZN14KWaylandServer33PrimarySelectionDeviceV1InterfaceC1EPNS_13SeatInterfaceEP11wl_resource@Base 5.24.3-1
 _ZN14KWaylandServer33PrimarySelectionDeviceV1InterfaceC2EPNS_13SeatInterfaceEP11wl_resource@Base 5.24.3-1
 _ZN14KWaylandServer33PrimarySelectionDeviceV1InterfaceD0Ev@Base 5.24.3-1
 _ZN14KWaylandServer33PrimarySelectionDeviceV1InterfaceD1Ev@Base 5.24.3-1
 _ZN14KWaylandServer33PrimarySelectionDeviceV1InterfaceD2Ev@Base 5.24.3-1
 _ZN14KWaylandServer33PrimarySelectionSourceV1Interface11qt_metacallEN11QMetaObject4CallEiPPv@Base 5.24.3-1
 _ZN14KWaylandServer33PrimarySelectionSourceV1Interface11qt_metacastEPKc@Base 5.24.3-1
 _ZN14KWaylandServer33PrimarySelectionSourceV1Interface11requestDataERK7QStringi@Base 5.24.3-1
 _ZN14KWaylandServer33PrimarySelectionSourceV1Interface16staticMetaObjectE@Base 5.24.3-1
 _ZN14KWaylandServer33PrimarySelectionSourceV1Interface3getEP11wl_resource@Base 5.24.3-1
 _ZN14KWaylandServer33PrimarySelectionSourceV1Interface6cancelEv@Base 5.24.3-1
 _ZN14KWaylandServer33PrimarySelectionSourceV1InterfaceC1EPNS_40PrimarySelectionDeviceManagerV1InterfaceEP11wl_resource@Base 5.24.3-1
 _ZN14KWaylandServer33PrimarySelectionSourceV1InterfaceC2EPNS_40PrimarySelectionDeviceManagerV1InterfaceEP11wl_resource@Base 5.24.3-1
 _ZN14KWaylandServer33PrimarySelectionSourceV1InterfaceD0Ev@Base 5.24.3-1
 _ZN14KWaylandServer33PrimarySelectionSourceV1InterfaceD1Ev@Base 5.24.3-1
 _ZN14KWaylandServer33PrimarySelectionSourceV1InterfaceD2Ev@Base 5.24.3-1
 _ZN14KWaylandServer33RelativePointerManagerV1Interface11qt_metacallEN11QMetaObject4CallEiPPv@Base 5.24.3-1
 _ZN14KWaylandServer33RelativePointerManagerV1Interface11qt_metacastEPKc@Base 5.24.3-1
 _ZN14KWaylandServer33RelativePointerManagerV1Interface16staticMetaObjectE@Base 5.24.3-1
 _ZN14KWaylandServer33RelativePointerManagerV1InterfaceC1EPNS_7DisplayEP7QObject@Base 5.24.3-1
 _ZN14KWaylandServer33RelativePointerManagerV1InterfaceC2EPNS_7DisplayEP7QObject@Base 5.24.3-1
 _ZN14KWaylandServer33RelativePointerManagerV1InterfaceD0Ev@Base 5.24.3-1
 _ZN14KWaylandServer33RelativePointerManagerV1InterfaceD1Ev@Base 5.24.3-1
 _ZN14KWaylandServer33RelativePointerManagerV1InterfaceD2Ev@Base 5.24.3-1
 _ZN14KWaylandServer35DataControlDeviceManagerV1Interface11qt_metacallEN11QMetaObject4CallEiPPv@Base 5.24.3-1
 _ZN14KWaylandServer35DataControlDeviceManagerV1Interface11qt_metacastEPKc@Base 5.24.3-1
 _ZN14KWaylandServer35DataControlDeviceManagerV1Interface16staticMetaObjectE@Base 5.24.3-1
 _ZN14KWaylandServer35DataControlDeviceManagerV1Interface17dataDeviceCreatedEPNS_28DataControlDeviceV1InterfaceE@Base 5.24.3-1
 _ZN14KWaylandServer35DataControlDeviceManagerV1Interface17dataSourceCreatedEPNS_28DataControlSourceV1InterfaceE@Base 5.24.3-1
 _ZN14KWaylandServer35DataControlDeviceManagerV1InterfaceC1EPNS_7DisplayEP7QObject@Base 5.24.3-1
 _ZN14KWaylandServer35DataControlDeviceManagerV1InterfaceC2EPNS_7DisplayEP7QObject@Base 5.24.3-1
 _ZN14KWaylandServer35DataControlDeviceManagerV1InterfaceD0Ev@Base 5.24.3-1
 _ZN14KWaylandServer35DataControlDeviceManagerV1InterfaceD1Ev@Base 5.24.3-1
 _ZN14KWaylandServer35DataControlDeviceManagerV1InterfaceD2Ev@Base 5.24.3-1
 _ZN14KWaylandServer36LinuxDmaBufV1ClientBufferIntegration11qt_metacallEN11QMetaObject4CallEiPPv@Base 5.24.3-1
 _ZN14KWaylandServer36LinuxDmaBufV1ClientBufferIntegration11qt_metacastEPKc@Base 5.24.3-1
 _ZN14KWaylandServer36LinuxDmaBufV1ClientBufferIntegration16staticMetaObjectE@Base 5.24.3-1
 _ZN14KWaylandServer36LinuxDmaBufV1ClientBufferIntegration20setRendererInterfaceEPNS0_17RendererInterfaceE@Base 5.24.3-1
 _ZN14KWaylandServer36LinuxDmaBufV1ClientBufferIntegration32setSupportedFormatsWithModifiersERK7QVectorINS_21LinuxDmaBufV1Feedback7TrancheEE@Base 5.24.3-1
 _ZN14KWaylandServer36LinuxDmaBufV1ClientBufferIntegrationC1EPNS_7DisplayE@Base 5.24.3-1
 _ZN14KWaylandServer36LinuxDmaBufV1ClientBufferIntegrationC2EPNS_7DisplayE@Base 5.24.3-1
 _ZN14KWaylandServer36LinuxDmaBufV1ClientBufferIntegrationD0Ev@Base 5.24.3-1
 _ZN14KWaylandServer36LinuxDmaBufV1ClientBufferIntegrationD1Ev@Base 5.24.3-1
 _ZN14KWaylandServer36LinuxDmaBufV1ClientBufferIntegrationD2Ev@Base 5.24.3-1
 _ZN14KWaylandServer36ServerSideDecorationManagerInterface11qt_metacallEN11QMetaObject4CallEiPPv@Base 5.24.3-1
 _ZN14KWaylandServer36ServerSideDecorationManagerInterface11qt_metacastEPKc@Base 5.24.3-1
 _ZN14KWaylandServer36ServerSideDecorationManagerInterface14setDefaultModeENS0_4ModeE@Base 5.24.3-1
 _ZN14KWaylandServer36ServerSideDecorationManagerInterface16staticMetaObjectE@Base 5.24.3-1
 _ZN14KWaylandServer36ServerSideDecorationManagerInterface17decorationCreatedEPNS_29ServerSideDecorationInterfaceE@Base 5.24.3-1
 _ZN14KWaylandServer36ServerSideDecorationManagerInterfaceC1EPNS_7DisplayEP7QObject@Base 5.24.3-1
 _ZN14KWaylandServer36ServerSideDecorationManagerInterfaceC2EPNS_7DisplayEP7QObject@Base 5.24.3-1
 _ZN14KWaylandServer36ServerSideDecorationManagerInterfaceD0Ev@Base 5.24.3-1
 _ZN14KWaylandServer36ServerSideDecorationManagerInterfaceD1Ev@Base 5.24.3-1
 _ZN14KWaylandServer36ServerSideDecorationManagerInterfaceD2Ev@Base 5.24.3-1
 _ZN14KWaylandServer36ServerSideDecorationPaletteInterface11qt_metacallEN11QMetaObject4CallEiPPv@Base 5.24.3-1
 _ZN14KWaylandServer36ServerSideDecorationPaletteInterface11qt_metacastEPKc@Base 5.24.3-1
 _ZN14KWaylandServer36ServerSideDecorationPaletteInterface14paletteChangedERK7QString@Base 5.24.3-1
 _ZN14KWaylandServer36ServerSideDecorationPaletteInterface16staticMetaObjectE@Base 5.24.3-1
 _ZN14KWaylandServer36ServerSideDecorationPaletteInterfaceC1EPNS_16SurfaceInterfaceEP11wl_resource@Base 5.24.3-1
 _ZN14KWaylandServer36ServerSideDecorationPaletteInterfaceC2EPNS_16SurfaceInterfaceEP11wl_resource@Base 5.24.3-1
 _ZN14KWaylandServer36ServerSideDecorationPaletteInterfaceD0Ev@Base 5.24.3-1
 _ZN14KWaylandServer36ServerSideDecorationPaletteInterfaceD1Ev@Base 5.24.3-1
 _ZN14KWaylandServer36ServerSideDecorationPaletteInterfaceD2Ev@Base 5.24.3-1
 _ZN14KWaylandServer37KeyboardShortcutsInhibitorV1Interface11qt_metacallEN11QMetaObject4CallEiPPv@Base 5.24.3-1
 _ZN14KWaylandServer37KeyboardShortcutsInhibitorV1Interface11qt_metacastEPKc@Base 5.24.3-1
 _ZN14KWaylandServer37KeyboardShortcutsInhibitorV1Interface16staticMetaObjectE@Base 5.24.3-1
 _ZN14KWaylandServer37KeyboardShortcutsInhibitorV1Interface9setActiveEb@Base 5.24.3-1
 _ZN14KWaylandServer37KeyboardShortcutsInhibitorV1InterfaceC1EPNS_16SurfaceInterfaceEPNS_13SeatInterfaceEPNS_42KeyboardShortcutsInhibitManagerV1InterfaceEP11wl_resource@Base 5.24.3-1
 _ZN14KWaylandServer37KeyboardShortcutsInhibitorV1InterfaceC2EPNS_16SurfaceInterfaceEPNS_13SeatInterfaceEPNS_42KeyboardShortcutsInhibitManagerV1InterfaceEP11wl_resource@Base 5.24.3-1
 _ZN14KWaylandServer37KeyboardShortcutsInhibitorV1InterfaceD0Ev@Base 5.24.3-1
 _ZN14KWaylandServer37KeyboardShortcutsInhibitorV1InterfaceD1Ev@Base 5.24.3-1
 _ZN14KWaylandServer37KeyboardShortcutsInhibitorV1InterfaceD2Ev@Base 5.24.3-1
 _ZN14KWaylandServer39PlasmaVirtualDesktopManagementInterface11qt_metacallEN11QMetaObject4CallEiPPv@Base 5.24.3-1
 _ZN14KWaylandServer39PlasmaVirtualDesktopManagementInterface11qt_metacastEPKc@Base 5.24.3-1
 _ZN14KWaylandServer39PlasmaVirtualDesktopManagementInterface13createDesktopERK7QStringj@Base 5.24.3-1
 _ZN14KWaylandServer39PlasmaVirtualDesktopManagementInterface13removeDesktopERK7QString@Base 5.24.3-1
 _ZN14KWaylandServer39PlasmaVirtualDesktopManagementInterface16desktopActivatedERK7QString@Base 5.24.3-1
 _ZN14KWaylandServer39PlasmaVirtualDesktopManagementInterface16staticMetaObjectE@Base 5.24.3-1
 _ZN14KWaylandServer39PlasmaVirtualDesktopManagementInterface22desktopCreateRequestedERK7QStringj@Base 5.24.3-1
 _ZN14KWaylandServer39PlasmaVirtualDesktopManagementInterface22desktopRemoveRequestedERK7QString@Base 5.24.3-1
 _ZN14KWaylandServer39PlasmaVirtualDesktopManagementInterface7desktopERK7QString@Base 5.24.3-1
 _ZN14KWaylandServer39PlasmaVirtualDesktopManagementInterface7setRowsEj@Base 5.24.3-1
 _ZN14KWaylandServer39PlasmaVirtualDesktopManagementInterface8sendDoneEv@Base 5.24.3-1
 _ZN14KWaylandServer39PlasmaVirtualDesktopManagementInterfaceC1EPNS_7DisplayEP7QObject@Base 5.24.3-1
 _ZN14KWaylandServer39PlasmaVirtualDesktopManagementInterfaceC2EPNS_7DisplayEP7QObject@Base 5.24.3-1
 _ZN14KWaylandServer39PlasmaVirtualDesktopManagementInterfaceD0Ev@Base 5.24.3-1
 _ZN14KWaylandServer39PlasmaVirtualDesktopManagementInterfaceD1Ev@Base 5.24.3-1
 _ZN14KWaylandServer39PlasmaVirtualDesktopManagementInterfaceD2Ev@Base 5.24.3-1
 _ZN14KWaylandServer39PlasmaWindowActivationFeedbackInterface11qt_metacallEN11QMetaObject4CallEiPPv@Base 5.24.3-1
 _ZN14KWaylandServer39PlasmaWindowActivationFeedbackInterface11qt_metacastEPKc@Base 5.24.3-1
 _ZN14KWaylandServer39PlasmaWindowActivationFeedbackInterface16createActivationERK7QString@Base 5.24.3-1
 _ZN14KWaylandServer39PlasmaWindowActivationFeedbackInterface16staticMetaObjectE@Base 5.24.3-1
 _ZN14KWaylandServer39PlasmaWindowActivationFeedbackInterfaceC1EPNS_7DisplayEP7QObject@Base 5.24.3-1
 _ZN14KWaylandServer39PlasmaWindowActivationFeedbackInterfaceC2EPNS_7DisplayEP7QObject@Base 5.24.3-1
 _ZN14KWaylandServer39PlasmaWindowActivationFeedbackInterfaceD0Ev@Base 5.24.3-1
 _ZN14KWaylandServer39PlasmaWindowActivationFeedbackInterfaceD1Ev@Base 5.24.3-1
 _ZN14KWaylandServer39PlasmaWindowActivationFeedbackInterfaceD2Ev@Base 5.24.3-1
 _ZN14KWaylandServer40PrimarySelectionDeviceManagerV1Interface11qt_metacallEN11QMetaObject4CallEiPPv@Base 5.24.3-1
 _ZN14KWaylandServer40PrimarySelectionDeviceManagerV1Interface11qt_metacastEPKc@Base 5.24.3-1
 _ZN14KWaylandServer40PrimarySelectionDeviceManagerV1Interface16staticMetaObjectE@Base 5.24.3-1
 _ZN14KWaylandServer40PrimarySelectionDeviceManagerV1Interface17dataDeviceCreatedEPNS_33PrimarySelectionDeviceV1InterfaceE@Base 5.24.3-1
 _ZN14KWaylandServer40PrimarySelectionDeviceManagerV1Interface17dataSourceCreatedEPNS_33PrimarySelectionSourceV1InterfaceE@Base 5.24.3-1
 _ZN14KWaylandServer40PrimarySelectionDeviceManagerV1InterfaceC1EPNS_7DisplayEP7QObject@Base 5.24.3-1
 _ZN14KWaylandServer40PrimarySelectionDeviceManagerV1InterfaceC2EPNS_7DisplayEP7QObject@Base 5.24.3-1
 _ZN14KWaylandServer40PrimarySelectionDeviceManagerV1InterfaceD0Ev@Base 5.24.3-1
 _ZN14KWaylandServer40PrimarySelectionDeviceManagerV1InterfaceD1Ev@Base 5.24.3-1
 _ZN14KWaylandServer40PrimarySelectionDeviceManagerV1InterfaceD2Ev@Base 5.24.3-1
 _ZN14KWaylandServer42KeyboardShortcutsInhibitManagerV1Interface11qt_metacallEN11QMetaObject4CallEiPPv@Base 5.24.3-1
 _ZN14KWaylandServer42KeyboardShortcutsInhibitManagerV1Interface11qt_metacastEPKc@Base 5.24.3-1
 _ZN14KWaylandServer42KeyboardShortcutsInhibitManagerV1Interface15removeInhibitorEPNS_16SurfaceInterfaceEPNS_13SeatInterfaceE@Base 5.24.3-1
 _ZN14KWaylandServer42KeyboardShortcutsInhibitManagerV1Interface16inhibitorCreatedEPNS_37KeyboardShortcutsInhibitorV1InterfaceE@Base 5.24.3-1
 _ZN14KWaylandServer42KeyboardShortcutsInhibitManagerV1Interface16staticMetaObjectE@Base 5.24.3-1
 _ZN14KWaylandServer42KeyboardShortcutsInhibitManagerV1InterfaceC1EPNS_7DisplayEP7QObject@Base 5.24.3-1
 _ZN14KWaylandServer42KeyboardShortcutsInhibitManagerV1InterfaceC2EPNS_7DisplayEP7QObject@Base 5.24.3-1
 _ZN14KWaylandServer42KeyboardShortcutsInhibitManagerV1InterfaceD0Ev@Base 5.24.3-1
 _ZN14KWaylandServer42KeyboardShortcutsInhibitManagerV1InterfaceD1Ev@Base 5.24.3-1
 _ZN14KWaylandServer42KeyboardShortcutsInhibitManagerV1InterfaceD2Ev@Base 5.24.3-1
 _ZN14KWaylandServer43ServerSideDecorationPaletteManagerInterface11qt_metacallEN11QMetaObject4CallEiPPv@Base 5.24.3-1
 _ZN14KWaylandServer43ServerSideDecorationPaletteManagerInterface11qt_metacastEPKc@Base 5.24.3-1
 _ZN14KWaylandServer43ServerSideDecorationPaletteManagerInterface14paletteCreatedEPNS_36ServerSideDecorationPaletteInterfaceE@Base 5.24.3-1
 _ZN14KWaylandServer43ServerSideDecorationPaletteManagerInterface16staticMetaObjectE@Base 5.24.3-1
 _ZN14KWaylandServer43ServerSideDecorationPaletteManagerInterface17paletteForSurfaceEPNS_16SurfaceInterfaceE@Base 5.24.3-1
 _ZN14KWaylandServer43ServerSideDecorationPaletteManagerInterfaceC1EPNS_7DisplayEP7QObject@Base 5.24.3-1
 _ZN14KWaylandServer43ServerSideDecorationPaletteManagerInterfaceC2EPNS_7DisplayEP7QObject@Base 5.24.3-1
 _ZN14KWaylandServer43ServerSideDecorationPaletteManagerInterfaceD0Ev@Base 5.24.3-1
 _ZN14KWaylandServer43ServerSideDecorationPaletteManagerInterfaceD1Ev@Base 5.24.3-1
 _ZN14KWaylandServer43ServerSideDecorationPaletteManagerInterfaceD2Ev@Base 5.24.3-1
 _ZN14KWaylandServer6Cursor11qt_metacallEN11QMetaObject4CallEiPPv@Base 5.24.3-1
 _ZN14KWaylandServer6Cursor11qt_metacastEPKc@Base 5.24.3-1
 _ZN14KWaylandServer6Cursor14hotspotChangedEv@Base 5.24.3-1
 _ZN14KWaylandServer6Cursor14surfaceChangedEv@Base 5.24.3-1
 _ZN14KWaylandServer6Cursor16staticMetaObjectE@Base 5.24.3-1
 _ZN14KWaylandServer6Cursor20enteredSerialChangedEv@Base 5.24.3-1
 _ZN14KWaylandServer6Cursor7changedEv@Base 5.24.3-1
 _ZN14KWaylandServer6CursorC1EPNS_16PointerInterfaceE@Base 5.24.3-1
 _ZN14KWaylandServer6CursorC2EPNS_16PointerInterfaceE@Base 5.24.3-1
 _ZN14KWaylandServer6CursorD0Ev@Base 5.24.3-1
 _ZN14KWaylandServer6CursorD1Ev@Base 5.24.3-1
 _ZN14KWaylandServer6CursorD2Ev@Base 5.24.3-1
 _ZN14KWaylandServer7Display10nextSerialEv@Base 5.24.3-1
 _ZN14KWaylandServer7Display11qt_metacallEN11QMetaObject4CallEiPPv@Base 5.24.3-1
 _ZN14KWaylandServer7Display11qt_metacastEPKc@Base 5.24.3-1
 _ZN14KWaylandServer7Display12createClientEi@Base 5.24.3-1
 _ZN14KWaylandServer7Display13addSocketNameERK7QString@Base 5.24.3-1
 _ZN14KWaylandServer7Display13getConnectionEP9wl_client@Base 5.24.3-1
 _ZN14KWaylandServer7Display13setEglDisplayEPv@Base 5.24.3-1
 _ZN14KWaylandServer7Display14dispatchEventsEv@Base 5.24.3-1
 _ZN14KWaylandServer7Display14runningChangedEb@Base 5.24.3-1
 _ZN14KWaylandServer7Display15clientConnectedEPNS_16ClientConnectionE@Base 5.24.3-1
 _ZN14KWaylandServer7Display16staticMetaObjectE@Base 5.24.3-1
 _ZN14KWaylandServer7Display18clientDisconnectedEPNS_16ClientConnectionE@Base 5.24.3-1
 _ZN14KWaylandServer7Display18socketNamesChangedEv@Base 5.24.3-1
 _ZN14KWaylandServer7Display23addSocketFileDescriptorEiRK7QString@Base 5.24.3-1
 _ZN14KWaylandServer7Display5flushEv@Base 5.24.3-1
 _ZN14KWaylandServer7Display5startEv@Base 5.24.3-1
 _ZN14KWaylandServer7Display6serialEv@Base 5.24.3-1
 _ZN14KWaylandServer7Display9createShmEv@Base 5.24.3-1
 _ZN14KWaylandServer7DisplayC1EP7QObject@Base 5.24.3-1
 _ZN14KWaylandServer7DisplayC2EP7QObject@Base 5.24.3-1
 _ZN14KWaylandServer7DisplayD0Ev@Base 5.24.3-1
 _ZN14KWaylandServer7DisplayD1Ev@Base 5.24.3-1
 _ZN14KWaylandServer7DisplayD2Ev@Base 5.24.3-1
 _ZN14KWaylandServer7DisplaycvP10wl_displayEv@Base 5.24.3-1
 _ZNK14KWaylandServer12ClientBuffer10metaObjectEv@Base 5.24.3-1
 _ZNK14KWaylandServer12ClientBuffer11isDestroyedEv@Base 5.24.3-1
 _ZNK14KWaylandServer12ClientBuffer12isReferencedEv@Base 5.24.3-1
 _ZNK14KWaylandServer12ClientBuffer8resourceEv@Base 5.24.3-1
 _ZNK14KWaylandServer13BlurInterface10metaObjectEv@Base 5.24.3-1
 _ZNK14KWaylandServer13IdleInterface10metaObjectEv@Base 5.24.3-1
 _ZNK14KWaylandServer13IdleInterface11isInhibitedEv@Base 5.24.3-1
 _ZNK14KWaylandServer13SeatInterface10dragSourceEv@Base 5.24.3-1
 _ZNK14KWaylandServer13SeatInterface10hasPointerEv@Base 5.24.3-1
 _ZNK14KWaylandServer13SeatInterface10metaObjectEv@Base 5.24.3-1
 _ZNK14KWaylandServer13SeatInterface10pointerPosEv@Base 5.24.3-1
 _ZNK14KWaylandServer13SeatInterface11dragSurfaceEv@Base 5.24.3-1
 _ZNK14KWaylandServer13SeatInterface11hasKeyboardEv@Base 5.24.3-1
 _ZNK14KWaylandServer13SeatInterface11isDragTouchEv@Base 5.24.3-1
 _ZNK14KWaylandServer13SeatInterface11textInputV2Ev@Base 5.24.3-1
 _ZNK14KWaylandServer13SeatInterface11textInputV3Ev@Base 5.24.3-1
 _ZNK14KWaylandServer13SeatInterface13isDragPointerEv@Base 5.24.3-1
 _ZNK14KWaylandServer13SeatInterface15isTouchSequenceEv@Base 5.24.3-1
 _ZNK14KWaylandServer13SeatInterface16primarySelectionEv@Base 5.24.3-1
 _ZNK14KWaylandServer13SeatInterface19focusedTouchSurfaceEv@Base 5.24.3-1
 _ZNK14KWaylandServer13SeatInterface19pointerButtonSerialEN2Qt11MouseButtonE@Base 5.24.3-1
 _ZNK14KWaylandServer13SeatInterface19pointerButtonSerialEj@Base 5.24.3-1
 _ZNK14KWaylandServer13SeatInterface20hasImplicitTouchGrabEj@Base 5.24.3-1
 _ZNK14KWaylandServer13SeatInterface21dropHandlerForSurfaceEPNS_16SurfaceInterfaceE@Base 5.24.3-1
 _ZNK14KWaylandServer13SeatInterface21focusedPointerSurfaceEv@Base 5.24.3-1
 _ZNK14KWaylandServer13SeatInterface22focusedKeyboardSurfaceEv@Base 5.24.3-1
 _ZNK14KWaylandServer13SeatInterface22hasImplicitPointerGrabEj@Base 5.24.3-1
 _ZNK14KWaylandServer13SeatInterface22isPointerButtonPressedEN2Qt11MouseButtonE@Base 5.24.3-1
 _ZNK14KWaylandServer13SeatInterface22isPointerButtonPressedEj@Base 5.24.3-1
 _ZNK14KWaylandServer13SeatInterface23firstTouchPointPositionEv@Base 5.24.3-1
 _ZNK14KWaylandServer13SeatInterface23focusedTextInputSurfaceEv@Base 5.24.3-1
 _ZNK14KWaylandServer13SeatInterface25dragSurfaceTransformationEv@Base 5.24.3-1
 _ZNK14KWaylandServer13SeatInterface27focusedTouchSurfacePositionEv@Base 5.24.3-1
 _ZNK14KWaylandServer13SeatInterface29focusedPointerSurfacePositionEv@Base 5.24.3-1
 _ZNK14KWaylandServer13SeatInterface35focusedPointerSurfaceTransformationEv@Base 5.24.3-1
 _ZNK14KWaylandServer13SeatInterface4nameEv@Base 5.24.3-1
 _ZNK14KWaylandServer13SeatInterface5touchEv@Base 5.24.3-1
 _ZNK14KWaylandServer13SeatInterface6isDragEv@Base 5.24.3-1
 _ZNK14KWaylandServer13SeatInterface7displayEv@Base 5.24.3-1
 _ZNK14KWaylandServer13SeatInterface7pointerEv@Base 5.24.3-1
 _ZNK14KWaylandServer13SeatInterface8dragIconEv@Base 5.24.3-1
 _ZNK14KWaylandServer13SeatInterface8hasTouchEv@Base 5.24.3-1
 _ZNK14KWaylandServer13SeatInterface8keyboardEv@Base 5.24.3-1
 _ZNK14KWaylandServer13SeatInterface9selectionEv@Base 5.24.3-1
 _ZNK14KWaylandServer13SeatInterface9timestampEv@Base 5.24.3-1
 _ZNK14KWaylandServer13XdgPositioner10anchorRectEv@Base 5.24.3-1
 _ZNK14KWaylandServer13XdgPositioner10isCompleteEv@Base 5.24.3-1
 _ZNK14KWaylandServer13XdgPositioner10isReactiveEv@Base 5.24.3-1
 _ZNK14KWaylandServer13XdgPositioner10parentSizeEv@Base 5.24.3-1
 _ZNK14KWaylandServer13XdgPositioner11anchorEdgesEv@Base 5.24.3-1
 _ZNK14KWaylandServer13XdgPositioner12gravityEdgesEv@Base 5.24.3-1
 _ZNK14KWaylandServer13XdgPositioner15parentConfigureEv@Base 5.24.3-1
 _ZNK14KWaylandServer13XdgPositioner25flipConstraintAdjustmentsEv@Base 5.24.3-1
 _ZNK14KWaylandServer13XdgPositioner26slideConstraintAdjustmentsEv@Base 5.24.3-1
 _ZNK14KWaylandServer13XdgPositioner27resizeConstraintAdjustmentsEv@Base 5.24.3-1
 _ZNK14KWaylandServer13XdgPositioner4sizeEv@Base 5.24.3-1
 _ZNK14KWaylandServer13XdgPositioner6offsetEv@Base 5.24.3-1
 _ZNK14KWaylandServer14SlideInterface10metaObjectEv@Base 5.24.3-1
 _ZNK14KWaylandServer14SlideInterface6offsetEv@Base 5.24.3-1
 _ZNK14KWaylandServer14SlideInterface8locationEv@Base 5.24.3-1
 _ZNK14KWaylandServer14StrutInterface10metaObjectEv@Base 5.24.3-1
 _ZNK14KWaylandServer14TabletCursorV210metaObjectEv@Base 5.24.3-1
 _ZNK14KWaylandServer14TabletCursorV213enteredSerialEv@Base 5.24.3-1
 _ZNK14KWaylandServer14TabletCursorV27hotspotEv@Base 5.24.3-1
 _ZNK14KWaylandServer14TabletCursorV27surfaceEv@Base 5.24.3-1
 _ZNK14KWaylandServer14TouchInterface10metaObjectEv@Base 5.24.3-1
 _ZNK14KWaylandServer14TouchInterface14focusedSurfaceEv@Base 5.24.3-1
 _ZNK14KWaylandServer15DragAndDropIcon10metaObjectEv@Base 5.24.3-1
 _ZNK14KWaylandServer15DragAndDropIcon7surfaceEv@Base 5.24.3-1
 _ZNK14KWaylandServer15DragAndDropIcon8positionEv@Base 5.24.3-1
 _ZNK14KWaylandServer15DrmClientBuffer10metaObjectEv@Base 5.24.3-1
 _ZNK14KWaylandServer15DrmClientBuffer13textureFormatEv@Base 5.24.3-1
 _ZNK14KWaylandServer15DrmClientBuffer15hasAlphaChannelEv@Base 5.24.3-1
 _ZNK14KWaylandServer15DrmClientBuffer4sizeEv@Base 5.24.3-1
 _ZNK14KWaylandServer15DrmClientBuffer6originEv@Base 5.24.3-1
 _ZNK14KWaylandServer15FakeInputDevice10metaObjectEv@Base 5.24.3-1
 _ZNK14KWaylandServer15FakeInputDevice15isAuthenticatedEv@Base 5.24.3-1
 _ZNK14KWaylandServer15FilteredDisplay10metaObjectEv@Base 5.24.3-1
 _ZNK14KWaylandServer15OutputInterface10metaObjectEv@Base 5.24.3-1
 _ZNK14KWaylandServer15OutputInterface11refreshRateEv@Base 5.24.3-1
 _ZNK14KWaylandServer15OutputInterface12manufacturerEv@Base 5.24.3-1
 _ZNK14KWaylandServer15OutputInterface12physicalSizeEv@Base 5.24.3-1
 _ZNK14KWaylandServer15OutputInterface14globalPositionEv@Base 5.24.3-1
 _ZNK14KWaylandServer15OutputInterface15clientResourcesEPNS_16ClientConnectionE@Base 5.24.3-1
 _ZNK14KWaylandServer15OutputInterface15isDpmsSupportedEv@Base 5.24.3-1
 _ZNK14KWaylandServer15OutputInterface4modeEv@Base 5.24.3-1
 _ZNK14KWaylandServer15OutputInterface5modelEv@Base 5.24.3-1
 _ZNK14KWaylandServer15OutputInterface5scaleEv@Base 5.24.3-1
 _ZNK14KWaylandServer15OutputInterface8dpmsModeEv@Base 5.24.3-1
 _ZNK14KWaylandServer15OutputInterface8subPixelEv@Base 5.24.3-1
 _ZNK14KWaylandServer15OutputInterface9isEnabledEv@Base 5.24.3-1
 _ZNK14KWaylandServer15OutputInterface9pixelSizeEv@Base 5.24.3-1
 _ZNK14KWaylandServer15OutputInterface9transformEv@Base 5.24.3-1
 _ZNK14KWaylandServer15ShadowInterface10bottomLeftEv@Base 5.24.3-1
 _ZNK14KWaylandServer15ShadowInterface10metaObjectEv@Base 5.24.3-1
 _ZNK14KWaylandServer15ShadowInterface11bottomRightEv@Base 5.24.3-1
 _ZNK14KWaylandServer15ShadowInterface3topEv@Base 5.24.3-1
 _ZNK14KWaylandServer15ShadowInterface4leftEv@Base 5.24.3-1
 _ZNK14KWaylandServer15ShadowInterface5rightEv@Base 5.24.3-1
 _ZNK14KWaylandServer15ShadowInterface6bottomEv@Base 5.24.3-1
 _ZNK14KWaylandServer15ShadowInterface6offsetEv@Base 5.24.3-1
 _ZNK14KWaylandServer15ShadowInterface7topLeftEv@Base 5.24.3-1
 _ZNK14KWaylandServer15ShadowInterface8topRightEv@Base 5.24.3-1
 _ZNK14KWaylandServer15ShmClientBuffer10metaObjectEv@Base 5.24.3-1
 _ZNK14KWaylandServer15ShmClientBuffer15hasAlphaChannelEv@Base 5.24.3-1
 _ZNK14KWaylandServer15ShmClientBuffer4dataEv@Base 5.24.3-1
 _ZNK14KWaylandServer15ShmClientBuffer4sizeEv@Base 5.24.3-1
 _ZNK14KWaylandServer15ShmClientBuffer6originEv@Base 5.24.3-1
 _ZNK14KWaylandServer16AppMenuInterface10metaObjectEv@Base 5.24.3-1
 _ZNK14KWaylandServer16AppMenuInterface7addressEv@Base 5.24.3-1
 _ZNK14KWaylandServer16AppMenuInterface7surfaceEv@Base 5.24.3-1
 _ZNK14KWaylandServer16ClientConnection10metaObjectEv@Base 5.24.3-1
 _ZNK14KWaylandServer16ClientConnection11getResourceEj@Base 5.24.3-1
 _ZNK14KWaylandServer16ClientConnection14executablePathEv@Base 5.24.3-1
 _ZNK14KWaylandServer16ClientConnection6clientEv@Base 5.24.3-1
 _ZNK14KWaylandServer16ClientConnection6userIdEv@Base 5.24.3-1
 _ZNK14KWaylandServer16ClientConnection7displayEv@Base 5.24.3-1
 _ZNK14KWaylandServer16ClientConnection7groupIdEv@Base 5.24.3-1
 _ZNK14KWaylandServer16ClientConnection9processIdEv@Base 5.24.3-1
 _ZNK14KWaylandServer16ClientConnectioncvP9wl_clientEv@Base 5.24.3-1
 _ZNK14KWaylandServer16DDESeatInterface10metaObjectEv@Base 5.24.3-1
 _ZNK14KWaylandServer16DDESeatInterface10pointerPosEv@Base 5.24.3-1
 _ZNK14KWaylandServer16DDESeatInterface14groupModifiersEv@Base 5.24.3-1
 _ZNK14KWaylandServer16DDESeatInterface14touchtimestampEv@Base 5.24.3-1
 _ZNK14KWaylandServer16DDESeatInterface15lockedModifiersEv@Base 5.24.3-1
 _ZNK14KWaylandServer16DDESeatInterface16latchedModifiersEv@Base 5.24.3-1
 _ZNK14KWaylandServer16DDESeatInterface18depressedModifiersEv@Base 5.24.3-1
 _ZNK14KWaylandServer16DDESeatInterface19lastModifiersSerialEv@Base 5.24.3-1
 _ZNK14KWaylandServer16DDESeatInterface9timestampEv@Base 5.24.3-1
 _ZNK14KWaylandServer16PointerInterface10metaObjectEv@Base 5.24.3-1
 _ZNK14KWaylandServer16PointerInterface14focusedSurfaceEv@Base 5.24.3-1
 _ZNK14KWaylandServer16PointerInterface4seatEv@Base 5.24.3-1
 _ZNK14KWaylandServer16PointerInterface6cursorEv@Base 5.24.3-1
 _ZNK14KWaylandServer16SurfaceInterface10bufferSizeEv@Base 5.24.3-1
 _ZNK14KWaylandServer16SurfaceInterface10compositorEv@Base 5.24.3-1
 _ZNK14KWaylandServer16SurfaceInterface10mapToChildEPS0_RK7QPointF@Base 5.24.3-1
 _ZNK14KWaylandServer16SurfaceInterface10metaObjectEv@Base 5.24.3-1
 _ZNK14KWaylandServer16SurfaceInterface10subSurfaceEv@Base 5.24.3-1
 _ZNK14KWaylandServer16SurfaceInterface11bufferScaleEv@Base 5.24.3-1
 _ZNK14KWaylandServer16SurfaceInterface11mapToBufferERK7QPointF@Base 5.24.3-1
 _ZNK14KWaylandServer16SurfaceInterface11mapToBufferERK7QRegion@Base 5.24.3-1
 _ZNK14KWaylandServer16SurfaceInterface12boundingRectEv@Base 5.24.3-1
 _ZNK14KWaylandServer16SurfaceInterface12inhibitsIdleEv@Base 5.24.3-1
 _ZNK14KWaylandServer16SurfaceInterface13lockedPointerEv@Base 5.24.3-1
 _ZNK14KWaylandServer16SurfaceInterface13mapFromBufferERK7QPointF@Base 5.24.3-1
 _ZNK14KWaylandServer16SurfaceInterface13mapFromBufferERK7QRegion@Base 5.24.3-1
 _ZNK14KWaylandServer16SurfaceInterface15bufferTransformEv@Base 5.24.3-1
 _ZNK14KWaylandServer16SurfaceInterface15confinedPointerEv@Base 5.24.3-1
 _ZNK14KWaylandServer16SurfaceInterface15slideOnShowHideEv@Base 5.24.3-1
 _ZNK14KWaylandServer16SurfaceInterface16dmabufFeedbackV1Ev@Base 5.24.3-1
 _ZNK14KWaylandServer16SurfaceInterface17hasFrameCallbacksEv@Base 5.24.3-1
 _ZNK14KWaylandServer16SurfaceInterface21surfaceToBufferMatrixEv@Base 5.24.3-1
 _ZNK14KWaylandServer16SurfaceInterface2idEv@Base 5.24.3-1
 _ZNK14KWaylandServer16SurfaceInterface4blurEv@Base 5.24.3-1
 _ZNK14KWaylandServer16SurfaceInterface4sizeEv@Base 5.24.3-1
 _ZNK14KWaylandServer16SurfaceInterface5aboveEv@Base 5.24.3-1
 _ZNK14KWaylandServer16SurfaceInterface5belowEv@Base 5.24.3-1
 _ZNK14KWaylandServer16SurfaceInterface5inputEv@Base 5.24.3-1
 _ZNK14KWaylandServer16SurfaceInterface6bufferEv@Base 5.24.3-1
 _ZNK14KWaylandServer16SurfaceInterface6clientEv@Base 5.24.3-1
 _ZNK14KWaylandServer16SurfaceInterface6damageEv@Base 5.24.3-1
 _ZNK14KWaylandServer16SurfaceInterface6offsetEv@Base 5.24.3-1
 _ZNK14KWaylandServer16SurfaceInterface6opaqueEv@Base 5.24.3-1
 _ZNK14KWaylandServer16SurfaceInterface6shadowEv@Base 5.24.3-1
 _ZNK14KWaylandServer16SurfaceInterface7outputsEv@Base 5.24.3-1
 _ZNK14KWaylandServer16SurfaceInterface8contrastEv@Base 5.24.3-1
 _ZNK14KWaylandServer16SurfaceInterface8isMappedEv@Base 5.24.3-1
 _ZNK14KWaylandServer16SurfaceInterface8resourceEv@Base 5.24.3-1
 _ZNK14KWaylandServer17ContrastInterface10metaObjectEv@Base 5.24.3-1
 _ZNK14KWaylandServer17ContrastInterface10saturationEv@Base 5.24.3-1
 _ZNK14KWaylandServer17ContrastInterface5frostEv@Base 5.24.3-1
 _ZNK14KWaylandServer17ContrastInterface6regionEv@Base 5.24.3-1
 _ZNK14KWaylandServer17ContrastInterface8contrastEv@Base 5.24.3-1
 _ZNK14KWaylandServer17ContrastInterface9intensityEv@Base 5.24.3-1
 _ZNK14KWaylandServer17DDEShellInterface10metaObjectEv@Base 5.24.3-1
 _ZNK14KWaylandServer17DDETouchInterface10metaObjectEv@Base 5.24.3-1
 _ZNK14KWaylandServer17DDETouchInterface7ddeSeatEv@Base 5.24.3-1
 _ZNK14KWaylandServer17InputMethodGrabV110metaObjectEv@Base 5.24.3-1
 _ZNK14KWaylandServer17KeyStateInterface10metaObjectEv@Base 5.24.3-1
 _ZNK14KWaylandServer17KeyboardInterface10metaObjectEv@Base 5.24.3-1
 _ZNK14KWaylandServer17KeyboardInterface13keyRepeatRateEv@Base 5.24.3-1
 _ZNK14KWaylandServer17KeyboardInterface14focusedSurfaceEv@Base 5.24.3-1
 _ZNK14KWaylandServer17KeyboardInterface14keyRepeatDelayEv@Base 5.24.3-1
 _ZNK14KWaylandServer17OutputChangeSetV210brightnessEv@Base 5.24.3-1
 _ZNK14KWaylandServer17OutputChangeSetV210metaObjectEv@Base 5.24.3-1
 _ZNK14KWaylandServer17OutputChangeSetV211refreshRateEv@Base 5.24.3-1
 _ZNK14KWaylandServer17OutputChangeSetV211sizeChangedEv@Base 5.24.3-1
 _ZNK14KWaylandServer17OutputChangeSetV212scaleChangedEv@Base 5.24.3-1
 _ZNK14KWaylandServer17OutputChangeSetV214enabledChangedEv@Base 5.24.3-1
 _ZNK14KWaylandServer17OutputChangeSetV215overscanChangedEv@Base 5.24.3-1
 _ZNK14KWaylandServer17OutputChangeSetV215positionChangedEv@Base 5.24.3-1
 _ZNK14KWaylandServer17OutputChangeSetV215rgbRangeChangedEv@Base 5.24.3-1
 _ZNK14KWaylandServer17OutputChangeSetV216transformChangedEv@Base 5.24.3-1
 _ZNK14KWaylandServer17OutputChangeSetV216vrrPolicyChangedEv@Base 5.24.3-1
 _ZNK14KWaylandServer17OutputChangeSetV217brightnessChangedEv@Base 5.24.3-1
 _ZNK14KWaylandServer17OutputChangeSetV218refreshRateChangedEv@Base 5.24.3-1
 _ZNK14KWaylandServer17OutputChangeSetV24sizeEv@Base 5.24.3-1
 _ZNK14KWaylandServer17OutputChangeSetV25scaleEv@Base 5.24.3-1
 _ZNK14KWaylandServer17OutputChangeSetV27enabledEv@Base 5.24.3-1
 _ZNK14KWaylandServer17OutputChangeSetV28overscanEv@Base 5.24.3-1
 _ZNK14KWaylandServer17OutputChangeSetV28positionEv@Base 5.24.3-1
 _ZNK14KWaylandServer17OutputChangeSetV28rgbRangeEv@Base 5.24.3-1
 _ZNK14KWaylandServer17OutputChangeSetV29transformEv@Base 5.24.3-1
 _ZNK14KWaylandServer17OutputChangeSetV29vrrPolicyEv@Base 5.24.3-1
 _ZNK14KWaylandServer17TabletV2Interface10metaObjectEv@Base 5.24.3-1
 _ZNK14KWaylandServer17TabletV2Interface18isSurfaceSupportedEPNS_16SurfaceInterfaceE@Base 5.24.3-1
 _ZNK14KWaylandServer17TabletV2Interface3padEv@Base 5.24.3-1
 _ZNK14KWaylandServer17XdgPopupInterface10metaObjectEv@Base 5.24.3-1
 _ZNK14KWaylandServer17XdgPopupInterface10positionerEv@Base 5.24.3-1
 _ZNK14KWaylandServer17XdgPopupInterface10xdgSurfaceEv@Base 5.24.3-1
 _ZNK14KWaylandServer17XdgPopupInterface12isConfiguredEv@Base 5.24.3-1
 _ZNK14KWaylandServer17XdgPopupInterface13parentSurfaceEv@Base 5.24.3-1
 _ZNK14KWaylandServer17XdgPopupInterface7surfaceEv@Base 5.24.3-1
 _ZNK14KWaylandServer17XdgShellInterface10metaObjectEv@Base 5.24.3-1
 _ZNK14KWaylandServer17XdgShellInterface7displayEv@Base 5.24.3-1
 _ZNK14KWaylandServer18AbstractDataSource10metaObjectEv@Base 5.24.3-1
 _ZNK14KWaylandServer18DataOfferInterface10metaObjectEv@Base 5.24.3-1
 _ZNK14KWaylandServer18DataOfferInterface26preferredDragAndDropActionEv@Base 5.24.3-1
 _ZNK14KWaylandServer18DataOfferInterface27supportedDragAndDropActionsEv@Base 5.24.3-1
 _ZNK14KWaylandServer18DataOfferInterface8resourceEv@Base 5.24.3-1
 _ZNK14KWaylandServer18FakeInputInterface10metaObjectEv@Base 5.24.3-1
 _ZNK14KWaylandServer19AbstractDropHandler10metaObjectEv@Base 5.24.3-1
 _ZNK14KWaylandServer19CompositorInterface10metaObjectEv@Base 5.24.3-1
 _ZNK14KWaylandServer19CompositorInterface7displayEv@Base 5.24.3-1
 _ZNK14KWaylandServer19DDEPointerInterface10metaObjectEv@Base 5.24.3-1
 _ZNK14KWaylandServer19DDEPointerInterface7ddeSeatEv@Base 5.24.3-1
 _ZNK14KWaylandServer19DataDeviceInterface10metaObjectEv@Base 5.24.3-1
 _ZNK14KWaylandServer19DataDeviceInterface4seatEv@Base 5.24.3-1
 _ZNK14KWaylandServer19DataDeviceInterface9selectionEv@Base 5.24.3-1
 _ZNK14KWaylandServer19DataSourceInterface10isAcceptedEv@Base 5.24.3-1
 _ZNK14KWaylandServer19DataSourceInterface10metaObjectEv@Base 5.24.3-1
 _ZNK14KWaylandServer19DataSourceInterface27supportedDragAndDropActionsEv@Base 5.24.3-1
 _ZNK14KWaylandServer19DataSourceInterface6clientEv@Base 5.24.3-1
 _ZNK14KWaylandServer19DataSourceInterface8resourceEv@Base 5.24.3-1
 _ZNK14KWaylandServer19DataSourceInterface9mimeTypesEv@Base 5.24.3-1
 _ZNK14KWaylandServer19DrmLeaseV1Interface10connectorsEv@Base 5.24.3-1
 _ZNK14KWaylandServer19DrmLeaseV1Interface10metaObjectEv@Base 5.24.3-1
 _ZNK14KWaylandServer19DrmLeaseV1Interface8lesseeIdEv@Base 5.24.3-1
 _ZNK14KWaylandServer19SubSurfaceInterface10metaObjectEv@Base 5.24.3-1
 _ZNK14KWaylandServer19SubSurfaceInterface11mainSurfaceEv@Base 5.24.3-1
 _ZNK14KWaylandServer19SubSurfaceInterface13parentSurfaceEv@Base 5.24.3-1
 _ZNK14KWaylandServer19SubSurfaceInterface14isSynchronizedEv@Base 5.24.3-1
 _ZNK14KWaylandServer19SubSurfaceInterface4modeEv@Base 5.24.3-1
 _ZNK14KWaylandServer19SubSurfaceInterface7surfaceEv@Base 5.24.3-1
 _ZNK14KWaylandServer19SubSurfaceInterface8positionEv@Base 5.24.3-1
 _ZNK14KWaylandServer19ViewporterInterface10metaObjectEv@Base 5.24.3-1
 _ZNK14KWaylandServer19XdgSurfaceInterface10metaObjectEv@Base 5.24.3-1
 _ZNK14KWaylandServer19XdgSurfaceInterface12isConfiguredEv@Base 5.24.3-1
 _ZNK14KWaylandServer19XdgSurfaceInterface14windowGeometryEv@Base 5.24.3-1
 _ZNK14KWaylandServer19XdgSurfaceInterface5popupEv@Base 5.24.3-1
 _ZNK14KWaylandServer19XdgSurfaceInterface5shellEv@Base 5.24.3-1
 _ZNK14KWaylandServer19XdgSurfaceInterface7surfaceEv@Base 5.24.3-1
 _ZNK14KWaylandServer19XdgSurfaceInterface8toplevelEv@Base 5.24.3-1
 _ZNK14KWaylandServer20BlurManagerInterface10metaObjectEv@Base 5.24.3-1
 _ZNK14KWaylandServer20DDEKeyboardInterface10metaObjectEv@Base 5.24.3-1
 _ZNK14KWaylandServer20DDEKeyboardInterface7ddeSeatEv@Base 5.24.3-1
 _ZNK14KWaylandServer20DpmsManagerInterface10metaObjectEv@Base 5.24.3-1
 _ZNK14KWaylandServer20PlasmaShellInterface10metaObjectEv@Base 5.24.3-1
 _ZNK14KWaylandServer20TabletPadV2Interface10metaObjectEv@Base 5.24.3-1
 _ZNK14KWaylandServer20TabletPadV2Interface14currentSurfaceEv@Base 5.24.3-1
 _ZNK14KWaylandServer20TabletPadV2Interface4ringEj@Base 5.24.3-1
 _ZNK14KWaylandServer20TabletPadV2Interface5stripEj@Base 5.24.3-1
 _ZNK14KWaylandServer20TextInputV2Interface10metaObjectEv@Base 5.24.3-1
 _ZNK14KWaylandServer20TextInputV2Interface12contentHintsEv@Base 5.24.3-1
 _ZNK14KWaylandServer20TextInputV2Interface14contentPurposeEv@Base 5.24.3-1
 _ZNK14KWaylandServer20TextInputV2Interface15cursorRectangleEv@Base 5.24.3-1
 _ZNK14KWaylandServer20TextInputV2Interface15surroundingTextEv@Base 5.24.3-1
 _ZNK14KWaylandServer20TextInputV2Interface17preferredLanguageEv@Base 5.24.3-1
 _ZNK14KWaylandServer20TextInputV2Interface29surroundingTextCursorPositionEv@Base 5.24.3-1
 _ZNK14KWaylandServer20TextInputV2Interface30surroundingTextSelectionAnchorEv@Base 5.24.3-1
 _ZNK14KWaylandServer20TextInputV2Interface7surfaceEv@Base 5.24.3-1
 _ZNK14KWaylandServer20TextInputV2Interface9isEnabledEv@Base 5.24.3-1
 _ZNK14KWaylandServer20TextInputV3Interface10metaObjectEv@Base 5.24.3-1
 _ZNK14KWaylandServer20TextInputV3Interface12contentHintsEv@Base 5.24.3-1
 _ZNK14KWaylandServer20TextInputV3Interface14contentPurposeEv@Base 5.24.3-1
 _ZNK14KWaylandServer20TextInputV3Interface15cursorRectangleEv@Base 5.24.3-1
 _ZNK14KWaylandServer20TextInputV3Interface15surroundingTextEv@Base 5.24.3-1
 _ZNK14KWaylandServer20TextInputV3Interface29surroundingTextCursorPositionEv@Base 5.24.3-1
 _ZNK14KWaylandServer20TextInputV3Interface30surroundingTextSelectionAnchorEv@Base 5.24.3-1
 _ZNK14KWaylandServer20TextInputV3Interface7surfaceEv@Base 5.24.3-1
 _ZNK14KWaylandServer20TextInputV3Interface9isEnabledEv@Base 5.24.3-1
 _ZNK14KWaylandServer20XdgOutputV1Interface10metaObjectEv@Base 5.24.3-1
 _ZNK14KWaylandServer20XdgOutputV1Interface11logicalSizeEv@Base 5.24.3-1
 _ZNK14KWaylandServer20XdgOutputV1Interface15logicalPositionEv@Base 5.24.3-1
 _ZNK14KWaylandServer20XdgToplevelInterface10metaObjectEv@Base 5.24.3-1
 _ZNK14KWaylandServer20XdgToplevelInterface10xdgSurfaceEv@Base 5.24.3-1
 _ZNK14KWaylandServer20XdgToplevelInterface11maximumSizeEv@Base 5.24.3-1
 _ZNK14KWaylandServer20XdgToplevelInterface11minimumSizeEv@Base 5.24.3-1
 _ZNK14KWaylandServer20XdgToplevelInterface11windowClassEv@Base 5.24.3-1
 _ZNK14KWaylandServer20XdgToplevelInterface11windowTitleEv@Base 5.24.3-1
 _ZNK14KWaylandServer20XdgToplevelInterface12isConfiguredEv@Base 5.24.3-1
 _ZNK14KWaylandServer20XdgToplevelInterface17parentXdgToplevelEv@Base 5.24.3-1
 _ZNK14KWaylandServer20XdgToplevelInterface5shellEv@Base 5.24.3-1
 _ZNK14KWaylandServer20XdgToplevelInterface7surfaceEv@Base 5.24.3-1
 _ZNK14KWaylandServer21InputPanelV1Interface10metaObjectEv@Base 5.24.3-1
 _ZNK14KWaylandServer21LayerShellV1Interface10metaObjectEv@Base 5.24.3-1
 _ZNK14KWaylandServer21LayerShellV1Interface7displayEv@Base 5.24.3-1
 _ZNK14KWaylandServer21LinuxDmaBufV1Feedback10metaObjectEv@Base 5.24.3-1
 _ZNK14KWaylandServer21PlasmaWindowInterface10internalIdEv@Base 5.24.3-1
 _ZNK14KWaylandServer21PlasmaWindowInterface10metaObjectEv@Base 5.24.3-1
 _ZNK14KWaylandServer21PlasmaWindowInterface16plasmaActivitiesEv@Base 5.24.3-1
 _ZNK14KWaylandServer21PlasmaWindowInterface19minimizedGeometriesEv@Base 5.24.3-1
 _ZNK14KWaylandServer21PlasmaWindowInterface21plasmaVirtualDesktopsEv@Base 5.24.3-1
 _ZNK14KWaylandServer21PlasmaWindowInterface4uuidEv@Base 5.24.3-1
 _ZNK14KWaylandServer21ScreencastV1Interface10metaObjectEv@Base 5.24.3-1
 _ZNK14KWaylandServer21SlideManagerInterface10metaObjectEv@Base 5.24.3-1
 _ZNK14KWaylandServer21TabletSeatV2Interface10metaObjectEv@Base 5.24.3-1
 _ZNK14KWaylandServer21TabletSeatV2Interface16toolByHardwareIdEy@Base 5.24.3-1
 _ZNK14KWaylandServer21TabletSeatV2Interface17isClientSupportedEPNS_16ClientConnectionE@Base 5.24.3-1
 _ZNK14KWaylandServer21TabletSeatV2Interface20toolByHardwareSerialEyNS_21TabletToolV2Interface4TypeE@Base 5.24.3-1
 _ZNK14KWaylandServer21TabletSeatV2Interface9padByNameERK7QString@Base 5.24.3-1
 _ZNK14KWaylandServer21TabletToolV2Interface10metaObjectEv@Base 5.24.3-1
 _ZNK14KWaylandServer21TabletToolV2Interface13cursorChangedEPNS_14TabletCursorV2E@Base 5.24.3-1
 _ZNK14KWaylandServer21TabletToolV2Interface17isClientSupportedEv@Base 5.24.3-1
 _ZNK14KWaylandServer21XdgForeignV2Interface10metaObjectEv@Base 5.24.3-1
 _ZNK14KWaylandServer22InputMethodV1Interface10metaObjectEv@Base 5.24.3-1
 _ZNK14KWaylandServer22InputMethodV1Interface7contextEv@Base 5.24.3-1
 _ZNK14KWaylandServer22ShadowManagerInterface10metaObjectEv@Base 5.24.3-1
 _ZNK14KWaylandServer22ShadowManagerInterface7displayEv@Base 5.24.3-1
 _ZNK14KWaylandServer22SubCompositorInterface10metaObjectEv@Base 5.24.3-1
 _ZNK14KWaylandServer23AppMenuManagerInterface10metaObjectEv@Base 5.24.3-1
 _ZNK14KWaylandServer23ClientBufferIntegration10metaObjectEv@Base 5.24.3-1
 _ZNK14KWaylandServer23ClientBufferIntegration7displayEv@Base 5.24.3-1
 _ZNK14KWaylandServer23LayerSurfaceV1Interface10leftMarginEv@Base 5.24.3-1
 _ZNK14KWaylandServer23LayerSurfaceV1Interface10metaObjectEv@Base 5.24.3-1
 _ZNK14KWaylandServer23LayerSurfaceV1Interface11desiredSizeEv@Base 5.24.3-1
 _ZNK14KWaylandServer23LayerSurfaceV1Interface11isCommittedEv@Base 5.24.3-1
 _ZNK14KWaylandServer23LayerSurfaceV1Interface11rightMarginEv@Base 5.24.3-1
 _ZNK14KWaylandServer23LayerSurfaceV1Interface12acceptsFocusEv@Base 5.24.3-1
 _ZNK14KWaylandServer23LayerSurfaceV1Interface12bottomMarginEv@Base 5.24.3-1
 _ZNK14KWaylandServer23LayerSurfaceV1Interface13exclusiveEdgeEv@Base 5.24.3-1
 _ZNK14KWaylandServer23LayerSurfaceV1Interface13exclusiveZoneEv@Base 5.24.3-1
 _ZNK14KWaylandServer23LayerSurfaceV1Interface5layerEv@Base 5.24.3-1
 _ZNK14KWaylandServer23LayerSurfaceV1Interface5scopeEv@Base 5.24.3-1
 _ZNK14KWaylandServer23LayerSurfaceV1Interface6anchorEv@Base 5.24.3-1
 _ZNK14KWaylandServer23LayerSurfaceV1Interface6outputEv@Base 5.24.3-1
 _ZNK14KWaylandServer23LayerSurfaceV1Interface7marginsEv@Base 5.24.3-1
 _ZNK14KWaylandServer23LayerSurfaceV1Interface7surfaceEv@Base 5.24.3-1
 _ZNK14KWaylandServer23LayerSurfaceV1Interface9topMarginEv@Base 5.24.3-1
 _ZNK14KWaylandServer23OutputDeviceV2Interface10brightnessEv@Base 5.24.3-1
 _ZNK14KWaylandServer23OutputDeviceV2Interface10metaObjectEv@Base 5.24.3-1
 _ZNK14KWaylandServer23OutputDeviceV2Interface11refreshRateEv@Base 5.24.3-1
 _ZNK14KWaylandServer23OutputDeviceV2Interface12capabilitiesEv@Base 5.24.3-1
 _ZNK14KWaylandServer23OutputDeviceV2Interface12manufacturerEv@Base 5.24.3-1
 _ZNK14KWaylandServer23OutputDeviceV2Interface12physicalSizeEv@Base 5.24.3-1
 _ZNK14KWaylandServer23OutputDeviceV2Interface12serialNumberEv@Base 5.24.3-1
 _ZNK14KWaylandServer23OutputDeviceV2Interface14globalPositionEv@Base 5.24.3-1
 _ZNK14KWaylandServer23OutputDeviceV2Interface4edidEv@Base 5.24.3-1
 _ZNK14KWaylandServer23OutputDeviceV2Interface4nameEv@Base 5.24.3-1
 _ZNK14KWaylandServer23OutputDeviceV2Interface4uuidEv@Base 5.24.3-1
 _ZNK14KWaylandServer23OutputDeviceV2Interface5modelEv@Base 5.24.3-1
 _ZNK14KWaylandServer23OutputDeviceV2Interface5scaleEv@Base 5.24.3-1
 _ZNK14KWaylandServer23OutputDeviceV2Interface6eisaIdEv@Base 5.24.3-1
 _ZNK14KWaylandServer23OutputDeviceV2Interface7enabledEv@Base 5.24.3-1
 _ZNK14KWaylandServer23OutputDeviceV2Interface8overscanEv@Base 5.24.3-1
 _ZNK14KWaylandServer23OutputDeviceV2Interface8resourceEv@Base 5.24.3-1
 _ZNK14KWaylandServer23OutputDeviceV2Interface8rgbRangeEv@Base 5.24.3-1
 _ZNK14KWaylandServer23OutputDeviceV2Interface8subPixelEv@Base 5.24.3-1
 _ZNK14KWaylandServer23OutputDeviceV2Interface9pixelSizeEv@Base 5.24.3-1
 _ZNK14KWaylandServer23OutputDeviceV2Interface9transformEv@Base 5.24.3-1
 _ZNK14KWaylandServer23OutputDeviceV2Interface9vrrPolicyEv@Base 5.24.3-1
 _ZNK14KWaylandServer24ContrastManagerInterface10metaObjectEv@Base 5.24.3-1
 _ZNK14KWaylandServer24DDEShellSurfaceInterface10metaObjectEv@Base 5.24.3-1
 _ZNK14KWaylandServer24DDEShellSurfaceInterface7surfaceEv@Base 5.24.3-1
 _ZNK14KWaylandServer24LockedPointerV1Interface10metaObjectEv@Base 5.24.3-1
 _ZNK14KWaylandServer24LockedPointerV1Interface18cursorPositionHintEv@Base 5.24.3-1
 _ZNK14KWaylandServer24LockedPointerV1Interface6regionEv@Base 5.24.3-1
 _ZNK14KWaylandServer24LockedPointerV1Interface8isLockedEv@Base 5.24.3-1
 _ZNK14KWaylandServer24LockedPointerV1Interface8lifeTimeEv@Base 5.24.3-1
 _ZNK14KWaylandServer24PrimaryOutputV1Interface10metaObjectEv@Base 5.24.3-1
 _ZNK14KWaylandServer24TabletManagerV2Interface10metaObjectEv@Base 5.24.3-1
 _ZNK14KWaylandServer24TabletManagerV2Interface4seatEPNS_13SeatInterfaceE@Base 5.24.3-1
 _ZNK14KWaylandServer24TabletPadRingV2Interface10metaObjectEv@Base 5.24.3-1
 _ZNK14KWaylandServer24XdgActivationV1Interface10metaObjectEv@Base 5.24.3-1
 _ZNK14KWaylandServer25ClientManagementInterface10metaObjectEv@Base 5.24.3-1
 _ZNK14KWaylandServer25DrmLeaseDeviceV1Interface10metaObjectEv@Base 5.24.3-1
 _ZNK14KWaylandServer25LinuxDmaBufV1ClientBuffer10metaObjectEv@Base 5.24.3-1
 _ZNK14KWaylandServer25LinuxDmaBufV1ClientBuffer15hasAlphaChannelEv@Base 5.24.3-1
 _ZNK14KWaylandServer25LinuxDmaBufV1ClientBuffer4sizeEv@Base 5.24.3-1
 _ZNK14KWaylandServer25LinuxDmaBufV1ClientBuffer5flagsEv@Base 5.24.3-1
 _ZNK14KWaylandServer25LinuxDmaBufV1ClientBuffer6formatEv@Base 5.24.3-1
 _ZNK14KWaylandServer25LinuxDmaBufV1ClientBuffer6originEv@Base 5.24.3-1
 _ZNK14KWaylandServer25LinuxDmaBufV1ClientBuffer6planesEv@Base 5.24.3-1
 _ZNK14KWaylandServer25TabletPadGroupV2Interface10metaObjectEv@Base 5.24.3-1
 _ZNK14KWaylandServer25TabletPadStripV2Interface10metaObjectEv@Base 5.24.3-1
 _ZNK14KWaylandServer26ConfinedPointerV1Interface10isConfinedEv@Base 5.24.3-1
 _ZNK14KWaylandServer26ConfinedPointerV1Interface10metaObjectEv@Base 5.24.3-1
 _ZNK14KWaylandServer26ConfinedPointerV1Interface6regionEv@Base 5.24.3-1
 _ZNK14KWaylandServer26ConfinedPointerV1Interface8lifeTimeEv@Base 5.24.3-1
 _ZNK14KWaylandServer26DataDeviceManagerInterface10metaObjectEv@Base 5.24.3-1
 _ZNK14KWaylandServer26DrmClientBufferIntegration10metaObjectEv@Base 5.24.3-1
 _ZNK14KWaylandServer26PointerGesturesV1Interface10metaObjectEv@Base 5.24.3-1
 _ZNK14KWaylandServer27DataControlOfferV1Interface10metaObjectEv@Base 5.24.3-1
 _ZNK14KWaylandServer27DataControlOfferV1Interface8resourceEv@Base 5.24.3-1
 _ZNK14KWaylandServer27OutputDeviceModeV2Interface10metaObjectEv@Base 5.24.3-1
 _ZNK14KWaylandServer27OutputDeviceModeV2Interface11refreshRateEv@Base 5.24.3-1
 _ZNK14KWaylandServer27OutputDeviceModeV2Interface4sizeEv@Base 5.24.3-1
 _ZNK14KWaylandServer27OutputDeviceModeV2Interface5flagsEv@Base 5.24.3-1
 _ZNK14KWaylandServer27OutputManagementV2Interface10metaObjectEv@Base 5.24.3-1
 _ZNK14KWaylandServer27PlasmaShellSurfaceInterface10metaObjectEv@Base 5.24.3-1
 _ZNK14KWaylandServer27PlasmaShellSurfaceInterface11skipTaskbarEv@Base 5.24.3-1
 _ZNK14KWaylandServer27PlasmaShellSurfaceInterface12skipSwitcherEv@Base 5.24.3-1
 _ZNK14KWaylandServer27PlasmaShellSurfaceInterface13isPositionSetEv@Base 5.24.3-1
 _ZNK14KWaylandServer27PlasmaShellSurfaceInterface13panelBehaviorEv@Base 5.24.3-1
 _ZNK14KWaylandServer27PlasmaShellSurfaceInterface15panelTakesFocusEv@Base 5.24.3-1
 _ZNK14KWaylandServer27PlasmaShellSurfaceInterface4roleEv@Base 5.24.3-1
 _ZNK14KWaylandServer27PlasmaShellSurfaceInterface7surfaceEv@Base 5.24.3-1
 _ZNK14KWaylandServer27PlasmaShellSurfaceInterface8positionEv@Base 5.24.3-1
 _ZNK14KWaylandServer27ScreencastStreamV1Interface10metaObjectEv@Base 5.24.3-1
 _ZNK14KWaylandServer27TextInputManagerV2Interface10metaObjectEv@Base 5.24.3-1
 _ZNK14KWaylandServer27TextInputManagerV3Interface10metaObjectEv@Base 5.24.3-1
 _ZNK14KWaylandServer27XdgOutputManagerV1Interface10metaObjectEv@Base 5.24.3-1
 _ZNK14KWaylandServer28DataControlDeviceV1Interface10metaObjectEv@Base 5.24.3-1
 _ZNK14KWaylandServer28DataControlDeviceV1Interface16primarySelectionEv@Base 5.24.3-1
 _ZNK14KWaylandServer28DataControlDeviceV1Interface4seatEv@Base 5.24.3-1
 _ZNK14KWaylandServer28DataControlDeviceV1Interface9selectionEv@Base 5.24.3-1
 _ZNK14KWaylandServer28DataControlSourceV1Interface10metaObjectEv@Base 5.24.3-1
 _ZNK14KWaylandServer28DataControlSourceV1Interface6clientEv@Base 5.24.3-1
 _ZNK14KWaylandServer28DataControlSourceV1Interface9mimeTypesEv@Base 5.24.3-1
 _ZNK14KWaylandServer28DrmLeaseConnectorV1Interface10metaObjectEv@Base 5.24.3-1
 _ZNK14KWaylandServer28InputPanelSurfaceV1Interface10metaObjectEv@Base 5.24.3-1
 _ZNK14KWaylandServer28InputPanelSurfaceV1Interface7surfaceEv@Base 5.24.3-1
 _ZNK14KWaylandServer29IdleInhibitManagerV1Interface10metaObjectEv@Base 5.24.3-1
 _ZNK14KWaylandServer29InputMethodContextV1Interface10metaObjectEv@Base 5.24.3-1
 _ZNK14KWaylandServer29InputMethodContextV1Interface12keyboardGrabEv@Base 5.24.3-1
 _ZNK14KWaylandServer29PlasmaVirtualDesktopInterface10metaObjectEv@Base 5.24.3-1
 _ZNK14KWaylandServer29PlasmaVirtualDesktopInterface2idEv@Base 5.24.3-1
 _ZNK14KWaylandServer29PlasmaVirtualDesktopInterface4nameEv@Base 5.24.3-1
 _ZNK14KWaylandServer29PlasmaVirtualDesktopInterface8isActiveEv@Base 5.24.3-1
 _ZNK14KWaylandServer29PointerConstraintsV1Interface10metaObjectEv@Base 5.24.3-1
 _ZNK14KWaylandServer29ServerSideDecorationInterface10metaObjectEv@Base 5.24.3-1
 _ZNK14KWaylandServer29ServerSideDecorationInterface13preferredModeEv@Base 5.24.3-1
 _ZNK14KWaylandServer29ServerSideDecorationInterface4modeEv@Base 5.24.3-1
 _ZNK14KWaylandServer29ServerSideDecorationInterface7surfaceEv@Base 5.24.3-1
 _ZNK14KWaylandServer30OutputConfigurationV2Interface10metaObjectEv@Base 5.24.3-1
 _ZNK14KWaylandServer30OutputConfigurationV2Interface14primaryChangedEv@Base 5.24.3-1
 _ZNK14KWaylandServer30OutputConfigurationV2Interface7changesEv@Base 5.24.3-1
 _ZNK14KWaylandServer30OutputConfigurationV2Interface7primaryEv@Base 5.24.3-1
 _ZNK14KWaylandServer31PlasmaWindowManagementInterface10metaObjectEv@Base 5.24.3-1
 _ZNK14KWaylandServer31PlasmaWindowManagementInterface39plasmaVirtualDesktopManagementInterfaceEv@Base 5.24.3-1
 _ZNK14KWaylandServer31PlasmaWindowManagementInterface7windowsEv@Base 5.24.3-1
 _ZNK14KWaylandServer31XdgDecorationManagerV1Interface10metaObjectEv@Base 5.24.3-1
 _ZNK14KWaylandServer32PrimarySelectionOfferV1Interface10metaObjectEv@Base 5.24.3-1
 _ZNK14KWaylandServer32PrimarySelectionOfferV1Interface8resourceEv@Base 5.24.3-1
 _ZNK14KWaylandServer32XdgToplevelDecorationV1Interface10metaObjectEv@Base 5.24.3-1
 _ZNK14KWaylandServer32XdgToplevelDecorationV1Interface13preferredModeEv@Base 5.24.3-1
 _ZNK14KWaylandServer32XdgToplevelDecorationV1Interface8toplevelEv@Base 5.24.3-1
 _ZNK14KWaylandServer33PrimarySelectionDeviceV1Interface10metaObjectEv@Base 5.24.3-1
 _ZNK14KWaylandServer33PrimarySelectionDeviceV1Interface4seatEv@Base 5.24.3-1
 _ZNK14KWaylandServer33PrimarySelectionDeviceV1Interface6clientEv@Base 5.24.3-1
 _ZNK14KWaylandServer33PrimarySelectionDeviceV1Interface9selectionEv@Base 5.24.3-1
 _ZNK14KWaylandServer33PrimarySelectionSourceV1Interface10metaObjectEv@Base 5.24.3-1
 _ZNK14KWaylandServer33PrimarySelectionSourceV1Interface6clientEv@Base 5.24.3-1
 _ZNK14KWaylandServer33PrimarySelectionSourceV1Interface9mimeTypesEv@Base 5.24.3-1
 _ZNK14KWaylandServer33RelativePointerManagerV1Interface10metaObjectEv@Base 5.24.3-1
 _ZNK14KWaylandServer35DataControlDeviceManagerV1Interface10metaObjectEv@Base 5.24.3-1
 _ZNK14KWaylandServer36LinuxDmaBufV1ClientBufferIntegration10metaObjectEv@Base 5.24.3-1
 _ZNK14KWaylandServer36LinuxDmaBufV1ClientBufferIntegration17rendererInterfaceEv@Base 5.24.3-1
 _ZNK14KWaylandServer36ServerSideDecorationManagerInterface10metaObjectEv@Base 5.24.3-1
 _ZNK14KWaylandServer36ServerSideDecorationManagerInterface11defaultModeEv@Base 5.24.3-1
 _ZNK14KWaylandServer36ServerSideDecorationPaletteInterface10metaObjectEv@Base 5.24.3-1
 _ZNK14KWaylandServer36ServerSideDecorationPaletteInterface7paletteEv@Base 5.24.3-1
 _ZNK14KWaylandServer36ServerSideDecorationPaletteInterface7surfaceEv@Base 5.24.3-1
 _ZNK14KWaylandServer37KeyboardShortcutsInhibitorV1Interface10metaObjectEv@Base 5.24.3-1
 _ZNK14KWaylandServer37KeyboardShortcutsInhibitorV1Interface4seatEv@Base 5.24.3-1
 _ZNK14KWaylandServer37KeyboardShortcutsInhibitorV1Interface7surfaceEv@Base 5.24.3-1
 _ZNK14KWaylandServer37KeyboardShortcutsInhibitorV1Interface8isActiveEv@Base 5.24.3-1
 _ZNK14KWaylandServer39PlasmaVirtualDesktopManagementInterface10metaObjectEv@Base 5.24.3-1
 _ZNK14KWaylandServer39PlasmaVirtualDesktopManagementInterface8desktopsEv@Base 5.24.3-1
 _ZNK14KWaylandServer39PlasmaWindowActivationFeedbackInterface10metaObjectEv@Base 5.24.3-1
 _ZNK14KWaylandServer40PrimarySelectionDeviceManagerV1Interface10metaObjectEv@Base 5.24.3-1
 _ZNK14KWaylandServer42KeyboardShortcutsInhibitManagerV1Interface10metaObjectEv@Base 5.24.3-1
 _ZNK14KWaylandServer42KeyboardShortcutsInhibitManagerV1Interface13findInhibitorEPNS_16SurfaceInterfaceEPNS_13SeatInterfaceE@Base 5.24.3-1
 _ZNK14KWaylandServer43ServerSideDecorationPaletteManagerInterface10metaObjectEv@Base 5.24.3-1
 _ZNK14KWaylandServer6Cursor10metaObjectEv@Base 5.24.3-1
 _ZNK14KWaylandServer6Cursor13enteredSerialEv@Base 5.24.3-1
 _ZNK14KWaylandServer6Cursor7hotspotEv@Base 5.24.3-1
 _ZNK14KWaylandServer6Cursor7pointerEv@Base 5.24.3-1
 _ZNK14KWaylandServer6Cursor7surfaceEv@Base 5.24.3-1
 _ZNK14KWaylandServer7Display10eglDisplayEv@Base 5.24.3-1
 _ZNK14KWaylandServer7Display10metaObjectEv@Base 5.24.3-1
 _ZNK14KWaylandServer7Display11connectionsEv@Base 5.24.3-1
 _ZNK14KWaylandServer7Display11socketNamesEv@Base 5.24.3-1
 _ZNK14KWaylandServer7Display13outputDevicesEv@Base 5.24.3-1
 _ZNK14KWaylandServer7Display19outputsIntersectingERK5QRect@Base 5.24.3-1
 _ZNK14KWaylandServer7Display23clientBufferForResourceEP11wl_resource@Base 5.24.3-1
 _ZNK14KWaylandServer7Display5seatsEv@Base 5.24.3-1
 _ZNK14KWaylandServer7Display7outputsEv@Base 5.24.3-1
 _ZNK14KWaylandServer7Display9isRunningEv@Base 5.24.3-1
 _ZNK14KWaylandServer7DisplaycvP10wl_displayEv@Base 5.24.3-1
 _ZTIN14KWaylandServer12ClientBufferE@Base 5.24.3-1
 _ZTIN14KWaylandServer13BlurInterfaceE@Base 5.24.3-1
 _ZTIN14KWaylandServer13IdleInterfaceE@Base 5.24.3-1
 _ZTIN14KWaylandServer13SeatInterfaceE@Base 5.24.3-1
 _ZTIN14KWaylandServer14SlideInterfaceE@Base 5.24.3-1
 _ZTIN14KWaylandServer14StrutInterfaceE@Base 5.24.3-1
 _ZTIN14KWaylandServer14TabletCursorV2E@Base 5.24.3-1
 _ZTIN14KWaylandServer14TouchInterfaceE@Base 5.24.3-1
 _ZTIN14KWaylandServer15DragAndDropIconE@Base 5.24.3-1
 _ZTIN14KWaylandServer15DrmClientBufferE@Base 5.24.3-1
 _ZTIN14KWaylandServer15FakeInputDeviceE@Base 5.24.3-1
 _ZTIN14KWaylandServer15FilteredDisplayE@Base 5.24.3-1
 _ZTIN14KWaylandServer15OutputInterfaceE@Base 5.24.3-1
 _ZTIN14KWaylandServer15ShadowInterfaceE@Base 5.24.3-1
 _ZTIN14KWaylandServer15ShmClientBufferE@Base 5.24.3-1
 _ZTIN14KWaylandServer16AppMenuInterfaceE@Base 5.24.3-1
 _ZTIN14KWaylandServer16ClientConnectionE@Base 5.24.3-1
 _ZTIN14KWaylandServer16DDESeatInterfaceE@Base 5.24.3-1
 _ZTIN14KWaylandServer16PointerInterfaceE@Base 5.24.3-1
 _ZTIN14KWaylandServer16SurfaceInterfaceE@Base 5.24.3-1
 _ZTIN14KWaylandServer17ContrastInterfaceE@Base 5.24.3-1
 _ZTIN14KWaylandServer17DDEShellInterfaceE@Base 5.24.3-1
 _ZTIN14KWaylandServer17DDETouchInterfaceE@Base 5.24.3-1
 _ZTIN14KWaylandServer17InputMethodGrabV1E@Base 5.24.3-1
 _ZTIN14KWaylandServer17KeyStateInterfaceE@Base 5.24.3-1
 _ZTIN14KWaylandServer17KeyboardInterfaceE@Base 5.24.3-1
 _ZTIN14KWaylandServer17OutputChangeSetV2E@Base 5.24.3-1
 _ZTIN14KWaylandServer17TabletV2InterfaceE@Base 5.24.3-1
 _ZTIN14KWaylandServer17XdgPopupInterfaceE@Base 5.24.3-1
 _ZTIN14KWaylandServer17XdgShellInterfaceE@Base 5.24.3-1
 _ZTIN14KWaylandServer18AbstractDataSourceE@Base 5.24.3-1
 _ZTIN14KWaylandServer18DataOfferInterfaceE@Base 5.24.3-1
 _ZTIN14KWaylandServer18FakeInputInterfaceE@Base 5.24.3-1
 _ZTIN14KWaylandServer19AbstractDropHandlerE@Base 5.24.3-1
 _ZTIN14KWaylandServer19CompositorInterfaceE@Base 5.24.3-1
 _ZTIN14KWaylandServer19DDEPointerInterfaceE@Base 5.24.3-1
 _ZTIN14KWaylandServer19DataDeviceInterfaceE@Base 5.24.3-1
 _ZTIN14KWaylandServer19DataSourceInterfaceE@Base 5.24.3-1
 _ZTIN14KWaylandServer19DrmLeaseV1InterfaceE@Base 5.24.3-1
 _ZTIN14KWaylandServer19SubSurfaceInterfaceE@Base 5.24.3-1
 _ZTIN14KWaylandServer19ViewporterInterfaceE@Base 5.24.3-1
 _ZTIN14KWaylandServer19XdgSurfaceInterfaceE@Base 5.24.3-1
 _ZTIN14KWaylandServer20BlurManagerInterfaceE@Base 5.24.3-1
 _ZTIN14KWaylandServer20DDEKeyboardInterfaceE@Base 5.24.3-1
 _ZTIN14KWaylandServer20DpmsManagerInterfaceE@Base 5.24.3-1
 _ZTIN14KWaylandServer20PlasmaShellInterfaceE@Base 5.24.3-1
 _ZTIN14KWaylandServer20TabletPadV2InterfaceE@Base 5.24.3-1
 _ZTIN14KWaylandServer20TextInputV2InterfaceE@Base 5.24.3-1
 _ZTIN14KWaylandServer20TextInputV3InterfaceE@Base 5.24.3-1
 _ZTIN14KWaylandServer20XdgOutputV1InterfaceE@Base 5.24.3-1
 _ZTIN14KWaylandServer20XdgToplevelInterfaceE@Base 5.24.3-1
 _ZTIN14KWaylandServer21InputPanelV1InterfaceE@Base 5.24.3-1
 _ZTIN14KWaylandServer21LayerShellV1InterfaceE@Base 5.24.3-1
 _ZTIN14KWaylandServer21LinuxDmaBufV1FeedbackE@Base 5.24.3-1
 _ZTIN14KWaylandServer21PlasmaWindowInterfaceE@Base 5.24.3-1
 _ZTIN14KWaylandServer21ScreencastV1InterfaceE@Base 5.24.3-1
 _ZTIN14KWaylandServer21SlideManagerInterfaceE@Base 5.24.3-1
 _ZTIN14KWaylandServer21TabletSeatV2InterfaceE@Base 5.24.3-1
 _ZTIN14KWaylandServer21TabletToolV2InterfaceE@Base 5.24.3-1
 _ZTIN14KWaylandServer21XdgForeignV2InterfaceE@Base 5.24.3-1
 _ZTIN14KWaylandServer22InputMethodV1InterfaceE@Base 5.24.3-1
 _ZTIN14KWaylandServer22ShadowManagerInterfaceE@Base 5.24.3-1
 _ZTIN14KWaylandServer22SubCompositorInterfaceE@Base 5.24.3-1
 _ZTIN14KWaylandServer23AppMenuManagerInterfaceE@Base 5.24.3-1
 _ZTIN14KWaylandServer23ClientBufferIntegrationE@Base 5.24.3-1
 _ZTIN14KWaylandServer23LayerSurfaceV1InterfaceE@Base 5.24.3-1
 _ZTIN14KWaylandServer23OutputDeviceV2InterfaceE@Base 5.24.3-1
 _ZTIN14KWaylandServer24ContrastManagerInterfaceE@Base 5.24.3-1
 _ZTIN14KWaylandServer24DDEShellSurfaceInterfaceE@Base 5.24.3-1
 _ZTIN14KWaylandServer24LockedPointerV1InterfaceE@Base 5.24.3-1
 _ZTIN14KWaylandServer24PrimaryOutputV1InterfaceE@Base 5.24.3-1
 _ZTIN14KWaylandServer24TabletManagerV2InterfaceE@Base 5.24.3-1
 _ZTIN14KWaylandServer24TabletPadRingV2InterfaceE@Base 5.24.3-1
 _ZTIN14KWaylandServer24XdgActivationV1InterfaceE@Base 5.24.3-1
 _ZTIN14KWaylandServer25ClientManagementInterfaceE@Base 5.24.3-1
 _ZTIN14KWaylandServer25DrmLeaseDeviceV1InterfaceE@Base 5.24.3-1
 _ZTIN14KWaylandServer25LinuxDmaBufV1ClientBufferE@Base 5.24.3-1
 _ZTIN14KWaylandServer25TabletPadGroupV2InterfaceE@Base 5.24.3-1
 _ZTIN14KWaylandServer25TabletPadStripV2InterfaceE@Base 5.24.3-1
 _ZTIN14KWaylandServer26ConfinedPointerV1InterfaceE@Base 5.24.3-1
 _ZTIN14KWaylandServer26DataDeviceManagerInterfaceE@Base 5.24.3-1
 _ZTIN14KWaylandServer26DrmClientBufferIntegrationE@Base 5.24.3-1
 _ZTIN14KWaylandServer26PointerGesturesV1InterfaceE@Base 5.24.3-1
 _ZTIN14KWaylandServer27DataControlOfferV1InterfaceE@Base 5.24.3-1
 _ZTIN14KWaylandServer27OutputDeviceModeV2InterfaceE@Base 5.24.3-1
 _ZTIN14KWaylandServer27OutputManagementV2InterfaceE@Base 5.24.3-1
 _ZTIN14KWaylandServer27PlasmaShellSurfaceInterfaceE@Base 5.24.3-1
 _ZTIN14KWaylandServer27ScreencastStreamV1InterfaceE@Base 5.24.3-1
 _ZTIN14KWaylandServer27TextInputManagerV2InterfaceE@Base 5.24.3-1
 _ZTIN14KWaylandServer27TextInputManagerV3InterfaceE@Base 5.24.3-1
 _ZTIN14KWaylandServer27XdgOutputManagerV1InterfaceE@Base 5.24.3-1
 _ZTIN14KWaylandServer28DataControlDeviceV1InterfaceE@Base 5.24.3-1
 _ZTIN14KWaylandServer28DataControlSourceV1InterfaceE@Base 5.24.3-1
 _ZTIN14KWaylandServer28DrmLeaseConnectorV1InterfaceE@Base 5.24.3-1
 _ZTIN14KWaylandServer28InputPanelSurfaceV1InterfaceE@Base 5.24.3-1
 _ZTIN14KWaylandServer29IdleInhibitManagerV1InterfaceE@Base 5.24.3-1
 _ZTIN14KWaylandServer29InputMethodContextV1InterfaceE@Base 5.24.3-1
 _ZTIN14KWaylandServer29PlasmaVirtualDesktopInterfaceE@Base 5.24.3-1
 _ZTIN14KWaylandServer29PointerConstraintsV1InterfaceE@Base 5.24.3-1
 _ZTIN14KWaylandServer29ServerSideDecorationInterfaceE@Base 5.24.3-1
 _ZTIN14KWaylandServer30OutputConfigurationV2InterfaceE@Base 5.24.3-1
 _ZTIN14KWaylandServer31PlasmaWindowManagementInterfaceE@Base 5.24.3-1
 _ZTIN14KWaylandServer31XdgDecorationManagerV1InterfaceE@Base 5.24.3-1
 _ZTIN14KWaylandServer32PrimarySelectionOfferV1InterfaceE@Base 5.24.3-1
 _ZTIN14KWaylandServer32XdgToplevelDecorationV1InterfaceE@Base 5.24.3-1
 _ZTIN14KWaylandServer33PrimarySelectionDeviceV1InterfaceE@Base 5.24.3-1
 _ZTIN14KWaylandServer33PrimarySelectionSourceV1InterfaceE@Base 5.24.3-1
 _ZTIN14KWaylandServer33RelativePointerManagerV1InterfaceE@Base 5.24.3-1
 _ZTIN14KWaylandServer35DataControlDeviceManagerV1InterfaceE@Base 5.24.3-1
 _ZTIN14KWaylandServer36LinuxDmaBufV1ClientBufferIntegrationE@Base 5.24.3-1
 _ZTIN14KWaylandServer36ServerSideDecorationManagerInterfaceE@Base 5.24.3-1
 _ZTIN14KWaylandServer36ServerSideDecorationPaletteInterfaceE@Base 5.24.3-1
 _ZTIN14KWaylandServer37KeyboardShortcutsInhibitorV1InterfaceE@Base 5.24.3-1
 _ZTIN14KWaylandServer39PlasmaVirtualDesktopManagementInterfaceE@Base 5.24.3-1
 _ZTIN14KWaylandServer39PlasmaWindowActivationFeedbackInterfaceE@Base 5.24.3-1
 _ZTIN14KWaylandServer40PrimarySelectionDeviceManagerV1InterfaceE@Base 5.24.3-1
 _ZTIN14KWaylandServer42KeyboardShortcutsInhibitManagerV1InterfaceE@Base 5.24.3-1
 _ZTIN14KWaylandServer43ServerSideDecorationPaletteManagerInterfaceE@Base 5.24.3-1
 _ZTIN14KWaylandServer6CursorE@Base 5.24.3-1
 _ZTIN14KWaylandServer7DisplayE@Base 5.24.3-1
 _ZTSN14KWaylandServer12ClientBufferE@Base 5.24.3-1
 _ZTSN14KWaylandServer13BlurInterfaceE@Base 5.24.3-1
 _ZTSN14KWaylandServer13IdleInterfaceE@Base 5.24.3-1
 _ZTSN14KWaylandServer13SeatInterfaceE@Base 5.24.3-1
 _ZTSN14KWaylandServer14SlideInterfaceE@Base 5.24.3-1
 _ZTSN14KWaylandServer14StrutInterfaceE@Base 5.24.3-1
 _ZTSN14KWaylandServer14TabletCursorV2E@Base 5.24.3-1
 _ZTSN14KWaylandServer14TouchInterfaceE@Base 5.24.3-1
 _ZTSN14KWaylandServer15DragAndDropIconE@Base 5.24.3-1
 _ZTSN14KWaylandServer15DrmClientBufferE@Base 5.24.3-1
 _ZTSN14KWaylandServer15FakeInputDeviceE@Base 5.24.3-1
 _ZTSN14KWaylandServer15FilteredDisplayE@Base 5.24.3-1
 _ZTSN14KWaylandServer15OutputInterfaceE@Base 5.24.3-1
 _ZTSN14KWaylandServer15ShadowInterfaceE@Base 5.24.3-1
 _ZTSN14KWaylandServer15ShmClientBufferE@Base 5.24.3-1
 _ZTSN14KWaylandServer16AppMenuInterfaceE@Base 5.24.3-1
 _ZTSN14KWaylandServer16ClientConnectionE@Base 5.24.3-1
 _ZTSN14KWaylandServer16DDESeatInterfaceE@Base 5.24.3-1
 _ZTSN14KWaylandServer16PointerInterfaceE@Base 5.24.3-1
 _ZTSN14KWaylandServer16SurfaceInterfaceE@Base 5.24.3-1
 _ZTSN14KWaylandServer17ContrastInterfaceE@Base 5.24.3-1
 _ZTSN14KWaylandServer17DDEShellInterfaceE@Base 5.24.3-1
 _ZTSN14KWaylandServer17DDETouchInterfaceE@Base 5.24.3-1
 _ZTSN14KWaylandServer17InputMethodGrabV1E@Base 5.24.3-1
 _ZTSN14KWaylandServer17KeyStateInterfaceE@Base 5.24.3-1
 _ZTSN14KWaylandServer17KeyboardInterfaceE@Base 5.24.3-1
 _ZTSN14KWaylandServer17OutputChangeSetV2E@Base 5.24.3-1
 _ZTSN14KWaylandServer17TabletV2InterfaceE@Base 5.24.3-1
 _ZTSN14KWaylandServer17XdgPopupInterfaceE@Base 5.24.3-1
 _ZTSN14KWaylandServer17XdgShellInterfaceE@Base 5.24.3-1
 _ZTSN14KWaylandServer18AbstractDataSourceE@Base 5.24.3-1
 _ZTSN14KWaylandServer18DataOfferInterfaceE@Base 5.24.3-1
 _ZTSN14KWaylandServer18FakeInputInterfaceE@Base 5.24.3-1
 _ZTSN14KWaylandServer19AbstractDropHandlerE@Base 5.24.3-1
 _ZTSN14KWaylandServer19CompositorInterfaceE@Base 5.24.3-1
 _ZTSN14KWaylandServer19DDEPointerInterfaceE@Base 5.24.3-1
 _ZTSN14KWaylandServer19DataDeviceInterfaceE@Base 5.24.3-1
 _ZTSN14KWaylandServer19DataSourceInterfaceE@Base 5.24.3-1
 _ZTSN14KWaylandServer19DrmLeaseV1InterfaceE@Base 5.24.3-1
 _ZTSN14KWaylandServer19SubSurfaceInterfaceE@Base 5.24.3-1
 _ZTSN14KWaylandServer19ViewporterInterfaceE@Base 5.24.3-1
 _ZTSN14KWaylandServer19XdgSurfaceInterfaceE@Base 5.24.3-1
 _ZTSN14KWaylandServer20BlurManagerInterfaceE@Base 5.24.3-1
 _ZTSN14KWaylandServer20DDEKeyboardInterfaceE@Base 5.24.3-1
 _ZTSN14KWaylandServer20DpmsManagerInterfaceE@Base 5.24.3-1
 _ZTSN14KWaylandServer20PlasmaShellInterfaceE@Base 5.24.3-1
 _ZTSN14KWaylandServer20TabletPadV2InterfaceE@Base 5.24.3-1
 _ZTSN14KWaylandServer20TextInputV2InterfaceE@Base 5.24.3-1
 _ZTSN14KWaylandServer20TextInputV3InterfaceE@Base 5.24.3-1
 _ZTSN14KWaylandServer20XdgOutputV1InterfaceE@Base 5.24.3-1
 _ZTSN14KWaylandServer20XdgToplevelInterfaceE@Base 5.24.3-1
 _ZTSN14KWaylandServer21InputPanelV1InterfaceE@Base 5.24.3-1
 _ZTSN14KWaylandServer21LayerShellV1InterfaceE@Base 5.24.3-1
 _ZTSN14KWaylandServer21LinuxDmaBufV1FeedbackE@Base 5.24.3-1
 _ZTSN14KWaylandServer21PlasmaWindowInterfaceE@Base 5.24.3-1
 _ZTSN14KWaylandServer21ScreencastV1InterfaceE@Base 5.24.3-1
 _ZTSN14KWaylandServer21SlideManagerInterfaceE@Base 5.24.3-1
 _ZTSN14KWaylandServer21TabletSeatV2InterfaceE@Base 5.24.3-1
 _ZTSN14KWaylandServer21TabletToolV2InterfaceE@Base 5.24.3-1
 _ZTSN14KWaylandServer21XdgForeignV2InterfaceE@Base 5.24.3-1
 _ZTSN14KWaylandServer22InputMethodV1InterfaceE@Base 5.24.3-1
 _ZTSN14KWaylandServer22ShadowManagerInterfaceE@Base 5.24.3-1
 _ZTSN14KWaylandServer22SubCompositorInterfaceE@Base 5.24.3-1
 _ZTSN14KWaylandServer23AppMenuManagerInterfaceE@Base 5.24.3-1
 _ZTSN14KWaylandServer23ClientBufferIntegrationE@Base 5.24.3-1
 _ZTSN14KWaylandServer23LayerSurfaceV1InterfaceE@Base 5.24.3-1
 _ZTSN14KWaylandServer23OutputDeviceV2InterfaceE@Base 5.24.3-1
 _ZTSN14KWaylandServer24ContrastManagerInterfaceE@Base 5.24.3-1
 _ZTSN14KWaylandServer24DDEShellSurfaceInterfaceE@Base 5.24.3-1
 _ZTSN14KWaylandServer24LockedPointerV1InterfaceE@Base 5.24.3-1
 _ZTSN14KWaylandServer24PrimaryOutputV1InterfaceE@Base 5.24.3-1
 _ZTSN14KWaylandServer24TabletManagerV2InterfaceE@Base 5.24.3-1
 _ZTSN14KWaylandServer24TabletPadRingV2InterfaceE@Base 5.24.3-1
 _ZTSN14KWaylandServer24XdgActivationV1InterfaceE@Base 5.24.3-1
 _ZTSN14KWaylandServer25ClientManagementInterfaceE@Base 5.24.3-1
 _ZTSN14KWaylandServer25DrmLeaseDeviceV1InterfaceE@Base 5.24.3-1
 _ZTSN14KWaylandServer25LinuxDmaBufV1ClientBufferE@Base 5.24.3-1
 _ZTSN14KWaylandServer25TabletPadGroupV2InterfaceE@Base 5.24.3-1
 _ZTSN14KWaylandServer25TabletPadStripV2InterfaceE@Base 5.24.3-1
 _ZTSN14KWaylandServer26ConfinedPointerV1InterfaceE@Base 5.24.3-1
 _ZTSN14KWaylandServer26DataDeviceManagerInterfaceE@Base 5.24.3-1
 _ZTSN14KWaylandServer26DrmClientBufferIntegrationE@Base 5.24.3-1
 _ZTSN14KWaylandServer26PointerGesturesV1InterfaceE@Base 5.24.3-1
 _ZTSN14KWaylandServer27DataControlOfferV1InterfaceE@Base 5.24.3-1
 _ZTSN14KWaylandServer27OutputDeviceModeV2InterfaceE@Base 5.24.3-1
 _ZTSN14KWaylandServer27OutputManagementV2InterfaceE@Base 5.24.3-1
 _ZTSN14KWaylandServer27PlasmaShellSurfaceInterfaceE@Base 5.24.3-1
 _ZTSN14KWaylandServer27ScreencastStreamV1InterfaceE@Base 5.24.3-1
 _ZTSN14KWaylandServer27TextInputManagerV2InterfaceE@Base 5.24.3-1
 _ZTSN14KWaylandServer27TextInputManagerV3InterfaceE@Base 5.24.3-1
 _ZTSN14KWaylandServer27XdgOutputManagerV1InterfaceE@Base 5.24.3-1
 _ZTSN14KWaylandServer28DataControlDeviceV1InterfaceE@Base 5.24.3-1
 _ZTSN14KWaylandServer28DataControlSourceV1InterfaceE@Base 5.24.3-1
 _ZTSN14KWaylandServer28DrmLeaseConnectorV1InterfaceE@Base 5.24.3-1
 _ZTSN14KWaylandServer28InputPanelSurfaceV1InterfaceE@Base 5.24.3-1
 _ZTSN14KWaylandServer29IdleInhibitManagerV1InterfaceE@Base 5.24.3-1
 _ZTSN14KWaylandServer29InputMethodContextV1InterfaceE@Base 5.24.3-1
 _ZTSN14KWaylandServer29PlasmaVirtualDesktopInterfaceE@Base 5.24.3-1
 _ZTSN14KWaylandServer29PointerConstraintsV1InterfaceE@Base 5.24.3-1
 _ZTSN14KWaylandServer29ServerSideDecorationInterfaceE@Base 5.24.3-1
 _ZTSN14KWaylandServer30OutputConfigurationV2InterfaceE@Base 5.24.3-1
 _ZTSN14KWaylandServer31PlasmaWindowManagementInterfaceE@Base 5.24.3-1
 _ZTSN14KWaylandServer31XdgDecorationManagerV1InterfaceE@Base 5.24.3-1
 _ZTSN14KWaylandServer32PrimarySelectionOfferV1InterfaceE@Base 5.24.3-1
 _ZTSN14KWaylandServer32XdgToplevelDecorationV1InterfaceE@Base 5.24.3-1
 _ZTSN14KWaylandServer33PrimarySelectionDeviceV1InterfaceE@Base 5.24.3-1
 _ZTSN14KWaylandServer33PrimarySelectionSourceV1InterfaceE@Base 5.24.3-1
 _ZTSN14KWaylandServer33RelativePointerManagerV1InterfaceE@Base 5.24.3-1
 _ZTSN14KWaylandServer35DataControlDeviceManagerV1InterfaceE@Base 5.24.3-1
 _ZTSN14KWaylandServer36LinuxDmaBufV1ClientBufferIntegrationE@Base 5.24.3-1
 _ZTSN14KWaylandServer36ServerSideDecorationManagerInterfaceE@Base 5.24.3-1
 _ZTSN14KWaylandServer36ServerSideDecorationPaletteInterfaceE@Base 5.24.3-1
 _ZTSN14KWaylandServer37KeyboardShortcutsInhibitorV1InterfaceE@Base 5.24.3-1
 _ZTSN14KWaylandServer39PlasmaVirtualDesktopManagementInterfaceE@Base 5.24.3-1
 _ZTSN14KWaylandServer39PlasmaWindowActivationFeedbackInterfaceE@Base 5.24.3-1
 _ZTSN14KWaylandServer40PrimarySelectionDeviceManagerV1InterfaceE@Base 5.24.3-1
 _ZTSN14KWaylandServer42KeyboardShortcutsInhibitManagerV1InterfaceE@Base 5.24.3-1
 _ZTSN14KWaylandServer43ServerSideDecorationPaletteManagerInterfaceE@Base 5.24.3-1
 _ZTSN14KWaylandServer6CursorE@Base 5.24.3-1
 _ZTSN14KWaylandServer7DisplayE@Base 5.24.3-1
 _ZTVN14KWaylandServer12ClientBufferE@Base 5.24.3-1
 _ZTVN14KWaylandServer13BlurInterfaceE@Base 5.24.3-1
 _ZTVN14KWaylandServer13IdleInterfaceE@Base 5.24.3-1
 _ZTVN14KWaylandServer13SeatInterfaceE@Base 5.24.3-1
 _ZTVN14KWaylandServer14SlideInterfaceE@Base 5.24.3-1
 _ZTVN14KWaylandServer14StrutInterfaceE@Base 5.24.3-1
 _ZTVN14KWaylandServer14TabletCursorV2E@Base 5.24.3-1
 _ZTVN14KWaylandServer14TouchInterfaceE@Base 5.24.3-1
 _ZTVN14KWaylandServer15DragAndDropIconE@Base 5.24.3-1
 _ZTVN14KWaylandServer15DrmClientBufferE@Base 5.24.3-1
 _ZTVN14KWaylandServer15FakeInputDeviceE@Base 5.24.3-1
 _ZTVN14KWaylandServer15FilteredDisplayE@Base 5.24.3-1
 _ZTVN14KWaylandServer15OutputInterfaceE@Base 5.24.3-1
 _ZTVN14KWaylandServer15ShadowInterfaceE@Base 5.24.3-1
 _ZTVN14KWaylandServer15ShmClientBufferE@Base 5.24.3-1
 _ZTVN14KWaylandServer16AppMenuInterfaceE@Base 5.24.3-1
 _ZTVN14KWaylandServer16ClientConnectionE@Base 5.24.3-1
 _ZTVN14KWaylandServer16DDESeatInterfaceE@Base 5.24.3-1
 _ZTVN14KWaylandServer16PointerInterfaceE@Base 5.24.3-1
 _ZTVN14KWaylandServer16SurfaceInterfaceE@Base 5.24.3-1
 _ZTVN14KWaylandServer17ContrastInterfaceE@Base 5.24.3-1
 _ZTVN14KWaylandServer17DDEShellInterfaceE@Base 5.24.3-1
 _ZTVN14KWaylandServer17DDETouchInterfaceE@Base 5.24.3-1
 _ZTVN14KWaylandServer17InputMethodGrabV1E@Base 5.24.3-1
 _ZTVN14KWaylandServer17KeyStateInterfaceE@Base 5.24.3-1
 _ZTVN14KWaylandServer17KeyboardInterfaceE@Base 5.24.3-1
 _ZTVN14KWaylandServer17OutputChangeSetV2E@Base 5.24.3-1
 _ZTVN14KWaylandServer17TabletV2InterfaceE@Base 5.24.3-1
 _ZTVN14KWaylandServer17XdgPopupInterfaceE@Base 5.24.3-1
 _ZTVN14KWaylandServer17XdgShellInterfaceE@Base 5.24.3-1
 _ZTVN14KWaylandServer18AbstractDataSourceE@Base 5.24.3-1
 _ZTVN14KWaylandServer18DataOfferInterfaceE@Base 5.24.3-1
 _ZTVN14KWaylandServer18FakeInputInterfaceE@Base 5.24.3-1
 _ZTVN14KWaylandServer19AbstractDropHandlerE@Base 5.24.3-1
 _ZTVN14KWaylandServer19CompositorInterfaceE@Base 5.24.3-1
 _ZTVN14KWaylandServer19DDEPointerInterfaceE@Base 5.24.3-1
 _ZTVN14KWaylandServer19DataDeviceInterfaceE@Base 5.24.3-1
 _ZTVN14KWaylandServer19DataSourceInterfaceE@Base 5.24.3-1
 _ZTVN14KWaylandServer19DrmLeaseV1InterfaceE@Base 5.24.3-1
 _ZTVN14KWaylandServer19SubSurfaceInterfaceE@Base 5.24.3-1
 _ZTVN14KWaylandServer19ViewporterInterfaceE@Base 5.24.3-1
 _ZTVN14KWaylandServer19XdgSurfaceInterfaceE@Base 5.24.3-1
 _ZTVN14KWaylandServer20BlurManagerInterfaceE@Base 5.24.3-1
 _ZTVN14KWaylandServer20DDEKeyboardInterfaceE@Base 5.24.3-1
 _ZTVN14KWaylandServer20DpmsManagerInterfaceE@Base 5.24.3-1
 _ZTVN14KWaylandServer20PlasmaShellInterfaceE@Base 5.24.3-1
 _ZTVN14KWaylandServer20TabletPadV2InterfaceE@Base 5.24.3-1
 _ZTVN14KWaylandServer20TextInputV2InterfaceE@Base 5.24.3-1
 _ZTVN14KWaylandServer20TextInputV3InterfaceE@Base 5.24.3-1
 _ZTVN14KWaylandServer20XdgOutputV1InterfaceE@Base 5.24.3-1
 _ZTVN14KWaylandServer20XdgToplevelInterfaceE@Base 5.24.3-1
 _ZTVN14KWaylandServer21InputPanelV1InterfaceE@Base 5.24.3-1
 _ZTVN14KWaylandServer21LayerShellV1InterfaceE@Base 5.24.3-1
 _ZTVN14KWaylandServer21LinuxDmaBufV1FeedbackE@Base 5.24.3-1
 _ZTVN14KWaylandServer21PlasmaWindowInterfaceE@Base 5.24.3-1
 _ZTVN14KWaylandServer21ScreencastV1InterfaceE@Base 5.24.3-1
 _ZTVN14KWaylandServer21SlideManagerInterfaceE@Base 5.24.3-1
 _ZTVN14KWaylandServer21TabletSeatV2InterfaceE@Base 5.24.3-1
 _ZTVN14KWaylandServer21TabletToolV2InterfaceE@Base 5.24.3-1
 _ZTVN14KWaylandServer21XdgForeignV2InterfaceE@Base 5.24.3-1
 _ZTVN14KWaylandServer22InputMethodV1InterfaceE@Base 5.24.3-1
 _ZTVN14KWaylandServer22ShadowManagerInterfaceE@Base 5.24.3-1
 _ZTVN14KWaylandServer22SubCompositorInterfaceE@Base 5.24.3-1
 _ZTVN14KWaylandServer23AppMenuManagerInterfaceE@Base 5.24.3-1
 _ZTVN14KWaylandServer23ClientBufferIntegrationE@Base 5.24.3-1
 _ZTVN14KWaylandServer23LayerSurfaceV1InterfaceE@Base 5.24.3-1
 _ZTVN14KWaylandServer23OutputDeviceV2InterfaceE@Base 5.24.3-1
 _ZTVN14KWaylandServer24ContrastManagerInterfaceE@Base 5.24.3-1
 _ZTVN14KWaylandServer24DDEShellSurfaceInterfaceE@Base 5.24.3-1
 _ZTVN14KWaylandServer24LockedPointerV1InterfaceE@Base 5.24.3-1
 _ZTVN14KWaylandServer24PrimaryOutputV1InterfaceE@Base 5.24.3-1
 _ZTVN14KWaylandServer24TabletManagerV2InterfaceE@Base 5.24.3-1
 _ZTVN14KWaylandServer24TabletPadRingV2InterfaceE@Base 5.24.3-1
 _ZTVN14KWaylandServer24XdgActivationV1InterfaceE@Base 5.24.3-1
 _ZTVN14KWaylandServer25ClientManagementInterfaceE@Base 5.24.3-1
 _ZTVN14KWaylandServer25DrmLeaseDeviceV1InterfaceE@Base 5.24.3-1
 _ZTVN14KWaylandServer25LinuxDmaBufV1ClientBufferE@Base 5.24.3-1
 _ZTVN14KWaylandServer25TabletPadGroupV2InterfaceE@Base 5.24.3-1
 _ZTVN14KWaylandServer25TabletPadStripV2InterfaceE@Base 5.24.3-1
 _ZTVN14KWaylandServer26ConfinedPointerV1InterfaceE@Base 5.24.3-1
 _ZTVN14KWaylandServer26DataDeviceManagerInterfaceE@Base 5.24.3-1
 _ZTVN14KWaylandServer26DrmClientBufferIntegrationE@Base 5.24.3-1
 _ZTVN14KWaylandServer26PointerGesturesV1InterfaceE@Base 5.24.3-1
 _ZTVN14KWaylandServer27DataControlOfferV1InterfaceE@Base 5.24.3-1
 _ZTVN14KWaylandServer27OutputDeviceModeV2InterfaceE@Base 5.24.3-1
 _ZTVN14KWaylandServer27OutputManagementV2InterfaceE@Base 5.24.3-1
 _ZTVN14KWaylandServer27PlasmaShellSurfaceInterfaceE@Base 5.24.3-1
 _ZTVN14KWaylandServer27ScreencastStreamV1InterfaceE@Base 5.24.3-1
 _ZTVN14KWaylandServer27TextInputManagerV2InterfaceE@Base 5.24.3-1
 _ZTVN14KWaylandServer27TextInputManagerV3InterfaceE@Base 5.24.3-1
 _ZTVN14KWaylandServer27XdgOutputManagerV1InterfaceE@Base 5.24.3-1
 _ZTVN14KWaylandServer28DataControlDeviceV1InterfaceE@Base 5.24.3-1
 _ZTVN14KWaylandServer28DataControlSourceV1InterfaceE@Base 5.24.3-1
 _ZTVN14KWaylandServer28DrmLeaseConnectorV1InterfaceE@Base 5.24.3-1
 _ZTVN14KWaylandServer28InputPanelSurfaceV1InterfaceE@Base 5.24.3-1
 _ZTVN14KWaylandServer29IdleInhibitManagerV1InterfaceE@Base 5.24.3-1
 _ZTVN14KWaylandServer29InputMethodContextV1InterfaceE@Base 5.24.3-1
 _ZTVN14KWaylandServer29PlasmaVirtualDesktopInterfaceE@Base 5.24.3-1
 _ZTVN14KWaylandServer29PointerConstraintsV1InterfaceE@Base 5.24.3-1
 _ZTVN14KWaylandServer29ServerSideDecorationInterfaceE@Base 5.24.3-1
 _ZTVN14KWaylandServer30OutputConfigurationV2InterfaceE@Base 5.24.3-1
 _ZTVN14KWaylandServer31PlasmaWindowManagementInterfaceE@Base 5.24.3-1
 _ZTVN14KWaylandServer31XdgDecorationManagerV1InterfaceE@Base 5.24.3-1
 _ZTVN14KWaylandServer32PrimarySelectionOfferV1InterfaceE@Base 5.24.3-1
 _ZTVN14KWaylandServer32XdgToplevelDecorationV1InterfaceE@Base 5.24.3-1
 _ZTVN14KWaylandServer33PrimarySelectionDeviceV1InterfaceE@Base 5.24.3-1
 _ZTVN14KWaylandServer33PrimarySelectionSourceV1InterfaceE@Base 5.24.3-1
 _ZTVN14KWaylandServer33RelativePointerManagerV1InterfaceE@Base 5.24.3-1
 _ZTVN14KWaylandServer35DataControlDeviceManagerV1InterfaceE@Base 5.24.3-1
 _ZTVN14KWaylandServer36LinuxDmaBufV1ClientBufferIntegrationE@Base 5.24.3-1
 _ZTVN14KWaylandServer36ServerSideDecorationManagerInterfaceE@Base 5.24.3-1
 _ZTVN14KWaylandServer36ServerSideDecorationPaletteInterfaceE@Base 5.24.3-1
 _ZTVN14KWaylandServer37KeyboardShortcutsInhibitorV1InterfaceE@Base 5.24.3-1
 _ZTVN14KWaylandServer39PlasmaVirtualDesktopManagementInterfaceE@Base 5.24.3-1
 _ZTVN14KWaylandServer39PlasmaWindowActivationFeedbackInterfaceE@Base 5.24.3-1
 _ZTVN14KWaylandServer40PrimarySelectionDeviceManagerV1InterfaceE@Base 5.24.3-1
 _ZTVN14KWaylandServer42KeyboardShortcutsInhibitManagerV1InterfaceE@Base 5.24.3-1
 _ZTVN14KWaylandServer43ServerSideDecorationPaletteManagerInterfaceE@Base 5.24.3-1
 _ZTVN14KWaylandServer6CursorE@Base 5.24.3-1
 _ZTVN14KWaylandServer7DisplayE@Base 5.24.3-1
 com_deepin_client_management_interface@Base 5.24.3-1
 com_deepin_kwin_strut_interface@Base 5.24.3-1
 dde_keyboard_interface@Base 5.24.3-1
 dde_pointer_interface@Base 5.24.3-1
 dde_seat_interface@Base 5.24.3-1
 dde_shell_interface@Base 5.24.3-1
 dde_shell_surface_interface@Base 5.24.3-1
 dde_touch_interface@Base 5.24.3-1
 kde_output_configuration_v2_interface@Base 5.24.3-1
 kde_output_device_mode_v2_interface@Base 5.24.3-1
 kde_output_device_v2_interface@Base 5.24.3-1
 kde_output_management_v2_interface@Base 5.24.3-1
 kde_primary_output_v1_interface@Base 5.24.3-1
 org_kde_kwin_appmenu_interface@Base 5.24.3-1
 org_kde_kwin_appmenu_manager_interface@Base 5.24.3-1
 org_kde_kwin_blur_interface@Base 5.24.3-1
 org_kde_kwin_blur_manager_interface@Base 5.24.3-1
 org_kde_kwin_contrast_interface@Base 5.24.3-1
 org_kde_kwin_contrast_manager_interface@Base 5.24.3-1
 org_kde_kwin_dpms_interface@Base 5.24.3-1
 org_kde_kwin_dpms_manager_interface@Base 5.24.3-1
 org_kde_kwin_fake_input_interface@Base 5.24.3-1
 org_kde_kwin_idle_interface@Base 5.24.3-1
 org_kde_kwin_idle_timeout_interface@Base 5.24.3-1
 org_kde_kwin_keystate_interface@Base 5.24.3-1
 org_kde_kwin_server_decoration_interface@Base 5.24.3-1
 org_kde_kwin_server_decoration_manager_interface@Base 5.24.3-1
 org_kde_kwin_server_decoration_palette_interface@Base 5.24.3-1
 org_kde_kwin_server_decoration_palette_manager_interface@Base 5.24.3-1
 org_kde_kwin_shadow_interface@Base 5.24.3-1
 org_kde_kwin_shadow_manager_interface@Base 5.24.3-1
 org_kde_kwin_slide_interface@Base 5.24.3-1
 org_kde_kwin_slide_manager_interface@Base 5.24.3-1
 org_kde_plasma_activation_feedback_interface@Base 5.24.3-1
 org_kde_plasma_activation_interface@Base 5.24.3-1
 org_kde_plasma_shell_interface@Base 5.24.3-1
 org_kde_plasma_surface_interface@Base 5.24.3-1
 org_kde_plasma_virtual_desktop_interface@Base 5.24.3-1
 org_kde_plasma_virtual_desktop_management_interface@Base 5.24.3-1
 org_kde_plasma_window_interface@Base 5.24.3-1
 org_kde_plasma_window_management_interface@Base 5.24.3-1
 qt_extended_surface_interface@Base 5.24.3-1
 qt_surface_extension_interface@Base 5.24.3-1
 wl_buffer_interface@Base 5.24.3-1
 wl_callback_interface@Base 5.24.3-1
 wl_compositor_interface@Base 5.24.3-1
 wl_data_device_interface@Base 5.24.3-1
 wl_data_device_manager_interface@Base 5.24.3-1
 wl_data_offer_interface@Base 5.24.3-1
 wl_data_source_interface@Base 5.24.3-1
 wl_display_interface@Base 5.24.3-1
 wl_keyboard_interface@Base 5.24.3-1
 wl_output_interface@Base 5.24.3-1
 wl_pointer_interface@Base 5.24.3-1
 wl_region_interface@Base 5.24.3-1
 wl_registry_interface@Base 5.24.3-1
 wl_seat_interface@Base 5.24.3-1
 wl_shell_interface@Base 5.24.3-1
 wl_shell_surface_interface@Base 5.24.3-1
 wl_shm_interface@Base 5.24.3-1
 wl_shm_pool_interface@Base 5.24.3-1
 wl_subcompositor_interface@Base 5.24.3-1
 wl_subsurface_interface@Base 5.24.3-1
 wl_surface_interface@Base 5.24.3-1
 wl_touch_interface@Base 5.24.3-1
 wp_drm_lease_connector_v1_interface@Base 5.24.3-1
 wp_drm_lease_device_v1_interface@Base 5.24.3-1
 wp_drm_lease_request_v1_interface@Base 5.24.3-1
 wp_drm_lease_v1_interface@Base 5.24.3-1
 wp_viewport_interface@Base 5.24.3-1
 wp_viewporter_interface@Base 5.24.3-1
 xdg_activation_token_v1_interface@Base 5.24.3-1
 xdg_activation_v1_interface@Base 5.24.3-1
 xdg_popup_interface@Base 5.24.3-1
 xdg_positioner_interface@Base 5.24.3-1
 xdg_surface_interface@Base 5.24.3-1
 xdg_toplevel_interface@Base 5.24.3-1
 xdg_wm_base_interface@Base 5.24.3-1
 zkde_screencast_stream_unstable_v1_interface@Base 5.24.3-1
 zkde_screencast_unstable_v1_interface@Base 5.24.3-1
 zwlr_data_control_device_v1_interface@Base 5.24.3-1
 zwlr_data_control_manager_v1_interface@Base 5.24.3-1
 zwlr_data_control_offer_v1_interface@Base 5.24.3-1
 zwlr_data_control_source_v1_interface@Base 5.24.3-1
 zwlr_layer_shell_v1_interface@Base 5.24.3-1
 zwlr_layer_surface_v1_interface@Base 5.24.3-1
 zwp_confined_pointer_v1_interface@Base 5.24.3-1
 zwp_idle_inhibit_manager_v1_interface@Base 5.24.3-1
 zwp_idle_inhibitor_v1_interface@Base 5.24.3-1
 zwp_input_method_context_v1_interface@Base 5.24.3-1
 zwp_input_method_v1_interface@Base 5.24.3-1
 zwp_input_panel_surface_v1_interface@Base 5.24.3-1
 zwp_input_panel_v1_interface@Base 5.24.3-1
 zwp_keyboard_shortcuts_inhibit_manager_v1_interface@Base 5.24.3-1
 zwp_keyboard_shortcuts_inhibitor_v1_interface@Base 5.24.3-1
 zwp_linux_buffer_params_v1_interface@Base 5.24.3-1
 zwp_linux_dmabuf_feedback_v1_interface@Base 5.24.3-1
 zwp_linux_dmabuf_v1_interface@Base 5.24.3-1
 zwp_locked_pointer_v1_interface@Base 5.24.3-1
 zwp_pointer_constraints_v1_interface@Base 5.24.3-1
 zwp_pointer_gesture_hold_v1_interface@Base 5.24.3-1
 zwp_pointer_gesture_pinch_v1_interface@Base 5.24.3-1
 zwp_pointer_gesture_swipe_v1_interface@Base 5.24.3-1
 zwp_pointer_gestures_v1_interface@Base 5.24.3-1
 zwp_primary_selection_device_manager_v1_interface@Base 5.24.3-1
 zwp_primary_selection_device_v1_interface@Base 5.24.3-1
 zwp_primary_selection_offer_v1_interface@Base 5.24.3-1
 zwp_primary_selection_source_v1_interface@Base 5.24.3-1
 zwp_relative_pointer_manager_v1_interface@Base 5.24.3-1
 zwp_relative_pointer_v1_interface@Base 5.24.3-1
 zwp_tablet_manager_v2_interface@Base 5.24.3-1
 zwp_tablet_pad_group_v2_interface@Base 5.24.3-1
 zwp_tablet_pad_ring_v2_interface@Base 5.24.3-1
 zwp_tablet_pad_strip_v2_interface@Base 5.24.3-1
 zwp_tablet_pad_v2_interface@Base 5.24.3-1
 zwp_tablet_seat_v2_interface@Base 5.24.3-1
 zwp_tablet_tool_v2_interface@Base 5.24.3-1
 zwp_tablet_v2_interface@Base 5.24.3-1
 zwp_text_input_manager_v1_interface@Base 5.24.3-1
 zwp_text_input_manager_v2_interface@Base 5.24.3-1
 zwp_text_input_manager_v3_interface@Base 5.24.3-1
 zwp_text_input_v1_interface@Base 5.24.3-1
 zwp_text_input_v2_interface@Base 5.24.3-1
 zwp_text_input_v3_interface@Base 5.24.3-1
 zxdg_decoration_manager_v1_interface@Base 5.24.3-1
 zxdg_exported_v2_interface@Base 5.24.3-1
 zxdg_exporter_v2_interface@Base 5.24.3-1
 zxdg_imported_v2_interface@Base 5.24.3-1
 zxdg_importer_v2_interface@Base 5.24.3-1
 zxdg_output_manager_v1_interface@Base 5.24.3-1
 zxdg_output_v1_interface@Base 5.24.3-1
 zxdg_toplevel_decoration_v1_interface@Base 5.24.3-1