# SymbolsHelper-Confirmed: 4:5.74.0 amd64
libDWaylandClient.so.5 libdwaylandclient5 #MINVER#
 _ZN8KWayland6Client10Compositor10eventQueueEv@Base 5.24.3-1
 _ZN8KWayland6Client10Compositor11qt_metacallEN11QMetaObject4CallEiPPv@Base 5.24.3-1
 _ZN8KWayland6Client10Compositor11qt_metacastEPKc@Base 5.24.3-1
 _ZN8KWayland6Client10Compositor12createRegionEP7QObject@Base 5.24.3-1
 _ZN8KWayland6Client10Compositor12createRegionERK7QRegion@Base 5.24.3-1
 _ZN8KWayland6Client10Compositor12createRegionERK7QRegionP7QObject@Base 5.24.3-1
 _ZN8KWayland6Client10Compositor13createSurfaceEP7QObject@Base 5.24.3-1
 _ZN8KWayland6Client10Compositor13setEventQueueEPNS0_10EventQueueE@Base 5.24.3-1
 _ZN8KWayland6Client10Compositor15fromApplicationEP7QObject@Base 5.24.3-1
 _ZN8KWayland6Client10Compositor16staticMetaObjectE@Base 5.24.3-1
 _ZN8KWayland6Client10Compositor5setupEP13wl_compositor@Base 5.24.3-1
 _ZN8KWayland6Client10Compositor7destroyEv@Base 5.24.3-1
 _ZN8KWayland6Client10Compositor7releaseEv@Base 5.24.3-1
 _ZN8KWayland6Client10Compositor7removedEv@Base 5.24.3-1
 _ZN8KWayland6Client10CompositorC1EP7QObject@Base 5.24.3-1
 _ZN8KWayland6Client10CompositorC2EP7QObject@Base 5.24.3-1
 _ZN8KWayland6Client10CompositorD0Ev@Base 5.24.3-1
 _ZN8KWayland6Client10CompositorD1Ev@Base 5.24.3-1
 _ZN8KWayland6Client10CompositorD2Ev@Base 5.24.3-1
 _ZN8KWayland6Client10CompositorcvP13wl_compositorEv@Base 5.24.3-1
 _ZN8KWayland6Client10DDEPointer11axisChangedEjNS1_4AxisEd@Base 5.24.3-1
 _ZN8KWayland6Client10DDEPointer11qt_metacallEN11QMetaObject4CallEiPPv@Base 5.24.3-1
 _ZN8KWayland6Client10DDEPointer11qt_metacastEPKc@Base 5.24.3-1
 _ZN8KWayland6Client10DDEPointer16staticMetaObjectE@Base 5.24.3-1
 _ZN8KWayland6Client10DDEPointer18buttonStateChangedERK7QPointFjNS1_11ButtonStateE@Base 5.24.3-1
 _ZN8KWayland6Client10DDEPointer19getGlobalPointerPosEv@Base 5.24.3-1
 _ZN8KWayland6Client10DDEPointer5setupEP11dde_pointer@Base 5.24.3-1
 _ZN8KWayland6Client10DDEPointer6motionERK7QPointF@Base 5.24.3-1
 _ZN8KWayland6Client10DDEPointer7destroyEv@Base 5.24.3-1
 _ZN8KWayland6Client10DDEPointer7releaseEv@Base 5.24.3-1
 _ZN8KWayland6Client10DDEPointer9getMotionEv@Base 5.24.3-1
 _ZN8KWayland6Client10DDEPointerC1EP7QObject@Base 5.24.3-1
 _ZN8KWayland6Client10DDEPointerC2EP7QObject@Base 5.24.3-1
 _ZN8KWayland6Client10DDEPointerD0Ev@Base 5.24.3-1
 _ZN8KWayland6Client10DDEPointerD1Ev@Base 5.24.3-1
 _ZN8KWayland6Client10DDEPointerD2Ev@Base 5.24.3-1
 _ZN8KWayland6Client10DDEPointercvP11dde_pointerEv@Base 5.24.3-1
 _ZN8KWayland6Client10DataDevice10dragMotionERK7QPointFj@Base 5.24.3-1
 _ZN8KWayland6Client10DataDevice11dataOfferedEPNS0_9DataOfferE@Base 5.24.3-1
 _ZN8KWayland6Client10DataDevice11dragEnteredEjRK7QPointF@Base 5.24.3-1
 _ZN8KWayland6Client10DataDevice11qt_metacallEN11QMetaObject4CallEiPPv@Base 5.24.3-1
 _ZN8KWayland6Client10DataDevice11qt_metacastEPKc@Base 5.24.3-1
 _ZN8KWayland6Client10DataDevice12setSelectionEjPNS0_10DataSourceE@Base 5.24.3-1
 _ZN8KWayland6Client10DataDevice14clearSelectionEj@Base 5.24.3-1
 _ZN8KWayland6Client10DataDevice16selectionClearedEv@Base 5.24.3-1
 _ZN8KWayland6Client10DataDevice16selectionOfferedEPNS0_9DataOfferE@Base 5.24.3-1
 _ZN8KWayland6Client10DataDevice16staticMetaObjectE@Base 5.24.3-1
 _ZN8KWayland6Client10DataDevice19startDragInternallyEjPNS0_7SurfaceES3_@Base 5.24.3-1
 _ZN8KWayland6Client10DataDevice5setupEP14wl_data_device@Base 5.24.3-1
 _ZN8KWayland6Client10DataDevice7destroyEv@Base 5.24.3-1
 _ZN8KWayland6Client10DataDevice7droppedEv@Base 5.24.3-1
 _ZN8KWayland6Client10DataDevice7releaseEv@Base 5.24.3-1
 _ZN8KWayland6Client10DataDevice8dragLeftEv@Base 5.24.3-1
 _ZN8KWayland6Client10DataDevice9startDragEjPNS0_10DataSourceEPNS0_7SurfaceES5_@Base 5.24.3-1
 _ZN8KWayland6Client10DataDeviceC1EP7QObject@Base 5.24.3-1
 _ZN8KWayland6Client10DataDeviceC2EP7QObject@Base 5.24.3-1
 _ZN8KWayland6Client10DataDeviceD0Ev@Base 5.24.3-1
 _ZN8KWayland6Client10DataDeviceD1Ev@Base 5.24.3-1
 _ZN8KWayland6Client10DataDeviceD2Ev@Base 5.24.3-1
 _ZN8KWayland6Client10DataDevicecvP14wl_data_deviceEv@Base 5.24.3-1
 _ZN8KWayland6Client10DataSource11qt_metacallEN11QMetaObject4CallEiPPv@Base 5.24.3-1
 _ZN8KWayland6Client10DataSource11qt_metacastEPKc@Base 5.24.3-1
 _ZN8KWayland6Client10DataSource13targetAcceptsERK7QString@Base 5.24.3-1
 _ZN8KWayland6Client10DataSource16staticMetaObjectE@Base 5.24.3-1
 _ZN8KWayland6Client10DataSource17sendDataRequestedERK7QStringi@Base 5.24.3-1
 _ZN8KWayland6Client10DataSource19dragAndDropFinishedEv@Base 5.24.3-1
 _ZN8KWayland6Client10DataSource20dragAndDropPerformedEv@Base 5.24.3-1
 _ZN8KWayland6Client10DataSource21setDragAndDropActionsE6QFlagsINS0_17DataDeviceManager9DnDActionEE@Base 5.24.3-1
 _ZN8KWayland6Client10DataSource32selectedDragAndDropActionChangedEv@Base 5.24.3-1
 _ZN8KWayland6Client10DataSource5offerERK7QString@Base 5.24.3-1
 _ZN8KWayland6Client10DataSource5offerERK9QMimeType@Base 5.24.3-1
 _ZN8KWayland6Client10DataSource5setupEP14wl_data_source@Base 5.24.3-1
 _ZN8KWayland6Client10DataSource7destroyEv@Base 5.24.3-1
 _ZN8KWayland6Client10DataSource7releaseEv@Base 5.24.3-1
 _ZN8KWayland6Client10DataSource9cancelledEv@Base 5.24.3-1
 _ZN8KWayland6Client10DataSourceC1EP7QObject@Base 5.24.3-1
 _ZN8KWayland6Client10DataSourceC2EP7QObject@Base 5.24.3-1
 _ZN8KWayland6Client10DataSourceD0Ev@Base 5.24.3-1
 _ZN8KWayland6Client10DataSourceD1Ev@Base 5.24.3-1
 _ZN8KWayland6Client10DataSourceD2Ev@Base 5.24.3-1
 _ZN8KWayland6Client10DataSourcecvP14wl_data_sourceEv@Base 5.24.3-1
 _ZN8KWayland6Client10EventQueue11qt_metacallEN11QMetaObject4CallEiPPv@Base 5.24.3-1
 _ZN8KWayland6Client10EventQueue11qt_metacastEPKc@Base 5.24.3-1
 _ZN8KWayland6Client10EventQueue16staticMetaObjectE@Base 5.24.3-1
 _ZN8KWayland6Client10EventQueue5setupEP10wl_display@Base 5.24.3-1
 _ZN8KWayland6Client10EventQueue5setupEPNS0_16ConnectionThreadE@Base 5.24.3-1
 _ZN8KWayland6Client10EventQueue7destroyEv@Base 5.24.3-1
 _ZN8KWayland6Client10EventQueue7isValidEv@Base 5.24.3-1
 _ZN8KWayland6Client10EventQueue7releaseEv@Base 5.24.3-1
 _ZN8KWayland6Client10EventQueue8addProxyEP8wl_proxy@Base 5.24.3-1
 _ZN8KWayland6Client10EventQueue8dispatchEv@Base 5.24.3-1
 _ZN8KWayland6Client10EventQueueC1EP7QObject@Base 5.24.3-1
 _ZN8KWayland6Client10EventQueueC2EP7QObject@Base 5.24.3-1
 _ZN8KWayland6Client10EventQueueD0Ev@Base 5.24.3-1
 _ZN8KWayland6Client10EventQueueD1Ev@Base 5.24.3-1
 _ZN8KWayland6Client10EventQueueD2Ev@Base 5.24.3-1
 _ZN8KWayland6Client10EventQueuecvP14wl_event_queueEv@Base 5.24.3-1
 _ZN8KWayland6Client10SubSurface10placeAboveE8QPointerINS0_7SurfaceEE@Base 5.24.3-1
 _ZN8KWayland6Client10SubSurface10placeAboveE8QPointerIS1_E@Base 5.24.3-1
 _ZN8KWayland6Client10SubSurface10placeBelowE8QPointerINS0_7SurfaceEE@Base 5.24.3-1
 _ZN8KWayland6Client10SubSurface10placeBelowE8QPointerIS1_E@Base 5.24.3-1
 _ZN8KWayland6Client10SubSurface11qt_metacallEN11QMetaObject4CallEiPPv@Base 5.24.3-1
 _ZN8KWayland6Client10SubSurface11qt_metacastEPKc@Base 5.24.3-1
 _ZN8KWayland6Client10SubSurface11setPositionERK6QPoint@Base 5.24.3-1
 _ZN8KWayland6Client10SubSurface16staticMetaObjectE@Base 5.24.3-1
 _ZN8KWayland6Client10SubSurface3getEP13wl_subsurface@Base 5.24.3-1
 _ZN8KWayland6Client10SubSurface5lowerEv@Base 5.24.3-1
 _ZN8KWayland6Client10SubSurface5raiseEv@Base 5.24.3-1
 _ZN8KWayland6Client10SubSurface5setupEP13wl_subsurface@Base 5.24.3-1
 _ZN8KWayland6Client10SubSurface7destroyEv@Base 5.24.3-1
 _ZN8KWayland6Client10SubSurface7releaseEv@Base 5.24.3-1
 _ZN8KWayland6Client10SubSurface7setModeENS1_4ModeE@Base 5.24.3-1
 _ZN8KWayland6Client10SubSurfaceC1E8QPointerINS0_7SurfaceEES4_P7QObject@Base 5.24.3-1
 _ZN8KWayland6Client10SubSurfaceC2E8QPointerINS0_7SurfaceEES4_P7QObject@Base 5.24.3-1
 _ZN8KWayland6Client10SubSurfaceD0Ev@Base 5.24.3-1
 _ZN8KWayland6Client10SubSurfaceD1Ev@Base 5.24.3-1
 _ZN8KWayland6Client10SubSurfaceD2Ev@Base 5.24.3-1
 _ZN8KWayland6Client10SubSurfacecvP13wl_subsurfaceEv@Base 5.24.3-1
 _ZN8KWayland6Client10TouchPointC1Ev@Base 5.24.3-1
 _ZN8KWayland6Client10TouchPointC2Ev@Base 5.24.3-1
 _ZN8KWayland6Client10TouchPointD0Ev@Base 5.24.3-1
 _ZN8KWayland6Client10TouchPointD1Ev@Base 5.24.3-1
 _ZN8KWayland6Client10TouchPointD2Ev@Base 5.24.3-1
 _ZN8KWayland6Client11BlurManager10createBlurEPNS0_7SurfaceEP7QObject@Base 5.24.3-1
 _ZN8KWayland6Client11BlurManager10eventQueueEv@Base 5.24.3-1
 _ZN8KWayland6Client11BlurManager10removeBlurEPNS0_7SurfaceE@Base 5.24.3-1
 _ZN8KWayland6Client11BlurManager11qt_metacallEN11QMetaObject4CallEiPPv@Base 5.24.3-1
 _ZN8KWayland6Client11BlurManager11qt_metacastEPKc@Base 5.24.3-1
 _ZN8KWayland6Client11BlurManager13setEventQueueEPNS0_10EventQueueE@Base 5.24.3-1
 _ZN8KWayland6Client11BlurManager16staticMetaObjectE@Base 5.24.3-1
 _ZN8KWayland6Client11BlurManager5setupEP25org_kde_kwin_blur_manager@Base 5.24.3-1
 _ZN8KWayland6Client11BlurManager7destroyEv@Base 5.24.3-1
 _ZN8KWayland6Client11BlurManager7releaseEv@Base 5.24.3-1
 _ZN8KWayland6Client11BlurManager7removedEv@Base 5.24.3-1
 _ZN8KWayland6Client11BlurManagerC1EP7QObject@Base 5.24.3-1
 _ZN8KWayland6Client11BlurManagerC2EP7QObject@Base 5.24.3-1
 _ZN8KWayland6Client11BlurManagerD0Ev@Base 5.24.3-1
 _ZN8KWayland6Client11BlurManagerD1Ev@Base 5.24.3-1
 _ZN8KWayland6Client11BlurManagerD2Ev@Base 5.24.3-1
 _ZN8KWayland6Client11BlurManagercvP25org_kde_kwin_blur_managerEv@Base 5.24.3-1
 _ZN8KWayland6Client11DDEKeyboard10keyChangedEjNS1_8KeyStateEj@Base 5.24.3-1
 _ZN8KWayland6Client11DDEKeyboard11qt_metacallEN11QMetaObject4CallEiPPv@Base 5.24.3-1
 _ZN8KWayland6Client11DDEKeyboard11qt_metacastEPKc@Base 5.24.3-1
 _ZN8KWayland6Client11DDEKeyboard13keymapChangedEij@Base 5.24.3-1
 _ZN8KWayland6Client11DDEKeyboard16keyRepeatChangedEv@Base 5.24.3-1
 _ZN8KWayland6Client11DDEKeyboard16modifiersChangedEjjjj@Base 5.24.3-1
 _ZN8KWayland6Client11DDEKeyboard16staticMetaObjectE@Base 5.24.3-1
 _ZN8KWayland6Client11DDEKeyboard5setupEP12dde_keyboard@Base 5.24.3-1
 _ZN8KWayland6Client11DDEKeyboard7destroyEv@Base 5.24.3-1
 _ZN8KWayland6Client11DDEKeyboard7releaseEv@Base 5.24.3-1
 _ZN8KWayland6Client11DDEKeyboardC1EP7QObject@Base 5.24.3-1
 _ZN8KWayland6Client11DDEKeyboardC2EP7QObject@Base 5.24.3-1
 _ZN8KWayland6Client11DDEKeyboardD0Ev@Base 5.24.3-1
 _ZN8KWayland6Client11DDEKeyboardD1Ev@Base 5.24.3-1
 _ZN8KWayland6Client11DDEKeyboardD2Ev@Base 5.24.3-1
 _ZN8KWayland6Client11DDEKeyboardcvP12dde_keyboardEv@Base 5.24.3-1
 _ZN8KWayland6Client11DpmsManager10eventQueueEv@Base 5.24.3-1
 _ZN8KWayland6Client11DpmsManager11qt_metacallEN11QMetaObject4CallEiPPv@Base 5.24.3-1
 _ZN8KWayland6Client11DpmsManager11qt_metacastEPKc@Base 5.24.3-1
 _ZN8KWayland6Client11DpmsManager13setEventQueueEPNS0_10EventQueueE@Base 5.24.3-1
 _ZN8KWayland6Client11DpmsManager16staticMetaObjectE@Base 5.24.3-1
 _ZN8KWayland6Client11DpmsManager5setupEP25org_kde_kwin_dpms_manager@Base 5.24.3-1
 _ZN8KWayland6Client11DpmsManager7destroyEv@Base 5.24.3-1
 _ZN8KWayland6Client11DpmsManager7getDpmsEPNS0_6OutputEP7QObject@Base 5.24.3-1
 _ZN8KWayland6Client11DpmsManager7releaseEv@Base 5.24.3-1
 _ZN8KWayland6Client11DpmsManager7removedEv@Base 5.24.3-1
 _ZN8KWayland6Client11DpmsManagerC1EP7QObject@Base 5.24.3-1
 _ZN8KWayland6Client11DpmsManagerC2EP7QObject@Base 5.24.3-1
 _ZN8KWayland6Client11DpmsManagerD0Ev@Base 5.24.3-1
 _ZN8KWayland6Client11DpmsManagerD1Ev@Base 5.24.3-1
 _ZN8KWayland6Client11DpmsManagerD2Ev@Base 5.24.3-1
 _ZN8KWayland6Client11DpmsManagercvP25org_kde_kwin_dpms_managerEv@Base 5.24.3-1
 _ZN8KWayland6Client11IdleTimeout11qt_metacallEN11QMetaObject4CallEiPPv@Base 5.24.3-1
 _ZN8KWayland6Client11IdleTimeout11qt_metacastEPKc@Base 5.24.3-1
 _ZN8KWayland6Client11IdleTimeout14resumeFromIdleEv@Base 5.24.3-1
 _ZN8KWayland6Client11IdleTimeout16staticMetaObjectE@Base 5.24.3-1
 _ZN8KWayland6Client11IdleTimeout20simulateUserActivityEv@Base 5.24.3-1
 _ZN8KWayland6Client11IdleTimeout4idleEv@Base 5.24.3-1
 _ZN8KWayland6Client11IdleTimeout5setupEP25org_kde_kwin_idle_timeout@Base 5.24.3-1
 _ZN8KWayland6Client11IdleTimeout7destroyEv@Base 5.24.3-1
 _ZN8KWayland6Client11IdleTimeout7releaseEv@Base 5.24.3-1
 _ZN8KWayland6Client11IdleTimeoutC1EP7QObject@Base 5.24.3-1
 _ZN8KWayland6Client11IdleTimeoutC2EP7QObject@Base 5.24.3-1
 _ZN8KWayland6Client11IdleTimeoutD0Ev@Base 5.24.3-1
 _ZN8KWayland6Client11IdleTimeoutD1Ev@Base 5.24.3-1
 _ZN8KWayland6Client11IdleTimeoutD2Ev@Base 5.24.3-1
 _ZN8KWayland6Client11IdleTimeoutcvP25org_kde_kwin_idle_timeoutEv@Base 5.24.3-1
 _ZN8KWayland6Client11PlasmaShell10eventQueueEv@Base 5.24.3-1
 _ZN8KWayland6Client11PlasmaShell11qt_metacallEN11QMetaObject4CallEiPPv@Base 5.24.3-1
 _ZN8KWayland6Client11PlasmaShell11qt_metacastEPKc@Base 5.24.3-1
 _ZN8KWayland6Client11PlasmaShell13createSurfaceEP10wl_surfaceP7QObject@Base 5.24.3-1
 _ZN8KWayland6Client11PlasmaShell13createSurfaceEPNS0_7SurfaceEP7QObject@Base 5.24.3-1
 _ZN8KWayland6Client11PlasmaShell13setEventQueueEPNS0_10EventQueueE@Base 5.24.3-1
 _ZN8KWayland6Client11PlasmaShell16staticMetaObjectE@Base 5.24.3-1
 _ZN8KWayland6Client11PlasmaShell26interfaceAboutToBeReleasedEv@Base 5.24.3-1
 _ZN8KWayland6Client11PlasmaShell27interfaceAboutToBeDestroyedEv@Base 5.24.3-1
 _ZN8KWayland6Client11PlasmaShell5setupEP20org_kde_plasma_shell@Base 5.24.3-1
 _ZN8KWayland6Client11PlasmaShell7destroyEv@Base 5.24.3-1
 _ZN8KWayland6Client11PlasmaShell7releaseEv@Base 5.24.3-1
 _ZN8KWayland6Client11PlasmaShell7removedEv@Base 5.24.3-1
 _ZN8KWayland6Client11PlasmaShellC1EP7QObject@Base 5.24.3-1
 _ZN8KWayland6Client11PlasmaShellC2EP7QObject@Base 5.24.3-1
 _ZN8KWayland6Client11PlasmaShellD0Ev@Base 5.24.3-1
 _ZN8KWayland6Client11PlasmaShellD1Ev@Base 5.24.3-1
 _ZN8KWayland6Client11PlasmaShellD2Ev@Base 5.24.3-1
 _ZN8KWayland6Client11PlasmaShellcvP20org_kde_plasma_shellEv@Base 5.24.3-1
 _ZN8KWayland6Client11XdgExported11qt_metacallEN11QMetaObject4CallEiPPv@Base 5.24.3-1
 _ZN8KWayland6Client11XdgExported11qt_metacastEPKc@Base 5.24.3-1
 _ZN8KWayland6Client11XdgExported16staticMetaObjectE@Base 5.24.3-1
 _ZN8KWayland6Client11XdgExported4doneEv@Base 5.24.3-1
 _ZN8KWayland6Client11XdgExported5setupEP16zxdg_exported_v2@Base 5.24.3-1
 _ZN8KWayland6Client11XdgExported7destroyEv@Base 5.24.3-1
 _ZN8KWayland6Client11XdgExported7releaseEv@Base 5.24.3-1
 _ZN8KWayland6Client11XdgExportedC1EPNS1_7PrivateEP7QObject@Base 5.24.3-1
 _ZN8KWayland6Client11XdgExportedC2EPNS1_7PrivateEP7QObject@Base 5.24.3-1
 _ZN8KWayland6Client11XdgExportedD0Ev@Base 5.24.3-1
 _ZN8KWayland6Client11XdgExportedD1Ev@Base 5.24.3-1
 _ZN8KWayland6Client11XdgExportedD2Ev@Base 5.24.3-1
 _ZN8KWayland6Client11XdgExportedcvP16zxdg_exported_v2Ev@Base 5.24.3-1
 _ZN8KWayland6Client11XdgExporter10eventQueueEv@Base 5.24.3-1
 _ZN8KWayland6Client11XdgExporter11qt_metacallEN11QMetaObject4CallEiPPv@Base 5.24.3-1
 _ZN8KWayland6Client11XdgExporter11qt_metacastEPKc@Base 5.24.3-1
 _ZN8KWayland6Client11XdgExporter13setEventQueueEPNS0_10EventQueueE@Base 5.24.3-1
 _ZN8KWayland6Client11XdgExporter14exportTopLevelEPNS0_7SurfaceEP7QObject@Base 5.24.3-1
 _ZN8KWayland6Client11XdgExporter16staticMetaObjectE@Base 5.24.3-1
 _ZN8KWayland6Client11XdgExporter5setupEP16zxdg_exporter_v2@Base 5.24.3-1
 _ZN8KWayland6Client11XdgExporter7destroyEv@Base 5.24.3-1
 _ZN8KWayland6Client11XdgExporter7releaseEv@Base 5.24.3-1
 _ZN8KWayland6Client11XdgExporter7removedEv@Base 5.24.3-1
 _ZN8KWayland6Client11XdgExporterC1EPNS1_7PrivateEP7QObject@Base 5.24.3-1
 _ZN8KWayland6Client11XdgExporterC2EPNS1_7PrivateEP7QObject@Base 5.24.3-1
 _ZN8KWayland6Client11XdgExporterD0Ev@Base 5.24.3-1
 _ZN8KWayland6Client11XdgExporterD1Ev@Base 5.24.3-1
 _ZN8KWayland6Client11XdgExporterD2Ev@Base 5.24.3-1
 _ZN8KWayland6Client11XdgExportercvP16zxdg_exporter_v2Ev@Base 5.24.3-1
 _ZN8KWayland6Client11XdgImported11qt_metacallEN11QMetaObject4CallEiPPv@Base 5.24.3-1
 _ZN8KWayland6Client11XdgImported11qt_metacastEPKc@Base 5.24.3-1
 _ZN8KWayland6Client11XdgImported11setParentOfEPNS0_7SurfaceE@Base 5.24.3-1
 _ZN8KWayland6Client11XdgImported16staticMetaObjectE@Base 5.24.3-1
 _ZN8KWayland6Client11XdgImported17importedDestroyedEv@Base 5.24.3-1
 _ZN8KWayland6Client11XdgImported5setupEP16zxdg_imported_v2@Base 5.24.3-1
 _ZN8KWayland6Client11XdgImported7destroyEv@Base 5.24.3-1
 _ZN8KWayland6Client11XdgImported7releaseEv@Base 5.24.3-1
 _ZN8KWayland6Client11XdgImportedC1EPNS1_7PrivateEP7QObject@Base 5.24.3-1
 _ZN8KWayland6Client11XdgImportedC2EPNS1_7PrivateEP7QObject@Base 5.24.3-1
 _ZN8KWayland6Client11XdgImportedD0Ev@Base 5.24.3-1
 _ZN8KWayland6Client11XdgImportedD1Ev@Base 5.24.3-1
 _ZN8KWayland6Client11XdgImportedD2Ev@Base 5.24.3-1
 _ZN8KWayland6Client11XdgImportedcvP16zxdg_imported_v2Ev@Base 5.24.3-1
 _ZN8KWayland6Client11XdgImporter10eventQueueEv@Base 5.24.3-1
 _ZN8KWayland6Client11XdgImporter11qt_metacallEN11QMetaObject4CallEiPPv@Base 5.24.3-1
 _ZN8KWayland6Client11XdgImporter11qt_metacastEPKc@Base 5.24.3-1
 _ZN8KWayland6Client11XdgImporter13setEventQueueEPNS0_10EventQueueE@Base 5.24.3-1
 _ZN8KWayland6Client11XdgImporter14importTopLevelERK7QStringP7QObject@Base 5.24.3-1
 _ZN8KWayland6Client11XdgImporter16staticMetaObjectE@Base 5.24.3-1
 _ZN8KWayland6Client11XdgImporter5setupEP16zxdg_importer_v2@Base 5.24.3-1
 _ZN8KWayland6Client11XdgImporter7destroyEv@Base 5.24.3-1
 _ZN8KWayland6Client11XdgImporter7releaseEv@Base 5.24.3-1
 _ZN8KWayland6Client11XdgImporter7removedEv@Base 5.24.3-1
 _ZN8KWayland6Client11XdgImporterC1EPNS1_7PrivateEP7QObject@Base 5.24.3-1
 _ZN8KWayland6Client11XdgImporterC2EPNS1_7PrivateEP7QObject@Base 5.24.3-1
 _ZN8KWayland6Client11XdgImporterD0Ev@Base 5.24.3-1
 _ZN8KWayland6Client11XdgImporterD1Ev@Base 5.24.3-1
 _ZN8KWayland6Client11XdgImporterD2Ev@Base 5.24.3-1
 _ZN8KWayland6Client11XdgImportercvP16zxdg_importer_v2Ev@Base 5.24.3-1
 _ZN8KWayland6Client12OutputDevice11modeChangedERKNS1_4ModeE@Base 5.24.3-1
 _ZN8KWayland6Client12OutputDevice11qt_metacallEN11QMetaObject4CallEiPPv@Base 5.24.3-1
 _ZN8KWayland6Client12OutputDevice11qt_metacastEPKc@Base 5.24.3-1
 _ZN8KWayland6Client12OutputDevice11uuidChangedERK10QByteArray@Base 5.24.3-1
 _ZN8KWayland6Client12OutputDevice13setEventQueueEPNS0_10EventQueueE@Base 5.24.3-1
 _ZN8KWayland6Client12OutputDevice14enabledChangedENS1_10EnablementE@Base 5.24.3-1
 _ZN8KWayland6Client12OutputDevice15overscanChangedEj@Base 5.24.3-1
 _ZN8KWayland6Client12OutputDevice16staticMetaObjectE@Base 5.24.3-1
 _ZN8KWayland6Client12OutputDevice16vrrPolicyChangedENS1_9VrrPolicyE@Base 5.24.3-1
 _ZN8KWayland6Client12OutputDevice18colorCurvesChangedEv@Base 5.24.3-1
 _ZN8KWayland6Client12OutputDevice19capabilitiesChangedERK6QFlagsINS1_10CapabilityEE@Base 5.24.3-1
 _ZN8KWayland6Client12OutputDevice4doneEv@Base 5.24.3-1
 _ZN8KWayland6Client12OutputDevice5setupEP25org_kde_kwin_outputdevice@Base 5.24.3-1
 _ZN8KWayland6Client12OutputDevice6outputEv@Base 5.24.3-1
 _ZN8KWayland6Client12OutputDevice7changedEv@Base 5.24.3-1
 _ZN8KWayland6Client12OutputDevice7destroyEv@Base 5.24.3-1
 _ZN8KWayland6Client12OutputDevice7removedEv@Base 5.24.3-1
 _ZN8KWayland6Client12OutputDevice9modeAddedERKNS1_4ModeE@Base 5.24.3-1
 _ZN8KWayland6Client12OutputDeviceC1EP7QObject@Base 5.24.3-1
 _ZN8KWayland6Client12OutputDeviceC2EP7QObject@Base 5.24.3-1
 _ZN8KWayland6Client12OutputDeviceD0Ev@Base 5.24.3-1
 _ZN8KWayland6Client12OutputDeviceD1Ev@Base 5.24.3-1
 _ZN8KWayland6Client12OutputDeviceD2Ev@Base 5.24.3-1
 _ZN8KWayland6Client12OutputDevicecvP25org_kde_kwin_outputdeviceEv@Base 5.24.3-1
 _ZN8KWayland6Client12PlasmaWindow11iconChangedEv@Base 5.24.3-1
 _ZN8KWayland6Client12PlasmaWindow11qt_metacallEN11QMetaObject4CallEiPPv@Base 5.24.3-1
 _ZN8KWayland6Client12PlasmaWindow11qt_metacastEPKc@Base 5.24.3-1
 _ZN8KWayland6Client12PlasmaWindow11requestMoveEv@Base 5.24.3-1
 _ZN8KWayland6Client12PlasmaWindow12appIdChangedEv@Base 5.24.3-1
 _ZN8KWayland6Client12PlasmaWindow12requestCloseEv@Base 5.24.3-1
 _ZN8KWayland6Client12PlasmaWindow12titleChangedEv@Base 5.24.3-1
 _ZN8KWayland6Client12PlasmaWindow13activeChangedEv@Base 5.24.3-1
 _ZN8KWayland6Client12PlasmaWindow13requestResizeEv@Base 5.24.3-1
 _ZN8KWayland6Client12PlasmaWindow13shadedChangedEv@Base 5.24.3-1
 _ZN8KWayland6Client12PlasmaWindow14movableChangedEv@Base 5.24.3-1
 _ZN8KWayland6Client12PlasmaWindow15geometryChangedEv@Base 5.24.3-1
 _ZN8KWayland6Client12PlasmaWindow15requestActivateEv@Base 5.24.3-1
 _ZN8KWayland6Client12PlasmaWindow16closeableChangedEv@Base 5.24.3-1
 _ZN8KWayland6Client12PlasmaWindow16keepAboveChangedEv@Base 5.24.3-1
 _ZN8KWayland6Client12PlasmaWindow16keepBelowChangedEv@Base 5.24.3-1
 _ZN8KWayland6Client12PlasmaWindow16maximizedChangedEv@Base 5.24.3-1
 _ZN8KWayland6Client12PlasmaWindow16minimizedChangedEv@Base 5.24.3-1
 _ZN8KWayland6Client12PlasmaWindow16resizableChangedEv@Base 5.24.3-1
 _ZN8KWayland6Client12PlasmaWindow16shadeableChangedEv@Base 5.24.3-1
 _ZN8KWayland6Client12PlasmaWindow16staticMetaObjectE@Base 5.24.3-1
 _ZN8KWayland6Client12PlasmaWindow17fullscreenChangedEv@Base 5.24.3-1
 _ZN8KWayland6Client12PlasmaWindow18plasmaActivityLeftERK7QString@Base 5.24.3-1
 _ZN8KWayland6Client12PlasmaWindow18skipTaskbarChangedEv@Base 5.24.3-1
 _ZN8KWayland6Client12PlasmaWindow19maximizeableChangedEv@Base 5.24.3-1
 _ZN8KWayland6Client12PlasmaWindow19minimizeableChangedEv@Base 5.24.3-1
 _ZN8KWayland6Client12PlasmaWindow19parentWindowChangedEv@Base 5.24.3-1
 _ZN8KWayland6Client12PlasmaWindow19requestToggleShadedEv@Base 5.24.3-1
 _ZN8KWayland6Client12PlasmaWindow19skipSwitcherChangedEv@Base 5.24.3-1
 _ZN8KWayland6Client12PlasmaWindow20onAllDesktopsChangedEv@Base 5.24.3-1
 _ZN8KWayland6Client12PlasmaWindow20requestEnterActivityERK7QString@Base 5.24.3-1
 _ZN8KWayland6Client12PlasmaWindow20requestLeaveActivityERK7QString@Base 5.24.3-1
 _ZN8KWayland6Client12PlasmaWindow20setMinimizedGeometryEPNS0_7SurfaceERK5QRect@Base 5.24.3-1
 _ZN8KWayland6Client12PlasmaWindow21fullscreenableChangedEv@Base 5.24.3-1
 _ZN8KWayland6Client12PlasmaWindow21plasmaActivityEnteredERK7QString@Base 5.24.3-1
 _ZN8KWayland6Client12PlasmaWindow21requestVirtualDesktopEj@Base 5.24.3-1
 _ZN8KWayland6Client12PlasmaWindow21virtualDesktopChangedEv@Base 5.24.3-1
 _ZN8KWayland6Client12PlasmaWindow22applicationMenuChangedEv@Base 5.24.3-1
 _ZN8KWayland6Client12PlasmaWindow22requestToggleKeepAboveEv@Base 5.24.3-1
 _ZN8KWayland6Client12PlasmaWindow22requestToggleKeepBelowEv@Base 5.24.3-1
 _ZN8KWayland6Client12PlasmaWindow22requestToggleMaximizedEv@Base 5.24.3-1
 _ZN8KWayland6Client12PlasmaWindow22requestToggleMinimizedEv@Base 5.24.3-1
 _ZN8KWayland6Client12PlasmaWindow22unsetMinimizedGeometryEPNS0_7SurfaceE@Base 5.24.3-1
 _ZN8KWayland6Client12PlasmaWindow23demandsAttentionChangedEv@Base 5.24.3-1
 _ZN8KWayland6Client12PlasmaWindow24plasmaVirtualDesktopLeftERK7QString@Base 5.24.3-1
 _ZN8KWayland6Client12PlasmaWindow26requestEnterVirtualDesktopERK7QString@Base 5.24.3-1
 _ZN8KWayland6Client12PlasmaWindow26requestLeaveVirtualDesktopERK7QString@Base 5.24.3-1
 _ZN8KWayland6Client12PlasmaWindow27plasmaVirtualDesktopEnteredERK7QString@Base 5.24.3-1
 _ZN8KWayland6Client12PlasmaWindow29requestEnterNewVirtualDesktopEv@Base 5.24.3-1
 _ZN8KWayland6Client12PlasmaWindow31virtualDesktopChangeableChangedEv@Base 5.24.3-1
 _ZN8KWayland6Client12PlasmaWindow7destroyEv@Base 5.24.3-1
 _ZN8KWayland6Client12PlasmaWindow7releaseEv@Base 5.24.3-1
 _ZN8KWayland6Client12PlasmaWindow8unmappedEv@Base 5.24.3-1
 _ZN8KWayland6Client12PlasmaWindowC1EPNS0_22PlasmaWindowManagementEP21org_kde_plasma_windowjPKc@Base 5.24.3-1
 _ZN8KWayland6Client12PlasmaWindowC2EPNS0_22PlasmaWindowManagementEP21org_kde_plasma_windowjPKc@Base 5.24.3-1
 _ZN8KWayland6Client12PlasmaWindowD0Ev@Base 5.24.3-1
 _ZN8KWayland6Client12PlasmaWindowD1Ev@Base 5.24.3-1
 _ZN8KWayland6Client12PlasmaWindowD2Ev@Base 5.24.3-1
 _ZN8KWayland6Client12PlasmaWindowcvP21org_kde_plasma_windowEv@Base 5.24.3-1
 _ZN8KWayland6Client12RemoteBuffer11qt_metacallEN11QMetaObject4CallEiPPv@Base 5.24.3-1
 _ZN8KWayland6Client12RemoteBuffer11qt_metacastEPKc@Base 5.24.3-1
 _ZN8KWayland6Client12RemoteBuffer16staticMetaObjectE@Base 5.24.3-1
 _ZN8KWayland6Client12RemoteBuffer18parametersObtainedEv@Base 5.24.3-1
 _ZN8KWayland6Client12RemoteBuffer5setupEP26org_kde_kwin_remote_buffer@Base 5.24.3-1
 _ZN8KWayland6Client12RemoteBuffer7Private10s_listenerE@Base 5.24.3-1
 _ZN8KWayland6Client12RemoteBuffer7Private14paramsCallbackEPvP26org_kde_kwin_remote_bufferijjjj@Base 5.24.3-1
 _ZN8KWayland6Client12RemoteBuffer7Private5setupEP26org_kde_kwin_remote_buffer@Base 5.24.3-1
 _ZN8KWayland6Client12RemoteBuffer7PrivateC1EPS1_@Base 5.24.3-1
 _ZN8KWayland6Client12RemoteBuffer7PrivateC2EPS1_@Base 5.24.3-1
 _ZN8KWayland6Client12RemoteBuffer7destroyEv@Base 5.24.3-1
 _ZN8KWayland6Client12RemoteBuffer7releaseEv@Base 5.24.3-1
 _ZN8KWayland6Client12RemoteBufferC1EP7QObject@Base 5.24.3-1
 _ZN8KWayland6Client12RemoteBufferC2EP7QObject@Base 5.24.3-1
 _ZN8KWayland6Client12RemoteBufferD0Ev@Base 5.24.3-1
 _ZN8KWayland6Client12RemoteBufferD1Ev@Base 5.24.3-1
 _ZN8KWayland6Client12RemoteBufferD2Ev@Base 5.24.3-1
 _ZN8KWayland6Client12RemoteBuffercvP26org_kde_kwin_remote_bufferEv@Base 5.24.3-1
 _ZN8KWayland6Client12ShellSurface10fromWindowEP7QWindow@Base 5.24.3-1
 _ZN8KWayland6Client12ShellSurface11fromQtWinIdEy@Base 5.24.3-1
 _ZN8KWayland6Client12ShellSurface11qt_metacallEN11QMetaObject4CallEiPPv@Base 5.24.3-1
 _ZN8KWayland6Client12ShellSurface11qt_metacastEPKc@Base 5.24.3-1
 _ZN8KWayland6Client12ShellSurface11requestMoveEPNS0_4SeatEj@Base 5.24.3-1
 _ZN8KWayland6Client12ShellSurface11setToplevelEv@Base 5.24.3-1
 _ZN8KWayland6Client12ShellSurface11sizeChangedERK5QSize@Base 5.24.3-1
 _ZN8KWayland6Client12ShellSurface12setMaximizedEPNS0_6OutputE@Base 5.24.3-1
 _ZN8KWayland6Client12ShellSurface12setTransientEPNS0_7SurfaceERK6QPoint6QFlagsINS1_13TransientFlagEE@Base 5.24.3-1
 _ZN8KWayland6Client12ShellSurface13requestResizeEPNS0_4SeatEj6QFlagsIN2Qt4EdgeEE@Base 5.24.3-1
 _ZN8KWayland6Client12ShellSurface13setFullscreenEPNS0_6OutputE@Base 5.24.3-1
 _ZN8KWayland6Client12ShellSurface14setWindowClassERK10QByteArray@Base 5.24.3-1
 _ZN8KWayland6Client12ShellSurface16staticMetaObjectE@Base 5.24.3-1
 _ZN8KWayland6Client12ShellSurface17setTransientPopupEPNS0_7SurfaceEPNS0_4SeatEjRK6QPoint6QFlagsINS1_13TransientFlagEE@Base 5.24.3-1
 _ZN8KWayland6Client12ShellSurface3getEP16wl_shell_surface@Base 5.24.3-1
 _ZN8KWayland6Client12ShellSurface5setupEP16wl_shell_surface@Base 5.24.3-1
 _ZN8KWayland6Client12ShellSurface6pingedEv@Base 5.24.3-1
 _ZN8KWayland6Client12ShellSurface7destroyEv@Base 5.24.3-1
 _ZN8KWayland6Client12ShellSurface7releaseEv@Base 5.24.3-1
 _ZN8KWayland6Client12ShellSurface7setSizeERK5QSize@Base 5.24.3-1
 _ZN8KWayland6Client12ShellSurface8setTitleERK7QString@Base 5.24.3-1
 _ZN8KWayland6Client12ShellSurface9popupDoneEv@Base 5.24.3-1
 _ZN8KWayland6Client12ShellSurfaceC1EP7QObject@Base 5.24.3-1
 _ZN8KWayland6Client12ShellSurfaceC2EP7QObject@Base 5.24.3-1
 _ZN8KWayland6Client12ShellSurfaceD0Ev@Base 5.24.3-1
 _ZN8KWayland6Client12ShellSurfaceD1Ev@Base 5.24.3-1
 _ZN8KWayland6Client12ShellSurfaceD2Ev@Base 5.24.3-1
 _ZN8KWayland6Client12ShellSurfacecvP16wl_shell_surfaceEv@Base 5.24.3-1
 _ZN8KWayland6Client12SlideManager10eventQueueEv@Base 5.24.3-1
 _ZN8KWayland6Client12SlideManager11createSlideEPNS0_7SurfaceEP7QObject@Base 5.24.3-1
 _ZN8KWayland6Client12SlideManager11qt_metacallEN11QMetaObject4CallEiPPv@Base 5.24.3-1
 _ZN8KWayland6Client12SlideManager11qt_metacastEPKc@Base 5.24.3-1
 _ZN8KWayland6Client12SlideManager11removeSlideEPNS0_7SurfaceE@Base 5.24.3-1
 _ZN8KWayland6Client12SlideManager13setEventQueueEPNS0_10EventQueueE@Base 5.24.3-1
 _ZN8KWayland6Client12SlideManager16staticMetaObjectE@Base 5.24.3-1
 _ZN8KWayland6Client12SlideManager5setupEP26org_kde_kwin_slide_manager@Base 5.24.3-1
 _ZN8KWayland6Client12SlideManager7destroyEv@Base 5.24.3-1
 _ZN8KWayland6Client12SlideManager7releaseEv@Base 5.24.3-1
 _ZN8KWayland6Client12SlideManager7removedEv@Base 5.24.3-1
 _ZN8KWayland6Client12SlideManagerC1EP7QObject@Base 5.24.3-1
 _ZN8KWayland6Client12SlideManagerC2EP7QObject@Base 5.24.3-1
 _ZN8KWayland6Client12SlideManagerD0Ev@Base 5.24.3-1
 _ZN8KWayland6Client12SlideManagerD1Ev@Base 5.24.3-1
 _ZN8KWayland6Client12SlideManagerD2Ev@Base 5.24.3-1
 _ZN8KWayland6Client12SlideManagercvP26org_kde_kwin_slide_managerEv@Base 5.24.3-1
 _ZN8KWayland6Client13IdleInhibitor11qt_metacallEN11QMetaObject4CallEiPPv@Base 5.24.3-1
 _ZN8KWayland6Client13IdleInhibitor11qt_metacastEPKc@Base 5.24.3-1
 _ZN8KWayland6Client13IdleInhibitor16staticMetaObjectE@Base 5.24.3-1
 _ZN8KWayland6Client13IdleInhibitor5setupEP21zwp_idle_inhibitor_v1@Base 5.24.3-1
 _ZN8KWayland6Client13IdleInhibitor7destroyEv@Base 5.24.3-1
 _ZN8KWayland6Client13IdleInhibitor7releaseEv@Base 5.24.3-1
 _ZN8KWayland6Client13IdleInhibitorC1EP7QObject@Base 5.24.3-1
 _ZN8KWayland6Client13IdleInhibitorC2EP7QObject@Base 5.24.3-1
 _ZN8KWayland6Client13IdleInhibitorD0Ev@Base 5.24.3-1
 _ZN8KWayland6Client13IdleInhibitorD1Ev@Base 5.24.3-1
 _ZN8KWayland6Client13IdleInhibitorD2Ev@Base 5.24.3-1
 _ZN8KWayland6Client13IdleInhibitorcvP21zwp_idle_inhibitor_v1Ev@Base 5.24.3-1
 _ZN8KWayland6Client13LockedPointer11qt_metacallEN11QMetaObject4CallEiPPv@Base 5.24.3-1
 _ZN8KWayland6Client13LockedPointer11qt_metacastEPKc@Base 5.24.3-1
 _ZN8KWayland6Client13LockedPointer16staticMetaObjectE@Base 5.24.3-1
 _ZN8KWayland6Client13LockedPointer21setCursorPositionHintERK7QPointF@Base 5.24.3-1
 _ZN8KWayland6Client13LockedPointer5setupEP21zwp_locked_pointer_v1@Base 5.24.3-1
 _ZN8KWayland6Client13LockedPointer6lockedEv@Base 5.24.3-1
 _ZN8KWayland6Client13LockedPointer7destroyEv@Base 5.24.3-1
 _ZN8KWayland6Client13LockedPointer7releaseEv@Base 5.24.3-1
 _ZN8KWayland6Client13LockedPointer8unlockedEv@Base 5.24.3-1
 _ZN8KWayland6Client13LockedPointer9setRegionEPNS0_6RegionE@Base 5.24.3-1
 _ZN8KWayland6Client13LockedPointerC1EP7QObject@Base 5.24.3-1
 _ZN8KWayland6Client13LockedPointerC2EP7QObject@Base 5.24.3-1
 _ZN8KWayland6Client13LockedPointerD0Ev@Base 5.24.3-1
 _ZN8KWayland6Client13LockedPointerD1Ev@Base 5.24.3-1
 _ZN8KWayland6Client13LockedPointerD2Ev@Base 5.24.3-1
 _ZN8KWayland6Client13LockedPointercvP21zwp_locked_pointer_v1Ev@Base 5.24.3-1
 _ZN8KWayland6Client13ShadowManager10eventQueueEv@Base 5.24.3-1
 _ZN8KWayland6Client13ShadowManager11qt_metacallEN11QMetaObject4CallEiPPv@Base 5.24.3-1
 _ZN8KWayland6Client13ShadowManager11qt_metacastEPKc@Base 5.24.3-1
 _ZN8KWayland6Client13ShadowManager12createShadowEPNS0_7SurfaceEP7QObject@Base 5.24.3-1
 _ZN8KWayland6Client13ShadowManager12removeShadowEPNS0_7SurfaceE@Base 5.24.3-1
 _ZN8KWayland6Client13ShadowManager13setEventQueueEPNS0_10EventQueueE@Base 5.24.3-1
 _ZN8KWayland6Client13ShadowManager16staticMetaObjectE@Base 5.24.3-1
 _ZN8KWayland6Client13ShadowManager5setupEP27org_kde_kwin_shadow_manager@Base 5.24.3-1
 _ZN8KWayland6Client13ShadowManager7destroyEv@Base 5.24.3-1
 _ZN8KWayland6Client13ShadowManager7releaseEv@Base 5.24.3-1
 _ZN8KWayland6Client13ShadowManager7removedEv@Base 5.24.3-1
 _ZN8KWayland6Client13ShadowManagerC1EP7QObject@Base 5.24.3-1
 _ZN8KWayland6Client13ShadowManagerC2EP7QObject@Base 5.24.3-1
 _ZN8KWayland6Client13ShadowManagerD0Ev@Base 5.24.3-1
 _ZN8KWayland6Client13ShadowManagerD1Ev@Base 5.24.3-1
 _ZN8KWayland6Client13ShadowManagerD2Ev@Base 5.24.3-1
 _ZN8KWayland6Client13ShadowManagercvP27org_kde_kwin_shadow_managerEv@Base 5.24.3-1
 _ZN8KWayland6Client13SubCompositor10eventQueueEv@Base 5.24.3-1
 _ZN8KWayland6Client13SubCompositor11qt_metacallEN11QMetaObject4CallEiPPv@Base 5.24.3-1
 _ZN8KWayland6Client13SubCompositor11qt_metacastEPKc@Base 5.24.3-1
 _ZN8KWayland6Client13SubCompositor13setEventQueueEPNS0_10EventQueueE@Base 5.24.3-1
 _ZN8KWayland6Client13SubCompositor16createSubSurfaceE8QPointerINS0_7SurfaceEES4_P7QObject@Base 5.24.3-1
 _ZN8KWayland6Client13SubCompositor16staticMetaObjectE@Base 5.24.3-1
 _ZN8KWayland6Client13SubCompositor5setupEP16wl_subcompositor@Base 5.24.3-1
 _ZN8KWayland6Client13SubCompositor7destroyEv@Base 5.24.3-1
 _ZN8KWayland6Client13SubCompositor7releaseEv@Base 5.24.3-1
 _ZN8KWayland6Client13SubCompositor7removedEv@Base 5.24.3-1
 _ZN8KWayland6Client13SubCompositorC1EP7QObject@Base 5.24.3-1
 _ZN8KWayland6Client13SubCompositorC2EP7QObject@Base 5.24.3-1
 _ZN8KWayland6Client13SubCompositorD0Ev@Base 5.24.3-1
 _ZN8KWayland6Client13SubCompositorD1Ev@Base 5.24.3-1
 _ZN8KWayland6Client13SubCompositorD2Ev@Base 5.24.3-1
 _ZN8KWayland6Client13SubCompositorcvP16wl_subcompositorEv@Base 5.24.3-1
 _ZN8KWayland6Client13XdgDecoration11modeChangedENS1_4ModeE@Base 5.24.3-1
 _ZN8KWayland6Client13XdgDecoration11qt_metacallEN11QMetaObject4CallEiPPv@Base 5.24.3-1
 _ZN8KWayland6Client13XdgDecoration11qt_metacastEPKc@Base 5.24.3-1
 _ZN8KWayland6Client13XdgDecoration16staticMetaObjectE@Base 5.24.3-1
 _ZN8KWayland6Client13XdgDecoration5setupEP27zxdg_toplevel_decoration_v1@Base 5.24.3-1
 _ZN8KWayland6Client13XdgDecoration7destroyEv@Base 5.24.3-1
 _ZN8KWayland6Client13XdgDecoration7releaseEv@Base 5.24.3-1
 _ZN8KWayland6Client13XdgDecoration7setModeENS1_4ModeE@Base 5.24.3-1
 _ZN8KWayland6Client13XdgDecoration9unsetModeEv@Base 5.24.3-1
 _ZN8KWayland6Client13XdgDecorationC1EP7QObject@Base 5.24.3-1
 _ZN8KWayland6Client13XdgDecorationC2EP7QObject@Base 5.24.3-1
 _ZN8KWayland6Client13XdgDecorationD0Ev@Base 5.24.3-1
 _ZN8KWayland6Client13XdgDecorationD1Ev@Base 5.24.3-1
 _ZN8KWayland6Client13XdgDecorationD2Ev@Base 5.24.3-1
 _ZN8KWayland6Client13XdgDecorationcvP27zxdg_toplevel_decoration_v1Ev@Base 5.24.3-1
 _ZN8KWayland6Client13XdgPositioner10setGravityE6QFlagsIN2Qt4EdgeEE@Base 5.24.3-1
 _ZN8KWayland6Client13XdgPositioner13setAnchorEdgeE6QFlagsIN2Qt4EdgeEE@Base 5.24.3-1
 _ZN8KWayland6Client13XdgPositioner13setAnchorRectERK5QRect@Base 5.24.3-1
 _ZN8KWayland6Client13XdgPositioner14setConstraintsE6QFlagsINS1_10ConstraintEE@Base 5.24.3-1
 _ZN8KWayland6Client13XdgPositioner14setInitialSizeERK5QSize@Base 5.24.3-1
 _ZN8KWayland6Client13XdgPositioner15setAnchorOffsetERK6QPoint@Base 5.24.3-1
 _ZN8KWayland6Client13XdgPositionerC1ERK5QSizeRK5QRect@Base 5.24.3-1
 _ZN8KWayland6Client13XdgPositionerC1ERKS1_@Base 5.24.3-1
 _ZN8KWayland6Client13XdgPositionerC2ERK5QSizeRK5QRect@Base 5.24.3-1
 _ZN8KWayland6Client13XdgPositionerC2ERKS1_@Base 5.24.3-1
 _ZN8KWayland6Client13XdgPositionerD1Ev@Base 5.24.3-1
 _ZN8KWayland6Client13XdgPositionerD2Ev@Base 5.24.3-1
 _ZN8KWayland6Client13XdgShellPopup10eventQueueEv@Base 5.24.3-1
 _ZN8KWayland6Client13XdgShellPopup11qt_metacallEN11QMetaObject4CallEiPPv@Base 5.24.3-1
 _ZN8KWayland6Client13XdgShellPopup11qt_metacastEPKc@Base 5.24.3-1
 _ZN8KWayland6Client13XdgShellPopup11requestGrabEPNS0_4SeatEj@Base 5.24.3-1
 _ZN8KWayland6Client13XdgShellPopup12ackConfigureEj@Base 5.24.3-1
 _ZN8KWayland6Client13XdgShellPopup13setEventQueueEPNS0_10EventQueueE@Base 5.24.3-1
 _ZN8KWayland6Client13XdgShellPopup16staticMetaObjectE@Base 5.24.3-1
 _ZN8KWayland6Client13XdgShellPopup17setWindowGeometryERK5QRect@Base 5.24.3-1
 _ZN8KWayland6Client13XdgShellPopup18configureRequestedERK5QRectj@Base 5.24.3-1
 _ZN8KWayland6Client13XdgShellPopup5setupEP11xdg_surfaceP9xdg_popup@Base 5.24.3-1
 _ZN8KWayland6Client13XdgShellPopup5setupEP15zxdg_surface_v6P13zxdg_popup_v6@Base 5.24.3-1
 _ZN8KWayland6Client13XdgShellPopup5setupEP9xdg_popup@Base 5.24.3-1
 _ZN8KWayland6Client13XdgShellPopup7destroyEv@Base 5.24.3-1
 _ZN8KWayland6Client13XdgShellPopup7releaseEv@Base 5.24.3-1
 _ZN8KWayland6Client13XdgShellPopup9popupDoneEv@Base 5.24.3-1
 _ZN8KWayland6Client13XdgShellPopupC1EPNS1_7PrivateEP7QObject@Base 5.24.3-1
 _ZN8KWayland6Client13XdgShellPopupC2EPNS1_7PrivateEP7QObject@Base 5.24.3-1
 _ZN8KWayland6Client13XdgShellPopupD0Ev@Base 5.24.3-1
 _ZN8KWayland6Client13XdgShellPopupD1Ev@Base 5.24.3-1
 _ZN8KWayland6Client13XdgShellPopupD2Ev@Base 5.24.3-1
 _ZN8KWayland6Client13XdgShellPopupcvP11xdg_surfaceEv@Base 5.24.3-1
 _ZN8KWayland6Client13XdgShellPopupcvP13zxdg_popup_v6Ev@Base 5.24.3-1
 _ZN8KWayland6Client13XdgShellPopupcvP15zxdg_surface_v6Ev@Base 5.24.3-1
 _ZN8KWayland6Client13XdgShellPopupcvP9xdg_popupEv@Base 5.24.3-1
 _ZN8KWayland6Client14AppMenuManager10eventQueueEv@Base 5.24.3-1
 _ZN8KWayland6Client14AppMenuManager11qt_metacallEN11QMetaObject4CallEiPPv@Base 5.24.3-1
 _ZN8KWayland6Client14AppMenuManager11qt_metacastEPKc@Base 5.24.3-1
 _ZN8KWayland6Client14AppMenuManager13setEventQueueEPNS0_10EventQueueE@Base 5.24.3-1
 _ZN8KWayland6Client14AppMenuManager16staticMetaObjectE@Base 5.24.3-1
 _ZN8KWayland6Client14AppMenuManager5setupEP28org_kde_kwin_appmenu_manager@Base 5.24.3-1
 _ZN8KWayland6Client14AppMenuManager6createEPNS0_7SurfaceEP7QObject@Base 5.24.3-1
 _ZN8KWayland6Client14AppMenuManager7Private5setupEP28org_kde_kwin_appmenu_manager@Base 5.24.3-1
 _ZN8KWayland6Client14AppMenuManager7destroyEv@Base 5.24.3-1
 _ZN8KWayland6Client14AppMenuManager7releaseEv@Base 5.24.3-1
 _ZN8KWayland6Client14AppMenuManager7removedEv@Base 5.24.3-1
 _ZN8KWayland6Client14AppMenuManagerC1EP7QObject@Base 5.24.3-1
 _ZN8KWayland6Client14AppMenuManagerC2EP7QObject@Base 5.24.3-1
 _ZN8KWayland6Client14AppMenuManagerD0Ev@Base 5.24.3-1
 _ZN8KWayland6Client14AppMenuManagerD1Ev@Base 5.24.3-1
 _ZN8KWayland6Client14AppMenuManagerD2Ev@Base 5.24.3-1
 _ZN8KWayland6Client14AppMenuManagercvP28org_kde_kwin_appmenu_managerEv@Base 5.24.3-1
 _ZN8KWayland6Client15ConfinedPointer10unconfinedEv@Base 5.24.3-1
 _ZN8KWayland6Client15ConfinedPointer11qt_metacallEN11QMetaObject4CallEiPPv@Base 5.24.3-1
 _ZN8KWayland6Client15ConfinedPointer11qt_metacastEPKc@Base 5.24.3-1
 _ZN8KWayland6Client15ConfinedPointer16staticMetaObjectE@Base 5.24.3-1
 _ZN8KWayland6Client15ConfinedPointer5setupEP23zwp_confined_pointer_v1@Base 5.24.3-1
 _ZN8KWayland6Client15ConfinedPointer7destroyEv@Base 5.24.3-1
 _ZN8KWayland6Client15ConfinedPointer7releaseEv@Base 5.24.3-1
 _ZN8KWayland6Client15ConfinedPointer8confinedEv@Base 5.24.3-1
 _ZN8KWayland6Client15ConfinedPointer9setRegionEPNS0_6RegionE@Base 5.24.3-1
 _ZN8KWayland6Client15ConfinedPointerC1EP7QObject@Base 5.24.3-1
 _ZN8KWayland6Client15ConfinedPointerC2EP7QObject@Base 5.24.3-1
 _ZN8KWayland6Client15ConfinedPointerD0Ev@Base 5.24.3-1
 _ZN8KWayland6Client15ConfinedPointerD1Ev@Base 5.24.3-1
 _ZN8KWayland6Client15ConfinedPointerD2Ev@Base 5.24.3-1
 _ZN8KWayland6Client15ConfinedPointercvP23zwp_confined_pointer_v1Ev@Base 5.24.3-1
 _ZN8KWayland6Client15ContrastManager10eventQueueEv@Base 5.24.3-1
 _ZN8KWayland6Client15ContrastManager11qt_metacallEN11QMetaObject4CallEiPPv@Base 5.24.3-1
 _ZN8KWayland6Client15ContrastManager11qt_metacastEPKc@Base 5.24.3-1
 _ZN8KWayland6Client15ContrastManager13setEventQueueEPNS0_10EventQueueE@Base 5.24.3-1
 _ZN8KWayland6Client15ContrastManager14createContrastEPNS0_7SurfaceEP7QObject@Base 5.24.3-1
 _ZN8KWayland6Client15ContrastManager14removeContrastEPNS0_7SurfaceE@Base 5.24.3-1
 _ZN8KWayland6Client15ContrastManager16staticMetaObjectE@Base 5.24.3-1
 _ZN8KWayland6Client15ContrastManager5setupEP29org_kde_kwin_contrast_manager@Base 5.24.3-1
 _ZN8KWayland6Client15ContrastManager7destroyEv@Base 5.24.3-1
 _ZN8KWayland6Client15ContrastManager7releaseEv@Base 5.24.3-1
 _ZN8KWayland6Client15ContrastManager7removedEv@Base 5.24.3-1
 _ZN8KWayland6Client15ContrastManagerC1EP7QObject@Base 5.24.3-1
 _ZN8KWayland6Client15ContrastManagerC2EP7QObject@Base 5.24.3-1
 _ZN8KWayland6Client15ContrastManagerD0Ev@Base 5.24.3-1
 _ZN8KWayland6Client15ContrastManagerD1Ev@Base 5.24.3-1
 _ZN8KWayland6Client15ContrastManagerD2Ev@Base 5.24.3-1
 _ZN8KWayland6Client15ContrastManagercvP29org_kde_kwin_contrast_managerEv@Base 5.24.3-1
 _ZN8KWayland6Client15DDEShellSurface11qt_metacallEN11QMetaObject4CallEiPPv@Base 5.24.3-1
 _ZN8KWayland6Client15DDEShellSurface11qt_metacastEPKc@Base 5.24.3-1
 _ZN8KWayland6Client15DDEShellSurface12requestModalEb@Base 5.24.3-1
 _ZN8KWayland6Client15DDEShellSurface13activeChangedEv@Base 5.24.3-1
 _ZN8KWayland6Client15DDEShellSurface14movableChangedEv@Base 5.24.3-1
 _ZN8KWayland6Client15DDEShellSurface15geometryChangedERK5QRect@Base 5.24.3-1
 _ZN8KWayland6Client15DDEShellSurface15modalityChangedEv@Base 5.24.3-1
 _ZN8KWayland6Client15DDEShellSurface15requestActivateEv@Base 5.24.3-1
 _ZN8KWayland6Client15DDEShellSurface16closeableChangedEv@Base 5.24.3-1
 _ZN8KWayland6Client15DDEShellSurface16keepAboveChangedEv@Base 5.24.3-1
 _ZN8KWayland6Client15DDEShellSurface16keepBelowChangedEv@Base 5.24.3-1
 _ZN8KWayland6Client15DDEShellSurface16maximizedChangedEv@Base 5.24.3-1
 _ZN8KWayland6Client15DDEShellSurface16minimizedChangedEv@Base 5.24.3-1
 _ZN8KWayland6Client15DDEShellSurface16requestKeepAboveEb@Base 5.24.3-1
 _ZN8KWayland6Client15DDEShellSurface16requestKeepBelowEb@Base 5.24.3-1
 _ZN8KWayland6Client15DDEShellSurface16requestMaximizedEb@Base 5.24.3-1
 _ZN8KWayland6Client15DDEShellSurface16requestMinimizedEb@Base 5.24.3-1
 _ZN8KWayland6Client15DDEShellSurface16requestResizableEb@Base 5.24.3-1
 _ZN8KWayland6Client15DDEShellSurface16resizableChangedEv@Base 5.24.3-1
 _ZN8KWayland6Client15DDEShellSurface16staticMetaObjectE@Base 5.24.3-1
 _ZN8KWayland6Client15DDEShellSurface17fullscreenChangedEv@Base 5.24.3-1
 _ZN8KWayland6Client15DDEShellSurface17requestMinizeableEb@Base 5.24.3-1
 _ZN8KWayland6Client15DDEShellSurface18acceptFocusChangedEv@Base 5.24.3-1
 _ZN8KWayland6Client15DDEShellSurface18requestAcceptFocusEb@Base 5.24.3-1
 _ZN8KWayland6Client15DDEShellSurface19maximizeableChangedEv@Base 5.24.3-1
 _ZN8KWayland6Client15DDEShellSurface19minimizeableChangedEv@Base 5.24.3-1
 _ZN8KWayland6Client15DDEShellSurface19requestMaximizeableEb@Base 5.24.3-1
 _ZN8KWayland6Client15DDEShellSurface21fullscreenableChangedEv@Base 5.24.3-1
 _ZN8KWayland6Client15DDEShellSurface25requestNoTitleBarPropertyEi@Base 5.24.3-1
 _ZN8KWayland6Client15DDEShellSurface27requestWindowRadiusPropertyE7QPointF@Base 5.24.3-1
 _ZN8KWayland6Client15DDEShellSurface3getEPNS0_7SurfaceE@Base 5.24.3-1
 _ZN8KWayland6Client15DDEShellSurface5setupEP17dde_shell_surface@Base 5.24.3-1
 _ZN8KWayland6Client15DDEShellSurface7destroyEv@Base 5.24.3-1
 _ZN8KWayland6Client15DDEShellSurface7releaseEv@Base 5.24.3-1
 _ZN8KWayland6Client15DDEShellSurfaceC1EP7QObject@Base 5.24.3-1
 _ZN8KWayland6Client15DDEShellSurfaceC2EP7QObject@Base 5.24.3-1
 _ZN8KWayland6Client15DDEShellSurfaceD0Ev@Base 5.24.3-1
 _ZN8KWayland6Client15DDEShellSurfaceD1Ev@Base 5.24.3-1
 _ZN8KWayland6Client15DDEShellSurfaceD2Ev@Base 5.24.3-1
 _ZN8KWayland6Client15DDEShellSurfacecvP17dde_shell_surfaceEv@Base 5.24.3-1
 _ZN8KWayland6Client15FullscreenShell11qt_metacallEN11QMetaObject4CallEiPPv@Base 5.24.3-1
 _ZN8KWayland6Client15FullscreenShell11qt_metacastEPKc@Base 5.24.3-1
 _ZN8KWayland6Client15FullscreenShell13setEventQueueEPNS0_10EventQueueE@Base 5.24.3-1
 _ZN8KWayland6Client15FullscreenShell16staticMetaObjectE@Base 5.24.3-1
 _ZN8KWayland6Client15FullscreenShell28capabilityCursorPlaneChangedEb@Base 5.24.3-1
 _ZN8KWayland6Client15FullscreenShell31capabilityArbitraryModesChangedEb@Base 5.24.3-1
 _ZN8KWayland6Client15FullscreenShell5setupEP20_wl_fullscreen_shell@Base 5.24.3-1
 _ZN8KWayland6Client15FullscreenShell7destroyEv@Base 5.24.3-1
 _ZN8KWayland6Client15FullscreenShell7presentEP10wl_surfaceP9wl_output@Base 5.24.3-1
 _ZN8KWayland6Client15FullscreenShell7presentEPNS0_7SurfaceEPNS0_6OutputE@Base 5.24.3-1
 _ZN8KWayland6Client15FullscreenShell7releaseEv@Base 5.24.3-1
 _ZN8KWayland6Client15FullscreenShell7removedEv@Base 5.24.3-1
 _ZN8KWayland6Client15FullscreenShellC1EP7QObject@Base 5.24.3-1
 _ZN8KWayland6Client15FullscreenShellC2EP7QObject@Base 5.24.3-1
 _ZN8KWayland6Client15FullscreenShellD0Ev@Base 5.24.3-1
 _ZN8KWayland6Client15FullscreenShellD1Ev@Base 5.24.3-1
 _ZN8KWayland6Client15FullscreenShellD2Ev@Base 5.24.3-1
 _ZN8KWayland6Client15PointerGestures10eventQueueEv@Base 5.24.3-1
 _ZN8KWayland6Client15PointerGestures11qt_metacallEN11QMetaObject4CallEiPPv@Base 5.24.3-1
 _ZN8KWayland6Client15PointerGestures11qt_metacastEPKc@Base 5.24.3-1
 _ZN8KWayland6Client15PointerGestures13setEventQueueEPNS0_10EventQueueE@Base 5.24.3-1
 _ZN8KWayland6Client15PointerGestures16staticMetaObjectE@Base 5.24.3-1
 _ZN8KWayland6Client15PointerGestures18createPinchGestureEPNS0_7PointerEP7QObject@Base 5.24.3-1
 _ZN8KWayland6Client15PointerGestures18createSwipeGestureEPNS0_7PointerEP7QObject@Base 5.24.3-1
 _ZN8KWayland6Client15PointerGestures5setupEP23zwp_pointer_gestures_v1@Base 5.24.3-1
 _ZN8KWayland6Client15PointerGestures7destroyEv@Base 5.24.3-1
 _ZN8KWayland6Client15PointerGestures7releaseEv@Base 5.24.3-1
 _ZN8KWayland6Client15PointerGestures7removedEv@Base 5.24.3-1
 _ZN8KWayland6Client15PointerGesturesC1EP7QObject@Base 5.24.3-1
 _ZN8KWayland6Client15PointerGesturesC2EP7QObject@Base 5.24.3-1
 _ZN8KWayland6Client15PointerGesturesD0Ev@Base 5.24.3-1
 _ZN8KWayland6Client15PointerGesturesD1Ev@Base 5.24.3-1
 _ZN8KWayland6Client15PointerGesturesD2Ev@Base 5.24.3-1
 _ZN8KWayland6Client15PointerGesturescvP23zwp_pointer_gestures_v1Ev@Base 5.24.3-1
 _ZN8KWayland6Client15RelativePointer11qt_metacallEN11QMetaObject4CallEiPPv@Base 5.24.3-1
 _ZN8KWayland6Client15RelativePointer11qt_metacastEPKc@Base 5.24.3-1
 _ZN8KWayland6Client15RelativePointer14relativeMotionERK6QSizeFS4_y@Base 5.24.3-1
 _ZN8KWayland6Client15RelativePointer16staticMetaObjectE@Base 5.24.3-1
 _ZN8KWayland6Client15RelativePointer5setupEP23zwp_relative_pointer_v1@Base 5.24.3-1
 _ZN8KWayland6Client15RelativePointer7destroyEv@Base 5.24.3-1
 _ZN8KWayland6Client15RelativePointer7releaseEv@Base 5.24.3-1
 _ZN8KWayland6Client15RelativePointerC1EP7QObject@Base 5.24.3-1
 _ZN8KWayland6Client15RelativePointerC2EP7QObject@Base 5.24.3-1
 _ZN8KWayland6Client15RelativePointerD0Ev@Base 5.24.3-1
 _ZN8KWayland6Client15RelativePointerD1Ev@Base 5.24.3-1
 _ZN8KWayland6Client15RelativePointerD2Ev@Base 5.24.3-1
 _ZN8KWayland6Client15RelativePointercvP23zwp_relative_pointer_v1Ev@Base 5.24.3-1
 _ZN8KWayland6Client15XdgShellSurface10eventQueueEv@Base 5.24.3-1
 _ZN8KWayland6Client15XdgShellSurface10setMaxSizeERK5QSize@Base 5.24.3-1
 _ZN8KWayland6Client15XdgShellSurface10setMinSizeERK5QSize@Base 5.24.3-1
 _ZN8KWayland6Client15XdgShellSurface11qt_metacallEN11QMetaObject4CallEiPPv@Base 5.24.3-1
 _ZN8KWayland6Client15XdgShellSurface11qt_metacastEPKc@Base 5.24.3-1
 _ZN8KWayland6Client15XdgShellSurface11requestMoveEPNS0_4SeatEj@Base 5.24.3-1
 _ZN8KWayland6Client15XdgShellSurface11sizeChangedERK5QSize@Base 5.24.3-1
 _ZN8KWayland6Client15XdgShellSurface12ackConfigureEj@Base 5.24.3-1
 _ZN8KWayland6Client15XdgShellSurface12setMaximizedEb@Base 5.24.3-1
 _ZN8KWayland6Client15XdgShellSurface13requestResizeEPNS0_4SeatEj6QFlagsIN2Qt4EdgeEE@Base 5.24.3-1
 _ZN8KWayland6Client15XdgShellSurface13setEventQueueEPNS0_10EventQueueE@Base 5.24.3-1
 _ZN8KWayland6Client15XdgShellSurface13setFullscreenEbPNS0_6OutputE@Base 5.24.3-1
 _ZN8KWayland6Client15XdgShellSurface14closeRequestedEv@Base 5.24.3-1
 _ZN8KWayland6Client15XdgShellSurface15requestMinimizeEv@Base 5.24.3-1
 _ZN8KWayland6Client15XdgShellSurface15setTransientForEPS1_@Base 5.24.3-1
 _ZN8KWayland6Client15XdgShellSurface16staticMetaObjectE@Base 5.24.3-1
 _ZN8KWayland6Client15XdgShellSurface17setWindowGeometryERK5QRect@Base 5.24.3-1
 _ZN8KWayland6Client15XdgShellSurface18configureRequestedERK5QSize6QFlagsINS1_5StateEEj@Base 5.24.3-1
 _ZN8KWayland6Client15XdgShellSurface21requestShowWindowMenuEPNS0_4SeatEjRK6QPoint@Base 5.24.3-1
 _ZN8KWayland6Client15XdgShellSurface5setupEP11xdg_surface@Base 5.24.3-1
 _ZN8KWayland6Client15XdgShellSurface5setupEP11xdg_surfaceP12xdg_toplevel@Base 5.24.3-1
 _ZN8KWayland6Client15XdgShellSurface5setupEP15zxdg_surface_v6P16zxdg_toplevel_v6@Base 5.24.3-1
 _ZN8KWayland6Client15XdgShellSurface7destroyEv@Base 5.24.3-1
 _ZN8KWayland6Client15XdgShellSurface7releaseEv@Base 5.24.3-1
 _ZN8KWayland6Client15XdgShellSurface7setSizeERK5QSize@Base 5.24.3-1
 _ZN8KWayland6Client15XdgShellSurface8setAppIdERK10QByteArray@Base 5.24.3-1
 _ZN8KWayland6Client15XdgShellSurface8setTitleERK7QString@Base 5.24.3-1
 _ZN8KWayland6Client15XdgShellSurfaceC1EPNS1_7PrivateEP7QObject@Base 5.24.3-1
 _ZN8KWayland6Client15XdgShellSurfaceC2EPNS1_7PrivateEP7QObject@Base 5.24.3-1
 _ZN8KWayland6Client15XdgShellSurfaceD0Ev@Base 5.24.3-1
 _ZN8KWayland6Client15XdgShellSurfaceD1Ev@Base 5.24.3-1
 _ZN8KWayland6Client15XdgShellSurfaceD2Ev@Base 5.24.3-1
 _ZN8KWayland6Client15XdgShellSurfacecvP11xdg_surfaceEv@Base 5.24.3-1
 _ZN8KWayland6Client15XdgShellSurfacecvP12xdg_toplevelEv@Base 5.24.3-1
 _ZN8KWayland6Client15XdgShellSurfacecvP15zxdg_surface_v6Ev@Base 5.24.3-1
 _ZN8KWayland6Client15XdgShellSurfacecvP16zxdg_toplevel_v6Ev@Base 5.24.3-1
 _ZN8KWayland6Client16ClientManagement11qt_metacallEN11QMetaObject4CallEiPPv@Base 5.24.3-1
 _ZN8KWayland6Client16ClientManagement11qt_metacastEPKc@Base 5.24.3-1
 _ZN8KWayland6Client16ClientManagement13setEventQueueEPNS0_10EventQueueE@Base 5.24.3-1
 _ZN8KWayland6Client16ClientManagement16clientManagementEv@Base 5.24.3-1
 _ZN8KWayland6Client16ClientManagement16getWindowCaptionEiP9wl_buffer@Base 5.24.3-1
 _ZN8KWayland6Client16ClientManagement16staticMetaObjectE@Base 5.24.3-1
 _ZN8KWayland6Client16ClientManagement17captionWindowDoneEib@Base 5.24.3-1
 _ZN8KWayland6Client16ClientManagement19windowStatesChangedEv@Base 5.24.3-1
 _ZN8KWayland6Client16ClientManagement5setupEP28com_deepin_client_management@Base 5.24.3-1
 _ZN8KWayland6Client16ClientManagement7destroyEv@Base 5.24.3-1
 _ZN8KWayland6Client16ClientManagement7removedEv@Base 5.24.3-1
 _ZN8KWayland6Client16ClientManagementC1EP7QObject@Base 5.24.3-1
 _ZN8KWayland6Client16ClientManagementC2EP7QObject@Base 5.24.3-1
 _ZN8KWayland6Client16ClientManagementD0Ev@Base 5.24.3-1
 _ZN8KWayland6Client16ClientManagementD1Ev@Base 5.24.3-1
 _ZN8KWayland6Client16ClientManagementD2Ev@Base 5.24.3-1
 _ZN8KWayland6Client16ClientManagementcvP28com_deepin_client_managementEv@Base 5.24.3-1
 _ZN8KWayland6Client16ConnectionThread10eventsReadEv@Base 5.24.3-1
 _ZN8KWayland6Client16ConnectionThread11connectionsEv@Base 5.24.3-1
 _ZN8KWayland6Client16ConnectionThread11qt_metacallEN11QMetaObject4CallEiPPv@Base 5.24.3-1
 _ZN8KWayland6Client16ConnectionThread11qt_metacastEPKc@Base 5.24.3-1
 _ZN8KWayland6Client16ConnectionThread11setSocketFdEi@Base 5.24.3-1
 _ZN8KWayland6Client16ConnectionThread13errorOccurredEv@Base 5.24.3-1
 _ZN8KWayland6Client16ConnectionThread13setSocketNameERK7QString@Base 5.24.3-1
 _ZN8KWayland6Client16ConnectionThread14connectionDiedEv@Base 5.24.3-1
 _ZN8KWayland6Client16ConnectionThread14initConnectionEv@Base 5.24.3-1
 _ZN8KWayland6Client16ConnectionThread15fromApplicationEP7QObject@Base 5.24.3-1
 _ZN8KWayland6Client16ConnectionThread16doInitConnectionEv@Base 5.24.3-1
 _ZN8KWayland6Client16ConnectionThread16staticMetaObjectE@Base 5.24.3-1
 _ZN8KWayland6Client16ConnectionThread5flushEv@Base 5.24.3-1
 _ZN8KWayland6Client16ConnectionThread6failedEv@Base 5.24.3-1
 _ZN8KWayland6Client16ConnectionThread7displayEv@Base 5.24.3-1
 _ZN8KWayland6Client16ConnectionThread9connectedEv@Base 5.24.3-1
 _ZN8KWayland6Client16ConnectionThread9roundtripEv@Base 5.24.3-1
 _ZN8KWayland6Client16ConnectionThreadC1EP10wl_displayP7QObject@Base 5.24.3-1
 _ZN8KWayland6Client16ConnectionThreadC1EP7QObject@Base 5.24.3-1
 _ZN8KWayland6Client16ConnectionThreadC2EP10wl_displayP7QObject@Base 5.24.3-1
 _ZN8KWayland6Client16ConnectionThreadC2EP7QObject@Base 5.24.3-1
 _ZN8KWayland6Client16ConnectionThreadD0Ev@Base 5.24.3-1
 _ZN8KWayland6Client16ConnectionThreadD1Ev@Base 5.24.3-1
 _ZN8KWayland6Client16ConnectionThreadD2Ev@Base 5.24.3-1
 _ZN8KWayland6Client16OutputManagement10eventQueueEv@Base 5.24.3-1
 _ZN8KWayland6Client16OutputManagement11qt_metacallEN11QMetaObject4CallEiPPv@Base 5.24.3-1
 _ZN8KWayland6Client16OutputManagement11qt_metacastEPKc@Base 5.24.3-1
 _ZN8KWayland6Client16OutputManagement13setEventQueueEPNS0_10EventQueueE@Base 5.24.3-1
 _ZN8KWayland6Client16OutputManagement16staticMetaObjectE@Base 5.24.3-1
 _ZN8KWayland6Client16OutputManagement19createConfigurationEP7QObject@Base 5.24.3-1
 _ZN8KWayland6Client16OutputManagement5setupEP29org_kde_kwin_outputmanagement@Base 5.24.3-1
 _ZN8KWayland6Client16OutputManagement7destroyEv@Base 5.24.3-1
 _ZN8KWayland6Client16OutputManagement7releaseEv@Base 5.24.3-1
 _ZN8KWayland6Client16OutputManagement7removedEv@Base 5.24.3-1
 _ZN8KWayland6Client16OutputManagementC1EP7QObject@Base 5.24.3-1
 _ZN8KWayland6Client16OutputManagementC2EP7QObject@Base 5.24.3-1
 _ZN8KWayland6Client16OutputManagementD0Ev@Base 5.24.3-1
 _ZN8KWayland6Client16OutputManagementD1Ev@Base 5.24.3-1
 _ZN8KWayland6Client16OutputManagementD2Ev@Base 5.24.3-1
 _ZN8KWayland6Client16OutputManagementcvP29org_kde_kwin_outputmanagementEv@Base 5.24.3-1
 _ZN8KWayland6Client16PlasmaActivation11qt_metacallEN11QMetaObject4CallEiPPv@Base 5.24.3-1
 _ZN8KWayland6Client16PlasmaActivation11qt_metacastEPKc@Base 5.24.3-1
 _ZN8KWayland6Client16PlasmaActivation13applicationIdERK7QString@Base 5.24.3-1
 _ZN8KWayland6Client16PlasmaActivation16staticMetaObjectE@Base 5.24.3-1
 _ZN8KWayland6Client16PlasmaActivation8finishedEv@Base 5.24.3-1
 _ZN8KWayland6Client16PlasmaActivationC1EPNS0_24PlasmaActivationFeedbackEP25org_kde_plasma_activation@Base 5.24.3-1
 _ZN8KWayland6Client16PlasmaActivationC2EPNS0_24PlasmaActivationFeedbackEP25org_kde_plasma_activation@Base 5.24.3-1
 _ZN8KWayland6Client16PlasmaActivationD0Ev@Base 5.24.3-1
 _ZN8KWayland6Client16PlasmaActivationD1Ev@Base 5.24.3-1
 _ZN8KWayland6Client16PlasmaActivationD2Ev@Base 5.24.3-1
 _ZN8KWayland6Client16TextInputManager10eventQueueEv@Base 5.24.3-1
 _ZN8KWayland6Client16TextInputManager11qt_metacallEN11QMetaObject4CallEiPPv@Base 5.24.3-1
 _ZN8KWayland6Client16TextInputManager11qt_metacastEPKc@Base 5.24.3-1
 _ZN8KWayland6Client16TextInputManager13setEventQueueEPNS0_10EventQueueE@Base 5.24.3-1
 _ZN8KWayland6Client16TextInputManager15createTextInputEPNS0_4SeatEP7QObject@Base 5.24.3-1
 _ZN8KWayland6Client16TextInputManager16staticMetaObjectE@Base 5.24.3-1
 _ZN8KWayland6Client16TextInputManager5setupEP21wl_text_input_manager@Base 5.24.3-1
 _ZN8KWayland6Client16TextInputManager5setupEP25zwp_text_input_manager_v2@Base 5.24.3-1
 _ZN8KWayland6Client16TextInputManager7destroyEv@Base 5.24.3-1
 _ZN8KWayland6Client16TextInputManager7releaseEv@Base 5.24.3-1
 _ZN8KWayland6Client16TextInputManager7removedEv@Base 5.24.3-1
 _ZN8KWayland6Client16TextInputManagerC1EPNS1_7PrivateEP7QObject@Base 5.24.3-1
 _ZN8KWayland6Client16TextInputManagerC2EPNS1_7PrivateEP7QObject@Base 5.24.3-1
 _ZN8KWayland6Client16TextInputManagerD0Ev@Base 5.24.3-1
 _ZN8KWayland6Client16TextInputManagerD1Ev@Base 5.24.3-1
 _ZN8KWayland6Client16TextInputManagerD2Ev@Base 5.24.3-1
 _ZN8KWayland6Client16TextInputManagercvP21wl_text_input_managerEv@Base 5.24.3-1
 _ZN8KWayland6Client16TextInputManagercvP25zwp_text_input_manager_v2Ev@Base 5.24.3-1
 _ZN8KWayland6Client16XdgOutputManager10eventQueueEv@Base 5.24.3-1
 _ZN8KWayland6Client16XdgOutputManager11qt_metacallEN11QMetaObject4CallEiPPv@Base 5.24.3-1
 _ZN8KWayland6Client16XdgOutputManager11qt_metacastEPKc@Base 5.24.3-1
 _ZN8KWayland6Client16XdgOutputManager12getXdgOutputEPNS0_6OutputEP7QObject@Base 5.24.3-1
 _ZN8KWayland6Client16XdgOutputManager13setEventQueueEPNS0_10EventQueueE@Base 5.24.3-1
 _ZN8KWayland6Client16XdgOutputManager16staticMetaObjectE@Base 5.24.3-1
 _ZN8KWayland6Client16XdgOutputManager5setupEP22zxdg_output_manager_v1@Base 5.24.3-1
 _ZN8KWayland6Client16XdgOutputManager7Private5setupEP22zxdg_output_manager_v1@Base 5.24.3-1
 _ZN8KWayland6Client16XdgOutputManager7destroyEv@Base 5.24.3-1
 _ZN8KWayland6Client16XdgOutputManager7releaseEv@Base 5.24.3-1
 _ZN8KWayland6Client16XdgOutputManager7removedEv@Base 5.24.3-1
 _ZN8KWayland6Client16XdgOutputManagerC1EP7QObject@Base 5.24.3-1
 _ZN8KWayland6Client16XdgOutputManagerC2EP7QObject@Base 5.24.3-1
 _ZN8KWayland6Client16XdgOutputManagerD0Ev@Base 5.24.3-1
 _ZN8KWayland6Client16XdgOutputManagerD1Ev@Base 5.24.3-1
 _ZN8KWayland6Client16XdgOutputManagerD2Ev@Base 5.24.3-1
 _ZN8KWayland6Client16XdgOutputManagercvP22zxdg_output_manager_v1Ev@Base 5.24.3-1
 _ZN8KWayland6Client17DataDeviceManager10eventQueueEv@Base 5.24.3-1
 _ZN8KWayland6Client17DataDeviceManager11qt_metacallEN11QMetaObject4CallEiPPv@Base 5.24.3-1
 _ZN8KWayland6Client17DataDeviceManager11qt_metacastEPKc@Base 5.24.3-1
 _ZN8KWayland6Client17DataDeviceManager13getDataDeviceEPNS0_4SeatEP7QObject@Base 5.24.3-1
 _ZN8KWayland6Client17DataDeviceManager13setEventQueueEPNS0_10EventQueueE@Base 5.24.3-1
 _ZN8KWayland6Client17DataDeviceManager16createDataSourceEP7QObject@Base 5.24.3-1
 _ZN8KWayland6Client17DataDeviceManager16staticMetaObjectE@Base 5.24.3-1
 _ZN8KWayland6Client17DataDeviceManager5setupEP22wl_data_device_manager@Base 5.24.3-1
 _ZN8KWayland6Client17DataDeviceManager7destroyEv@Base 5.24.3-1
 _ZN8KWayland6Client17DataDeviceManager7releaseEv@Base 5.24.3-1
 _ZN8KWayland6Client17DataDeviceManager7removedEv@Base 5.24.3-1
 _ZN8KWayland6Client17DataDeviceManagerC1EP7QObject@Base 5.24.3-1
 _ZN8KWayland6Client17DataDeviceManagerC2EP7QObject@Base 5.24.3-1
 _ZN8KWayland6Client17DataDeviceManagerD0Ev@Base 5.24.3-1
 _ZN8KWayland6Client17DataDeviceManagerD1Ev@Base 5.24.3-1
 _ZN8KWayland6Client17DataDeviceManagerD2Ev@Base 5.24.3-1
 _ZN8KWayland6Client17DataDeviceManagercvP22wl_data_device_managerEv@Base 5.24.3-1
 _ZN8KWayland6Client17PlasmaWindowModel11qt_metacallEN11QMetaObject4CallEiPPv@Base 5.24.3-1
 _ZN8KWayland6Client17PlasmaWindowModel11qt_metacastEPKc@Base 5.24.3-1
 _ZN8KWayland6Client17PlasmaWindowModel11requestMoveEi@Base 5.24.3-1
 _ZN8KWayland6Client17PlasmaWindowModel12requestCloseEi@Base 5.24.3-1
 _ZN8KWayland6Client17PlasmaWindowModel13requestResizeEi@Base 5.24.3-1
 _ZN8KWayland6Client17PlasmaWindowModel15requestActivateEi@Base 5.24.3-1
 _ZN8KWayland6Client17PlasmaWindowModel16staticMetaObjectE@Base 5.24.3-1
 _ZN8KWayland6Client17PlasmaWindowModel19requestToggleShadedEi@Base 5.24.3-1
 _ZN8KWayland6Client17PlasmaWindowModel20setMinimizedGeometryEiPNS0_7SurfaceERK5QRect@Base 5.24.3-1
 _ZN8KWayland6Client17PlasmaWindowModel21requestVirtualDesktopEij@Base 5.24.3-1
 _ZN8KWayland6Client17PlasmaWindowModel22requestToggleKeepAboveEi@Base 5.24.3-1
 _ZN8KWayland6Client17PlasmaWindowModel22requestToggleKeepBelowEi@Base 5.24.3-1
 _ZN8KWayland6Client17PlasmaWindowModel22requestToggleMaximizedEi@Base 5.24.3-1
 _ZN8KWayland6Client17PlasmaWindowModel22requestToggleMinimizedEi@Base 5.24.3-1
 _ZN8KWayland6Client17PlasmaWindowModelC1EPNS0_22PlasmaWindowManagementE@Base 5.24.3-1
 _ZN8KWayland6Client17PlasmaWindowModelC2EPNS0_22PlasmaWindowManagementE@Base 5.24.3-1
 _ZN8KWayland6Client17PlasmaWindowModelD0Ev@Base 5.24.3-1
 _ZN8KWayland6Client17PlasmaWindowModelD1Ev@Base 5.24.3-1
 _ZN8KWayland6Client17PlasmaWindowModelD2Ev@Base 5.24.3-1
 _ZN8KWayland6Client18IdleInhibitManager10eventQueueEv@Base 5.24.3-1
 _ZN8KWayland6Client18IdleInhibitManager11qt_metacallEN11QMetaObject4CallEiPPv@Base 5.24.3-1
 _ZN8KWayland6Client18IdleInhibitManager11qt_metacastEPKc@Base 5.24.3-1
 _ZN8KWayland6Client18IdleInhibitManager13setEventQueueEPNS0_10EventQueueE@Base 5.24.3-1
 _ZN8KWayland6Client18IdleInhibitManager15createInhibitorEPNS0_7SurfaceEP7QObject@Base 5.24.3-1
 _ZN8KWayland6Client18IdleInhibitManager16staticMetaObjectE@Base 5.24.3-1
 _ZN8KWayland6Client18IdleInhibitManager5setupEP27zwp_idle_inhibit_manager_v1@Base 5.24.3-1
 _ZN8KWayland6Client18IdleInhibitManager7destroyEv@Base 5.24.3-1
 _ZN8KWayland6Client18IdleInhibitManager7releaseEv@Base 5.24.3-1
 _ZN8KWayland6Client18IdleInhibitManager7removedEv@Base 5.24.3-1
 _ZN8KWayland6Client18IdleInhibitManagerC1EP7QObject@Base 5.24.3-1
 _ZN8KWayland6Client18IdleInhibitManagerC2EP7QObject@Base 5.24.3-1
 _ZN8KWayland6Client18IdleInhibitManagerD0Ev@Base 5.24.3-1
 _ZN8KWayland6Client18IdleInhibitManagerD1Ev@Base 5.24.3-1
 _ZN8KWayland6Client18IdleInhibitManagerD2Ev@Base 5.24.3-1
 _ZN8KWayland6Client18IdleInhibitManagercvP27zwp_idle_inhibit_manager_v1Ev@Base 5.24.3-1
 _ZN8KWayland6Client18PlasmaShellSurface11qt_metacallEN11QMetaObject4CallEiPPv@Base 5.24.3-1
 _ZN8KWayland6Client18PlasmaShellSurface11qt_metacastEPKc@Base 5.24.3-1
 _ZN8KWayland6Client18PlasmaShellSurface11setPositionERK6QPoint@Base 5.24.3-1
 _ZN8KWayland6Client18PlasmaShellSurface14setSkipTaskbarEb@Base 5.24.3-1
 _ZN8KWayland6Client18PlasmaShellSurface15setSkipSwitcherEb@Base 5.24.3-1
 _ZN8KWayland6Client18PlasmaShellSurface16setPanelBehaviorENS1_13PanelBehaviorE@Base 5.24.3-1
 _ZN8KWayland6Client18PlasmaShellSurface16staticMetaObjectE@Base 5.24.3-1
 _ZN8KWayland6Client18PlasmaShellSurface18autoHidePanelShownEv@Base 5.24.3-1
 _ZN8KWayland6Client18PlasmaShellSurface18setPanelTakesFocusEb@Base 5.24.3-1
 _ZN8KWayland6Client18PlasmaShellSurface19autoHidePanelHiddenEv@Base 5.24.3-1
 _ZN8KWayland6Client18PlasmaShellSurface26requestHideAutoHidingPanelEv@Base 5.24.3-1
 _ZN8KWayland6Client18PlasmaShellSurface26requestShowAutoHidingPanelEv@Base 5.24.3-1
 _ZN8KWayland6Client18PlasmaShellSurface3getEPNS0_7SurfaceE@Base 5.24.3-1
 _ZN8KWayland6Client18PlasmaShellSurface5setupEP22org_kde_plasma_surface@Base 5.24.3-1
 _ZN8KWayland6Client18PlasmaShellSurface7destroyEv@Base 5.24.3-1
 _ZN8KWayland6Client18PlasmaShellSurface7releaseEv@Base 5.24.3-1
 _ZN8KWayland6Client18PlasmaShellSurface7setRoleENS1_4RoleE@Base 5.24.3-1
 _ZN8KWayland6Client18PlasmaShellSurfaceC1EP7QObject@Base 5.24.3-1
 _ZN8KWayland6Client18PlasmaShellSurfaceC2EP7QObject@Base 5.24.3-1
 _ZN8KWayland6Client18PlasmaShellSurfaceD0Ev@Base 5.24.3-1
 _ZN8KWayland6Client18PlasmaShellSurfaceD1Ev@Base 5.24.3-1
 _ZN8KWayland6Client18PlasmaShellSurfaceD2Ev@Base 5.24.3-1
 _ZN8KWayland6Client18PlasmaShellSurfacecvP22org_kde_plasma_surfaceEv@Base 5.24.3-1
 _ZN8KWayland6Client18PointerConstraints10eventQueueEv@Base 5.24.3-1
 _ZN8KWayland6Client18PointerConstraints11lockPointerEPNS0_7SurfaceEPNS0_7PointerEPNS0_6RegionENS1_8LifeTimeEP7QObject@Base 5.24.3-1
 _ZN8KWayland6Client18PointerConstraints11qt_metacallEN11QMetaObject4CallEiPPv@Base 5.24.3-1
 _ZN8KWayland6Client18PointerConstraints11qt_metacastEPKc@Base 5.24.3-1
 _ZN8KWayland6Client18PointerConstraints13setEventQueueEPNS0_10EventQueueE@Base 5.24.3-1
 _ZN8KWayland6Client18PointerConstraints14confinePointerEPNS0_7SurfaceEPNS0_7PointerEPNS0_6RegionENS1_8LifeTimeEP7QObject@Base 5.24.3-1
 _ZN8KWayland6Client18PointerConstraints16staticMetaObjectE@Base 5.24.3-1
 _ZN8KWayland6Client18PointerConstraints5setupEP26zwp_pointer_constraints_v1@Base 5.24.3-1
 _ZN8KWayland6Client18PointerConstraints7destroyEv@Base 5.24.3-1
 _ZN8KWayland6Client18PointerConstraints7releaseEv@Base 5.24.3-1
 _ZN8KWayland6Client18PointerConstraints7removedEv@Base 5.24.3-1
 _ZN8KWayland6Client18PointerConstraintsC1EP7QObject@Base 5.24.3-1
 _ZN8KWayland6Client18PointerConstraintsC2EP7QObject@Base 5.24.3-1
 _ZN8KWayland6Client18PointerConstraintsD0Ev@Base 5.24.3-1
 _ZN8KWayland6Client18PointerConstraintsD1Ev@Base 5.24.3-1
 _ZN8KWayland6Client18PointerConstraintsD2Ev@Base 5.24.3-1
 _ZN8KWayland6Client18PointerConstraintscvP26zwp_pointer_constraints_v1Ev@Base 5.24.3-1
 _ZN8KWayland6Client19OutputConfiguration10eventQueueEv@Base 5.24.3-1
 _ZN8KWayland6Client19OutputConfiguration10setEnabledEPNS0_12OutputDeviceENS2_10EnablementE@Base 5.24.3-1
 _ZN8KWayland6Client19OutputConfiguration11qt_metacallEN11QMetaObject4CallEiPPv@Base 5.24.3-1
 _ZN8KWayland6Client19OutputConfiguration11qt_metacastEPKc@Base 5.24.3-1
 _ZN8KWayland6Client19OutputConfiguration11setOverscanEPNS0_12OutputDeviceEj@Base 5.24.3-1
 _ZN8KWayland6Client19OutputConfiguration11setPositionEPNS0_12OutputDeviceERK6QPoint@Base 5.24.3-1
 _ZN8KWayland6Client19OutputConfiguration12setTransformEPNS0_12OutputDeviceENS2_9TransformE@Base 5.24.3-1
 _ZN8KWayland6Client19OutputConfiguration12setVrrPolicyEPNS0_12OutputDeviceENS2_9VrrPolicyE@Base 5.24.3-1
 _ZN8KWayland6Client19OutputConfiguration13setBrightnessEPNS0_12OutputDeviceEi@Base 5.24.3-1
 _ZN8KWayland6Client19OutputConfiguration13setEventQueueEPNS0_10EventQueueE@Base 5.24.3-1
 _ZN8KWayland6Client19OutputConfiguration14setColorCurvesEPNS0_12OutputDeviceE7QVectorItES5_S5_@Base 5.24.3-1
 _ZN8KWayland6Client19OutputConfiguration16staticMetaObjectE@Base 5.24.3-1
 _ZN8KWayland6Client19OutputConfiguration5applyEv@Base 5.24.3-1
 _ZN8KWayland6Client19OutputConfiguration5setupEP32org_kde_kwin_outputconfiguration@Base 5.24.3-1
 _ZN8KWayland6Client19OutputConfiguration6failedEv@Base 5.24.3-1
 _ZN8KWayland6Client19OutputConfiguration7appliedEv@Base 5.24.3-1
 _ZN8KWayland6Client19OutputConfiguration7destroyEv@Base 5.24.3-1
 _ZN8KWayland6Client19OutputConfiguration7releaseEv@Base 5.24.3-1
 _ZN8KWayland6Client19OutputConfiguration7setModeEPNS0_12OutputDeviceEi@Base 5.24.3-1
 _ZN8KWayland6Client19OutputConfiguration8setScaleEPNS0_12OutputDeviceEi@Base 5.24.3-1
 _ZN8KWayland6Client19OutputConfiguration9setScaleFEPNS0_12OutputDeviceEd@Base 5.24.3-1
 _ZN8KWayland6Client19OutputConfigurationC1EP7QObject@Base 5.24.3-1
 _ZN8KWayland6Client19OutputConfigurationC2EP7QObject@Base 5.24.3-1
 _ZN8KWayland6Client19OutputConfigurationD0Ev@Base 5.24.3-1
 _ZN8KWayland6Client19OutputConfigurationD1Ev@Base 5.24.3-1
 _ZN8KWayland6Client19OutputConfigurationD2Ev@Base 5.24.3-1
 _ZN8KWayland6Client19OutputConfigurationcvP32org_kde_kwin_outputconfigurationEv@Base 5.24.3-1
 _ZN8KWayland6Client19PointerPinchGesture11qt_metacallEN11QMetaObject4CallEiPPv@Base 5.24.3-1
 _ZN8KWayland6Client19PointerPinchGesture11qt_metacastEPKc@Base 5.24.3-1
 _ZN8KWayland6Client19PointerPinchGesture16staticMetaObjectE@Base 5.24.3-1
 _ZN8KWayland6Client19PointerPinchGesture5endedEjj@Base 5.24.3-1
 _ZN8KWayland6Client19PointerPinchGesture5setupEP28zwp_pointer_gesture_pinch_v1@Base 5.24.3-1
 _ZN8KWayland6Client19PointerPinchGesture7destroyEv@Base 5.24.3-1
 _ZN8KWayland6Client19PointerPinchGesture7releaseEv@Base 5.24.3-1
 _ZN8KWayland6Client19PointerPinchGesture7startedEjj@Base 5.24.3-1
 _ZN8KWayland6Client19PointerPinchGesture7updatedERK6QSizeFddj@Base 5.24.3-1
 _ZN8KWayland6Client19PointerPinchGesture9cancelledEjj@Base 5.24.3-1
 _ZN8KWayland6Client19PointerPinchGestureC1EP7QObject@Base 5.24.3-1
 _ZN8KWayland6Client19PointerPinchGestureC2EP7QObject@Base 5.24.3-1
 _ZN8KWayland6Client19PointerPinchGestureD0Ev@Base 5.24.3-1
 _ZN8KWayland6Client19PointerPinchGestureD1Ev@Base 5.24.3-1
 _ZN8KWayland6Client19PointerPinchGestureD2Ev@Base 5.24.3-1
 _ZN8KWayland6Client19PointerPinchGesturecvP28zwp_pointer_gesture_pinch_v1Ev@Base 5.24.3-1
 _ZN8KWayland6Client19PointerSwipeGesture11qt_metacallEN11QMetaObject4CallEiPPv@Base 5.24.3-1
 _ZN8KWayland6Client19PointerSwipeGesture11qt_metacastEPKc@Base 5.24.3-1
 _ZN8KWayland6Client19PointerSwipeGesture16staticMetaObjectE@Base 5.24.3-1
 _ZN8KWayland6Client19PointerSwipeGesture5endedEjj@Base 5.24.3-1
 _ZN8KWayland6Client19PointerSwipeGesture5setupEP28zwp_pointer_gesture_swipe_v1@Base 5.24.3-1
 _ZN8KWayland6Client19PointerSwipeGesture7destroyEv@Base 5.24.3-1
 _ZN8KWayland6Client19PointerSwipeGesture7releaseEv@Base 5.24.3-1
 _ZN8KWayland6Client19PointerSwipeGesture7startedEjj@Base 5.24.3-1
 _ZN8KWayland6Client19PointerSwipeGesture7updatedERK6QSizeFj@Base 5.24.3-1
 _ZN8KWayland6Client19PointerSwipeGesture9cancelledEjj@Base 5.24.3-1
 _ZN8KWayland6Client19PointerSwipeGestureC1EP7QObject@Base 5.24.3-1
 _ZN8KWayland6Client19PointerSwipeGestureC2EP7QObject@Base 5.24.3-1
 _ZN8KWayland6Client19PointerSwipeGestureD0Ev@Base 5.24.3-1
 _ZN8KWayland6Client19PointerSwipeGestureD1Ev@Base 5.24.3-1
 _ZN8KWayland6Client19PointerSwipeGestureD2Ev@Base 5.24.3-1
 _ZN8KWayland6Client19PointerSwipeGesturecvP28zwp_pointer_gesture_swipe_v1Ev@Base 5.24.3-1
 _ZN8KWayland6Client19RemoteAccessManager10eventQueueEv@Base 5.24.3-1
 _ZN8KWayland6Client19RemoteAccessManager11bufferReadyEPKvPKNS0_12RemoteBufferE@Base 5.24.3-1
 _ZN8KWayland6Client19RemoteAccessManager11qt_metacallEN11QMetaObject4CallEiPPv@Base 5.24.3-1
 _ZN8KWayland6Client19RemoteAccessManager11qt_metacastEPKc@Base 5.24.3-1
 _ZN8KWayland6Client19RemoteAccessManager13setEventQueueEPNS0_10EventQueueE@Base 5.24.3-1
 _ZN8KWayland6Client19RemoteAccessManager16staticMetaObjectE@Base 5.24.3-1
 _ZN8KWayland6Client19RemoteAccessManager5setupEP34org_kde_kwin_remote_access_manager@Base 5.24.3-1
 _ZN8KWayland6Client19RemoteAccessManager7Private10s_listenerE@Base 5.24.3-1
 _ZN8KWayland6Client19RemoteAccessManager7Private19bufferReadyCallbackEPvP34org_kde_kwin_remote_access_manageriP9wl_output@Base 5.24.3-1
 _ZN8KWayland6Client19RemoteAccessManager7Private5setupEP34org_kde_kwin_remote_access_manager@Base 5.24.3-1
 _ZN8KWayland6Client19RemoteAccessManager7PrivateC1EPS1_@Base 5.24.3-1
 _ZN8KWayland6Client19RemoteAccessManager7PrivateC2EPS1_@Base 5.24.3-1
 _ZN8KWayland6Client19RemoteAccessManager7destroyEv@Base 5.24.3-1
 _ZN8KWayland6Client19RemoteAccessManager7releaseEv@Base 5.24.3-1
 _ZN8KWayland6Client19RemoteAccessManager7removedEv@Base 5.24.3-1
 _ZN8KWayland6Client19RemoteAccessManagerC1EP7QObject@Base 5.24.3-1
 _ZN8KWayland6Client19RemoteAccessManagerC2EP7QObject@Base 5.24.3-1
 _ZN8KWayland6Client19RemoteAccessManagerD0Ev@Base 5.24.3-1
 _ZN8KWayland6Client19RemoteAccessManagerD1Ev@Base 5.24.3-1
 _ZN8KWayland6Client19RemoteAccessManagerD2Ev@Base 5.24.3-1
 _ZN8KWayland6Client19RemoteAccessManagercvP34org_kde_kwin_remote_access_managerEv@Base 5.24.3-1
 _ZN8KWayland6Client20PlasmaVirtualDesktop11deactivatedEv@Base 5.24.3-1
 _ZN8KWayland6Client20PlasmaVirtualDesktop11qt_metacallEN11QMetaObject4CallEiPPv@Base 5.24.3-1
 _ZN8KWayland6Client20PlasmaVirtualDesktop11qt_metacastEPKc@Base 5.24.3-1
 _ZN8KWayland6Client20PlasmaVirtualDesktop15requestActivateEv@Base 5.24.3-1
 _ZN8KWayland6Client20PlasmaVirtualDesktop16staticMetaObjectE@Base 5.24.3-1
 _ZN8KWayland6Client20PlasmaVirtualDesktop4doneEv@Base 5.24.3-1
 _ZN8KWayland6Client20PlasmaVirtualDesktop5setupEP30org_kde_plasma_virtual_desktop@Base 5.24.3-1
 _ZN8KWayland6Client20PlasmaVirtualDesktop7destroyEv@Base 5.24.3-1
 _ZN8KWayland6Client20PlasmaVirtualDesktop7releaseEv@Base 5.24.3-1
 _ZN8KWayland6Client20PlasmaVirtualDesktop7removedEv@Base 5.24.3-1
 _ZN8KWayland6Client20PlasmaVirtualDesktop9activatedEv@Base 5.24.3-1
 _ZN8KWayland6Client20PlasmaVirtualDesktopC1EP7QObject@Base 5.24.3-1
 _ZN8KWayland6Client20PlasmaVirtualDesktopC2EP7QObject@Base 5.24.3-1
 _ZN8KWayland6Client20PlasmaVirtualDesktopD0Ev@Base 5.24.3-1
 _ZN8KWayland6Client20PlasmaVirtualDesktopD1Ev@Base 5.24.3-1
 _ZN8KWayland6Client20PlasmaVirtualDesktopD2Ev@Base 5.24.3-1
 _ZN8KWayland6Client20PlasmaVirtualDesktopcvP30org_kde_plasma_virtual_desktopEv@Base 5.24.3-1
 _ZN8KWayland6Client20ServerSideDecoration11modeChangedEv@Base 5.24.3-1
 _ZN8KWayland6Client20ServerSideDecoration11qt_metacallEN11QMetaObject4CallEiPPv@Base 5.24.3-1
 _ZN8KWayland6Client20ServerSideDecoration11qt_metacastEPKc@Base 5.24.3-1
 _ZN8KWayland6Client20ServerSideDecoration11requestModeENS1_4ModeE@Base 5.24.3-1
 _ZN8KWayland6Client20ServerSideDecoration16staticMetaObjectE@Base 5.24.3-1
 _ZN8KWayland6Client20ServerSideDecoration5setupEP30org_kde_kwin_server_decoration@Base 5.24.3-1
 _ZN8KWayland6Client20ServerSideDecoration7destroyEv@Base 5.24.3-1
 _ZN8KWayland6Client20ServerSideDecoration7releaseEv@Base 5.24.3-1
 _ZN8KWayland6Client20ServerSideDecorationC1EP7QObject@Base 5.24.3-1
 _ZN8KWayland6Client20ServerSideDecorationC2EP7QObject@Base 5.24.3-1
 _ZN8KWayland6Client20ServerSideDecorationD0Ev@Base 5.24.3-1
 _ZN8KWayland6Client20ServerSideDecorationD1Ev@Base 5.24.3-1
 _ZN8KWayland6Client20ServerSideDecorationD2Ev@Base 5.24.3-1
 _ZN8KWayland6Client20ServerSideDecorationcvP30org_kde_kwin_server_decorationEv@Base 5.24.3-1
 _ZN8KWayland6Client20XdgDecorationManager10eventQueueEv@Base 5.24.3-1
 _ZN8KWayland6Client20XdgDecorationManager11qt_metacallEN11QMetaObject4CallEiPPv@Base 5.24.3-1
 _ZN8KWayland6Client20XdgDecorationManager11qt_metacastEPKc@Base 5.24.3-1
 _ZN8KWayland6Client20XdgDecorationManager13setEventQueueEPNS0_10EventQueueE@Base 5.24.3-1
 _ZN8KWayland6Client20XdgDecorationManager16staticMetaObjectE@Base 5.24.3-1
 _ZN8KWayland6Client20XdgDecorationManager21getToplevelDecorationEPNS0_15XdgShellSurfaceEP7QObject@Base 5.24.3-1
 _ZN8KWayland6Client20XdgDecorationManager5setupEP26zxdg_decoration_manager_v1@Base 5.24.3-1
 _ZN8KWayland6Client20XdgDecorationManager7destroyEv@Base 5.24.3-1
 _ZN8KWayland6Client20XdgDecorationManager7releaseEv@Base 5.24.3-1
 _ZN8KWayland6Client20XdgDecorationManager7removedEv@Base 5.24.3-1
 _ZN8KWayland6Client20XdgDecorationManagerC1EP7QObject@Base 5.24.3-1
 _ZN8KWayland6Client20XdgDecorationManagerC2EP7QObject@Base 5.24.3-1
 _ZN8KWayland6Client20XdgDecorationManagerD0Ev@Base 5.24.3-1
 _ZN8KWayland6Client20XdgDecorationManagerD1Ev@Base 5.24.3-1
 _ZN8KWayland6Client20XdgDecorationManagerD2Ev@Base 5.24.3-1
 _ZN8KWayland6Client20XdgDecorationManagercvP26zxdg_decoration_manager_v1Ev@Base 5.24.3-1
 _ZN8KWayland6Client22PlasmaWindowManagement10eventQueueEv@Base 5.24.3-1
 _ZN8KWayland6Client22PlasmaWindowManagement11hideDesktopEv@Base 5.24.3-1
 _ZN8KWayland6Client22PlasmaWindowManagement11qt_metacallEN11QMetaObject4CallEiPPv@Base 5.24.3-1
 _ZN8KWayland6Client22PlasmaWindowManagement11qt_metacastEPKc@Base 5.24.3-1
 _ZN8KWayland6Client22PlasmaWindowManagement11showDesktopEv@Base 5.24.3-1
 _ZN8KWayland6Client22PlasmaWindowManagement13setEventQueueEPNS0_10EventQueueE@Base 5.24.3-1
 _ZN8KWayland6Client22PlasmaWindowManagement13windowCreatedEPNS0_12PlasmaWindowE@Base 5.24.3-1
 _ZN8KWayland6Client22PlasmaWindowManagement16staticMetaObjectE@Base 5.24.3-1
 _ZN8KWayland6Client22PlasmaWindowManagement17createWindowModelEv@Base 5.24.3-1
 _ZN8KWayland6Client22PlasmaWindowManagement17setShowingDesktopEb@Base 5.24.3-1
 _ZN8KWayland6Client22PlasmaWindowManagement19activeWindowChangedEv@Base 5.24.3-1
 _ZN8KWayland6Client22PlasmaWindowManagement20stackingOrderChangedEv@Base 5.24.3-1
 _ZN8KWayland6Client22PlasmaWindowManagement21showingDesktopChangedEb@Base 5.24.3-1
 _ZN8KWayland6Client22PlasmaWindowManagement25stackingOrderUuidsChangedEv@Base 5.24.3-1
 _ZN8KWayland6Client22PlasmaWindowManagement26interfaceAboutToBeReleasedEv@Base 5.24.3-1
 _ZN8KWayland6Client22PlasmaWindowManagement27interfaceAboutToBeDestroyedEv@Base 5.24.3-1
 _ZN8KWayland6Client22PlasmaWindowManagement5setupEP32org_kde_plasma_window_management@Base 5.24.3-1
 _ZN8KWayland6Client22PlasmaWindowManagement7destroyEv@Base 5.24.3-1
 _ZN8KWayland6Client22PlasmaWindowManagement7releaseEv@Base 5.24.3-1
 _ZN8KWayland6Client22PlasmaWindowManagement7removedEv@Base 5.24.3-1
 _ZN8KWayland6Client22PlasmaWindowManagementC1EP7QObject@Base 5.24.3-1
 _ZN8KWayland6Client22PlasmaWindowManagementC2EP7QObject@Base 5.24.3-1
 _ZN8KWayland6Client22PlasmaWindowManagementD0Ev@Base 5.24.3-1
 _ZN8KWayland6Client22PlasmaWindowManagementD1Ev@Base 5.24.3-1
 _ZN8KWayland6Client22PlasmaWindowManagementD2Ev@Base 5.24.3-1
 _ZN8KWayland6Client22PlasmaWindowManagementcvP32org_kde_plasma_window_managementEv@Base 5.24.3-1
 _ZN8KWayland6Client22RelativePointerManager10eventQueueEv@Base 5.24.3-1
 _ZN8KWayland6Client22RelativePointerManager11qt_metacallEN11QMetaObject4CallEiPPv@Base 5.24.3-1
 _ZN8KWayland6Client22RelativePointerManager11qt_metacastEPKc@Base 5.24.3-1
 _ZN8KWayland6Client22RelativePointerManager13setEventQueueEPNS0_10EventQueueE@Base 5.24.3-1
 _ZN8KWayland6Client22RelativePointerManager16staticMetaObjectE@Base 5.24.3-1
 _ZN8KWayland6Client22RelativePointerManager21createRelativePointerEPNS0_7PointerEP7QObject@Base 5.24.3-1
 _ZN8KWayland6Client22RelativePointerManager5setupEP31zwp_relative_pointer_manager_v1@Base 5.24.3-1
 _ZN8KWayland6Client22RelativePointerManager7destroyEv@Base 5.24.3-1
 _ZN8KWayland6Client22RelativePointerManager7releaseEv@Base 5.24.3-1
 _ZN8KWayland6Client22RelativePointerManager7removedEv@Base 5.24.3-1
 _ZN8KWayland6Client22RelativePointerManagerC1EP7QObject@Base 5.24.3-1
 _ZN8KWayland6Client22RelativePointerManagerC2EP7QObject@Base 5.24.3-1
 _ZN8KWayland6Client22RelativePointerManagerD0Ev@Base 5.24.3-1
 _ZN8KWayland6Client22RelativePointerManagerD1Ev@Base 5.24.3-1
 _ZN8KWayland6Client22RelativePointerManagerD2Ev@Base 5.24.3-1
 _ZN8KWayland6Client22RelativePointerManagercvP31zwp_relative_pointer_manager_v1Ev@Base 5.24.3-1
 _ZN8KWayland6Client24PlasmaActivationFeedback10activationEPNS0_16PlasmaActivationE@Base 5.24.3-1
 _ZN8KWayland6Client24PlasmaActivationFeedback10eventQueueEv@Base 5.24.3-1
 _ZN8KWayland6Client24PlasmaActivationFeedback11qt_metacallEN11QMetaObject4CallEiPPv@Base 5.24.3-1
 _ZN8KWayland6Client24PlasmaActivationFeedback11qt_metacastEPKc@Base 5.24.3-1
 _ZN8KWayland6Client24PlasmaActivationFeedback13setEventQueueEPNS0_10EventQueueE@Base 5.24.3-1
 _ZN8KWayland6Client24PlasmaActivationFeedback16staticMetaObjectE@Base 5.24.3-1
 _ZN8KWayland6Client24PlasmaActivationFeedback26interfaceAboutToBeReleasedEv@Base 5.24.3-1
 _ZN8KWayland6Client24PlasmaActivationFeedback27interfaceAboutToBeDestroyedEv@Base 5.24.3-1
 _ZN8KWayland6Client24PlasmaActivationFeedback5setupEP34org_kde_plasma_activation_feedback@Base 5.24.3-1
 _ZN8KWayland6Client24PlasmaActivationFeedback7destroyEv@Base 5.24.3-1
 _ZN8KWayland6Client24PlasmaActivationFeedback7releaseEv@Base 5.24.3-1
 _ZN8KWayland6Client24PlasmaActivationFeedback7removedEv@Base 5.24.3-1
 _ZN8KWayland6Client24PlasmaActivationFeedbackC1EP7QObject@Base 5.24.3-1
 _ZN8KWayland6Client24PlasmaActivationFeedbackC2EP7QObject@Base 5.24.3-1
 _ZN8KWayland6Client24PlasmaActivationFeedbackD0Ev@Base 5.24.3-1
 _ZN8KWayland6Client24PlasmaActivationFeedbackD1Ev@Base 5.24.3-1
 _ZN8KWayland6Client24PlasmaActivationFeedbackD2Ev@Base 5.24.3-1
 _ZN8KWayland6Client24PlasmaActivationFeedbackcvP34org_kde_plasma_activation_feedbackEv@Base 5.24.3-1
 _ZN8KWayland6Client27ServerSideDecorationManager10eventQueueEv@Base 5.24.3-1
 _ZN8KWayland6Client27ServerSideDecorationManager11qt_metacallEN11QMetaObject4CallEiPPv@Base 5.24.3-1
 _ZN8KWayland6Client27ServerSideDecorationManager11qt_metacastEPKc@Base 5.24.3-1
 _ZN8KWayland6Client27ServerSideDecorationManager13setEventQueueEPNS0_10EventQueueE@Base 5.24.3-1
 _ZN8KWayland6Client27ServerSideDecorationManager16staticMetaObjectE@Base 5.24.3-1
 _ZN8KWayland6Client27ServerSideDecorationManager5setupEP38org_kde_kwin_server_decoration_manager@Base 5.24.3-1
 _ZN8KWayland6Client27ServerSideDecorationManager6createEP10wl_surfaceP7QObject@Base 5.24.3-1
 _ZN8KWayland6Client27ServerSideDecorationManager6createEPNS0_7SurfaceEP7QObject@Base 5.24.3-1
 _ZN8KWayland6Client27ServerSideDecorationManager7destroyEv@Base 5.24.3-1
 _ZN8KWayland6Client27ServerSideDecorationManager7releaseEv@Base 5.24.3-1
 _ZN8KWayland6Client27ServerSideDecorationManager7removedEv@Base 5.24.3-1
 _ZN8KWayland6Client27ServerSideDecorationManagerC1EP7QObject@Base 5.24.3-1
 _ZN8KWayland6Client27ServerSideDecorationManagerC2EP7QObject@Base 5.24.3-1
 _ZN8KWayland6Client27ServerSideDecorationManagerD0Ev@Base 5.24.3-1
 _ZN8KWayland6Client27ServerSideDecorationManagerD1Ev@Base 5.24.3-1
 _ZN8KWayland6Client27ServerSideDecorationManagerD2Ev@Base 5.24.3-1
 _ZN8KWayland6Client27ServerSideDecorationManagercvP38org_kde_kwin_server_decoration_managerEv@Base 5.24.3-1
 _ZN8KWayland6Client27ServerSideDecorationPalette10setPaletteERK7QString@Base 5.24.3-1
 _ZN8KWayland6Client27ServerSideDecorationPalette11qt_metacallEN11QMetaObject4CallEiPPv@Base 5.24.3-1
 _ZN8KWayland6Client27ServerSideDecorationPalette11qt_metacastEPKc@Base 5.24.3-1
 _ZN8KWayland6Client27ServerSideDecorationPalette16staticMetaObjectE@Base 5.24.3-1
 _ZN8KWayland6Client27ServerSideDecorationPalette5setupEP38org_kde_kwin_server_decoration_palette@Base 5.24.3-1
 _ZN8KWayland6Client27ServerSideDecorationPalette7Private5setupEP38org_kde_kwin_server_decoration_palette@Base 5.24.3-1
 _ZN8KWayland6Client27ServerSideDecorationPalette7destroyEv@Base 5.24.3-1
 _ZN8KWayland6Client27ServerSideDecorationPalette7releaseEv@Base 5.24.3-1
 _ZN8KWayland6Client27ServerSideDecorationPaletteC1EP7QObject@Base 5.24.3-1
 _ZN8KWayland6Client27ServerSideDecorationPaletteC2EP7QObject@Base 5.24.3-1
 _ZN8KWayland6Client27ServerSideDecorationPaletteD0Ev@Base 5.24.3-1
 _ZN8KWayland6Client27ServerSideDecorationPaletteD1Ev@Base 5.24.3-1
 _ZN8KWayland6Client27ServerSideDecorationPaletteD2Ev@Base 5.24.3-1
 _ZN8KWayland6Client27ServerSideDecorationPalettecvP38org_kde_kwin_server_decoration_paletteEv@Base 5.24.3-1
 _ZN8KWayland6Client30PlasmaVirtualDesktopManagement10eventQueueEv@Base 5.24.3-1
 _ZN8KWayland6Client30PlasmaVirtualDesktopManagement11qt_metacallEN11QMetaObject4CallEiPPv@Base 5.24.3-1
 _ZN8KWayland6Client30PlasmaVirtualDesktopManagement11qt_metacastEPKc@Base 5.24.3-1
 _ZN8KWayland6Client30PlasmaVirtualDesktopManagement11rowsChangedEj@Base 5.24.3-1
 _ZN8KWayland6Client30PlasmaVirtualDesktopManagement13setEventQueueEPNS0_10EventQueueE@Base 5.24.3-1
 _ZN8KWayland6Client30PlasmaVirtualDesktopManagement14desktopCreatedERK7QStringj@Base 5.24.3-1
 _ZN8KWayland6Client30PlasmaVirtualDesktopManagement14desktopRemovedERK7QString@Base 5.24.3-1
 _ZN8KWayland6Client30PlasmaVirtualDesktopManagement16staticMetaObjectE@Base 5.24.3-1
 _ZN8KWayland6Client30PlasmaVirtualDesktopManagement17getVirtualDesktopERK7QString@Base 5.24.3-1
 _ZN8KWayland6Client30PlasmaVirtualDesktopManagement27requestCreateVirtualDesktopERK7QStringj@Base 5.24.3-1
 _ZN8KWayland6Client30PlasmaVirtualDesktopManagement27requestRemoveVirtualDesktopERK7QString@Base 5.24.3-1
 _ZN8KWayland6Client30PlasmaVirtualDesktopManagement4doneEv@Base 5.24.3-1
 _ZN8KWayland6Client30PlasmaVirtualDesktopManagement5setupEP41org_kde_plasma_virtual_desktop_management@Base 5.24.3-1
 _ZN8KWayland6Client30PlasmaVirtualDesktopManagement7destroyEv@Base 5.24.3-1
 _ZN8KWayland6Client30PlasmaVirtualDesktopManagement7releaseEv@Base 5.24.3-1
 _ZN8KWayland6Client30PlasmaVirtualDesktopManagement7removedEv@Base 5.24.3-1
 _ZN8KWayland6Client30PlasmaVirtualDesktopManagementC1EP7QObject@Base 5.24.3-1
 _ZN8KWayland6Client30PlasmaVirtualDesktopManagementC2EP7QObject@Base 5.24.3-1
 _ZN8KWayland6Client30PlasmaVirtualDesktopManagementD0Ev@Base 5.24.3-1
 _ZN8KWayland6Client30PlasmaVirtualDesktopManagementD1Ev@Base 5.24.3-1
 _ZN8KWayland6Client30PlasmaVirtualDesktopManagementD2Ev@Base 5.24.3-1
 _ZN8KWayland6Client30PlasmaVirtualDesktopManagementcvP41org_kde_plasma_virtual_desktop_managementEv@Base 5.24.3-1
 _ZN8KWayland6Client34ServerSideDecorationPaletteManager10eventQueueEv@Base 5.24.3-1
 _ZN8KWayland6Client34ServerSideDecorationPaletteManager11qt_metacallEN11QMetaObject4CallEiPPv@Base 5.24.3-1
 _ZN8KWayland6Client34ServerSideDecorationPaletteManager11qt_metacastEPKc@Base 5.24.3-1
 _ZN8KWayland6Client34ServerSideDecorationPaletteManager13setEventQueueEPNS0_10EventQueueE@Base 5.24.3-1
 _ZN8KWayland6Client34ServerSideDecorationPaletteManager16staticMetaObjectE@Base 5.24.3-1
 _ZN8KWayland6Client34ServerSideDecorationPaletteManager5setupEP46org_kde_kwin_server_decoration_palette_manager@Base 5.24.3-1
 _ZN8KWayland6Client34ServerSideDecorationPaletteManager6createEPNS0_7SurfaceEP7QObject@Base 5.24.3-1
 _ZN8KWayland6Client34ServerSideDecorationPaletteManager7Private5setupEP46org_kde_kwin_server_decoration_palette_manager@Base 5.24.3-1
 _ZN8KWayland6Client34ServerSideDecorationPaletteManager7destroyEv@Base 5.24.3-1
 _ZN8KWayland6Client34ServerSideDecorationPaletteManager7releaseEv@Base 5.24.3-1
 _ZN8KWayland6Client34ServerSideDecorationPaletteManager7removedEv@Base 5.24.3-1
 _ZN8KWayland6Client34ServerSideDecorationPaletteManagerC1EP7QObject@Base 5.24.3-1
 _ZN8KWayland6Client34ServerSideDecorationPaletteManagerC2EP7QObject@Base 5.24.3-1
 _ZN8KWayland6Client34ServerSideDecorationPaletteManagerD0Ev@Base 5.24.3-1
 _ZN8KWayland6Client34ServerSideDecorationPaletteManagerD1Ev@Base 5.24.3-1
 _ZN8KWayland6Client34ServerSideDecorationPaletteManagerD2Ev@Base 5.24.3-1
 _ZN8KWayland6Client34ServerSideDecorationPaletteManagercvP46org_kde_kwin_server_decoration_palette_managerEv@Base 5.24.3-1
 _ZN8KWayland6Client4Blur11qt_metacallEN11QMetaObject4CallEiPPv@Base 5.24.3-1
 _ZN8KWayland6Client4Blur11qt_metacastEPKc@Base 5.24.3-1
 _ZN8KWayland6Client4Blur16staticMetaObjectE@Base 5.24.3-1
 _ZN8KWayland6Client4Blur5setupEP17org_kde_kwin_blur@Base 5.24.3-1
 _ZN8KWayland6Client4Blur6commitEv@Base 5.24.3-1
 _ZN8KWayland6Client4Blur7destroyEv@Base 5.24.3-1
 _ZN8KWayland6Client4Blur7releaseEv@Base 5.24.3-1
 _ZN8KWayland6Client4Blur9setRegionEPNS0_6RegionE@Base 5.24.3-1
 _ZN8KWayland6Client4BlurC1EP7QObject@Base 5.24.3-1
 _ZN8KWayland6Client4BlurC2EP7QObject@Base 5.24.3-1
 _ZN8KWayland6Client4BlurD0Ev@Base 5.24.3-1
 _ZN8KWayland6Client4BlurD1Ev@Base 5.24.3-1
 _ZN8KWayland6Client4BlurD2Ev@Base 5.24.3-1
 _ZN8KWayland6Client4BlurcvP17org_kde_kwin_blurEv@Base 5.24.3-1
 _ZN8KWayland6Client4Dpms11modeChangedEv@Base 5.24.3-1
 _ZN8KWayland6Client4Dpms11qt_metacallEN11QMetaObject4CallEiPPv@Base 5.24.3-1
 _ZN8KWayland6Client4Dpms11qt_metacastEPKc@Base 5.24.3-1
 _ZN8KWayland6Client4Dpms11requestModeENS1_4ModeE@Base 5.24.3-1
 _ZN8KWayland6Client4Dpms16staticMetaObjectE@Base 5.24.3-1
 _ZN8KWayland6Client4Dpms16supportedChangedEv@Base 5.24.3-1
 _ZN8KWayland6Client4Dpms5setupEP17org_kde_kwin_dpms@Base 5.24.3-1
 _ZN8KWayland6Client4Dpms7destroyEv@Base 5.24.3-1
 _ZN8KWayland6Client4Dpms7releaseEv@Base 5.24.3-1
 _ZN8KWayland6Client4DpmsC1ERK8QPointerINS0_6OutputEEP7QObject@Base 5.24.3-1
 _ZN8KWayland6Client4DpmsC2ERK8QPointerINS0_6OutputEEP7QObject@Base 5.24.3-1
 _ZN8KWayland6Client4DpmsD0Ev@Base 5.24.3-1
 _ZN8KWayland6Client4DpmsD1Ev@Base 5.24.3-1
 _ZN8KWayland6Client4DpmsD2Ev@Base 5.24.3-1
 _ZN8KWayland6Client4DpmscvP17org_kde_kwin_dpmsEv@Base 5.24.3-1
 _ZN8KWayland6Client4Idle10eventQueueEv@Base 5.24.3-1
 _ZN8KWayland6Client4Idle10getTimeoutEjPNS0_4SeatEP7QObject@Base 5.24.3-1
 _ZN8KWayland6Client4Idle11qt_metacallEN11QMetaObject4CallEiPPv@Base 5.24.3-1
 _ZN8KWayland6Client4Idle11qt_metacastEPKc@Base 5.24.3-1
 _ZN8KWayland6Client4Idle13setEventQueueEPNS0_10EventQueueE@Base 5.24.3-1
 _ZN8KWayland6Client4Idle16staticMetaObjectE@Base 5.24.3-1
 _ZN8KWayland6Client4Idle5setupEP17org_kde_kwin_idle@Base 5.24.3-1
 _ZN8KWayland6Client4Idle7destroyEv@Base 5.24.3-1
 _ZN8KWayland6Client4Idle7releaseEv@Base 5.24.3-1
 _ZN8KWayland6Client4Idle7removedEv@Base 5.24.3-1
 _ZN8KWayland6Client4IdleC1EP7QObject@Base 5.24.3-1
 _ZN8KWayland6Client4IdleC2EP7QObject@Base 5.24.3-1
 _ZN8KWayland6Client4IdleD0Ev@Base 5.24.3-1
 _ZN8KWayland6Client4IdleD1Ev@Base 5.24.3-1
 _ZN8KWayland6Client4IdleD2Ev@Base 5.24.3-1
 _ZN8KWayland6Client4IdlecvP17org_kde_kwin_idleEv@Base 5.24.3-1
 _ZN8KWayland6Client4Seat10eventQueueEv@Base 5.24.3-1
 _ZN8KWayland6Client4Seat11createTouchEP7QObject@Base 5.24.3-1
 _ZN8KWayland6Client4Seat11nameChangedERK7QString@Base 5.24.3-1
 _ZN8KWayland6Client4Seat11qt_metacallEN11QMetaObject4CallEiPPv@Base 5.24.3-1
 _ZN8KWayland6Client4Seat11qt_metacastEPKc@Base 5.24.3-1
 _ZN8KWayland6Client4Seat13createPointerEP7QObject@Base 5.24.3-1
 _ZN8KWayland6Client4Seat13setEventQueueEPNS0_10EventQueueE@Base 5.24.3-1
 _ZN8KWayland6Client4Seat14createKeyboardEP7QObject@Base 5.24.3-1
 _ZN8KWayland6Client4Seat15hasTouchChangedEb@Base 5.24.3-1
 _ZN8KWayland6Client4Seat16staticMetaObjectE@Base 5.24.3-1
 _ZN8KWayland6Client4Seat17hasPointerChangedEb@Base 5.24.3-1
 _ZN8KWayland6Client4Seat18hasKeyboardChangedEb@Base 5.24.3-1
 _ZN8KWayland6Client4Seat26interfaceAboutToBeReleasedEv@Base 5.24.3-1
 _ZN8KWayland6Client4Seat27interfaceAboutToBeDestroyedEv@Base 5.24.3-1
 _ZN8KWayland6Client4Seat5setupEP7wl_seat@Base 5.24.3-1
 _ZN8KWayland6Client4Seat7destroyEv@Base 5.24.3-1
 _ZN8KWayland6Client4Seat7releaseEv@Base 5.24.3-1
 _ZN8KWayland6Client4Seat7removedEv@Base 5.24.3-1
 _ZN8KWayland6Client4SeatC1EP7QObject@Base 5.24.3-1
 _ZN8KWayland6Client4SeatC2EP7QObject@Base 5.24.3-1
 _ZN8KWayland6Client4SeatD0Ev@Base 5.24.3-1
 _ZN8KWayland6Client4SeatD1Ev@Base 5.24.3-1
 _ZN8KWayland6Client4SeatD2Ev@Base 5.24.3-1
 _ZN8KWayland6Client4SeatcvP7wl_seatEv@Base 5.24.3-1
 _ZN8KWayland6Client5Shell10eventQueueEv@Base 5.24.3-1
 _ZN8KWayland6Client5Shell11qt_metacallEN11QMetaObject4CallEiPPv@Base 5.24.3-1
 _ZN8KWayland6Client5Shell11qt_metacastEPKc@Base 5.24.3-1
 _ZN8KWayland6Client5Shell13createSurfaceEP10wl_surfaceP7QObject@Base 5.24.3-1
 _ZN8KWayland6Client5Shell13createSurfaceEPNS0_7SurfaceEP7QObject@Base 5.24.3-1
 _ZN8KWayland6Client5Shell13setEventQueueEPNS0_10EventQueueE@Base 5.24.3-1
 _ZN8KWayland6Client5Shell16staticMetaObjectE@Base 5.24.3-1
 _ZN8KWayland6Client5Shell26interfaceAboutToBeReleasedEv@Base 5.24.3-1
 _ZN8KWayland6Client5Shell27interfaceAboutToBeDestroyedEv@Base 5.24.3-1
 _ZN8KWayland6Client5Shell5setupEP8wl_shell@Base 5.24.3-1
 _ZN8KWayland6Client5Shell7destroyEv@Base 5.24.3-1
 _ZN8KWayland6Client5Shell7releaseEv@Base 5.24.3-1
 _ZN8KWayland6Client5Shell7removedEv@Base 5.24.3-1
 _ZN8KWayland6Client5ShellC1EP7QObject@Base 5.24.3-1
 _ZN8KWayland6Client5ShellC2EP7QObject@Base 5.24.3-1
 _ZN8KWayland6Client5ShellD0Ev@Base 5.24.3-1
 _ZN8KWayland6Client5ShellD1Ev@Base 5.24.3-1
 _ZN8KWayland6Client5ShellD2Ev@Base 5.24.3-1
 _ZN8KWayland6Client5ShellcvP8wl_shellEv@Base 5.24.3-1
 _ZN8KWayland6Client5Slide11qt_metacallEN11QMetaObject4CallEiPPv@Base 5.24.3-1
 _ZN8KWayland6Client5Slide11qt_metacastEPKc@Base 5.24.3-1
 _ZN8KWayland6Client5Slide11setLocationENS1_8LocationE@Base 5.24.3-1
 _ZN8KWayland6Client5Slide16staticMetaObjectE@Base 5.24.3-1
 _ZN8KWayland6Client5Slide5setupEP18org_kde_kwin_slide@Base 5.24.3-1
 _ZN8KWayland6Client5Slide6commitEv@Base 5.24.3-1
 _ZN8KWayland6Client5Slide7destroyEv@Base 5.24.3-1
 _ZN8KWayland6Client5Slide7releaseEv@Base 5.24.3-1
 _ZN8KWayland6Client5Slide9setOffsetEi@Base 5.24.3-1
 _ZN8KWayland6Client5SlideC1EP7QObject@Base 5.24.3-1
 _ZN8KWayland6Client5SlideC2EP7QObject@Base 5.24.3-1
 _ZN8KWayland6Client5SlideD0Ev@Base 5.24.3-1
 _ZN8KWayland6Client5SlideD1Ev@Base 5.24.3-1
 _ZN8KWayland6Client5SlideD2Ev@Base 5.24.3-1
 _ZN8KWayland6Client5SlidecvP18org_kde_kwin_slideEv@Base 5.24.3-1
 _ZN8KWayland6Client5Strut10eventQueueEv@Base 5.24.3-1
 _ZN8KWayland6Client5Strut11qt_metacallEN11QMetaObject4CallEiPPv@Base 5.24.3-1
 _ZN8KWayland6Client5Strut11qt_metacastEPKc@Base 5.24.3-1
 _ZN8KWayland6Client5Strut13setEventQueueEPNS0_10EventQueueE@Base 5.24.3-1
 _ZN8KWayland6Client5Strut15setStrutPartialEP10wl_surfaceRNS0_15deepinKwinStrutE@Base 5.24.3-1
 _ZN8KWayland6Client5Strut16staticMetaObjectE@Base 5.24.3-1
 _ZN8KWayland6Client5Strut26interfaceAboutToBeReleasedEv@Base 5.24.3-1
 _ZN8KWayland6Client5Strut27interfaceAboutToBeDestroyedEv@Base 5.24.3-1
 _ZN8KWayland6Client5Strut5setupEP21com_deepin_kwin_strut@Base 5.24.3-1
 _ZN8KWayland6Client5Strut7destroyEv@Base 5.24.3-1
 _ZN8KWayland6Client5Strut7releaseEv@Base 5.24.3-1
 _ZN8KWayland6Client5Strut7removedEv@Base 5.24.3-1
 _ZN8KWayland6Client5StrutC1EP7QObject@Base 5.24.3-1
 _ZN8KWayland6Client5StrutC2EP7QObject@Base 5.24.3-1
 _ZN8KWayland6Client5StrutD0Ev@Base 5.24.3-1
 _ZN8KWayland6Client5StrutD1Ev@Base 5.24.3-1
 _ZN8KWayland6Client5StrutD2Ev@Base 5.24.3-1
 _ZN8KWayland6Client5StrutcvP21com_deepin_kwin_strutEv@Base 5.24.3-1
 _ZN8KWayland6Client5Touch10frameEndedEv@Base 5.24.3-1
 _ZN8KWayland6Client5Touch10pointAddedEPNS0_10TouchPointE@Base 5.24.3-1
 _ZN8KWayland6Client5Touch10pointMovedEPNS0_10TouchPointE@Base 5.24.3-1
 _ZN8KWayland6Client5Touch11qt_metacallEN11QMetaObject4CallEiPPv@Base 5.24.3-1
 _ZN8KWayland6Client5Touch11qt_metacastEPKc@Base 5.24.3-1
 _ZN8KWayland6Client5Touch12pointRemovedEPNS0_10TouchPointE@Base 5.24.3-1
 _ZN8KWayland6Client5Touch13sequenceEndedEv@Base 5.24.3-1
 _ZN8KWayland6Client5Touch15sequenceStartedEPNS0_10TouchPointE@Base 5.24.3-1
 _ZN8KWayland6Client5Touch16sequenceCanceledEv@Base 5.24.3-1
 _ZN8KWayland6Client5Touch16staticMetaObjectE@Base 5.24.3-1
 _ZN8KWayland6Client5Touch5setupEP8wl_touch@Base 5.24.3-1
 _ZN8KWayland6Client5Touch7destroyEv@Base 5.24.3-1
 _ZN8KWayland6Client5Touch7releaseEv@Base 5.24.3-1
 _ZN8KWayland6Client5TouchC1EP7QObject@Base 5.24.3-1
 _ZN8KWayland6Client5TouchC2EP7QObject@Base 5.24.3-1
 _ZN8KWayland6Client5TouchD0Ev@Base 5.24.3-1
 _ZN8KWayland6Client5TouchD1Ev@Base 5.24.3-1
 _ZN8KWayland6Client5TouchD2Ev@Base 5.24.3-1
 _ZN8KWayland6Client5TouchcvP8wl_touchEv@Base 5.24.3-1
 _ZN8KWayland6Client6Buffer11setReleasedEb@Base 5.24.3-1
 _ZN8KWayland6Client6Buffer4copyEPKv@Base 5.24.3-1
 _ZN8KWayland6Client6Buffer5getIdEP9wl_buffer@Base 5.24.3-1
 _ZN8KWayland6Client6Buffer7addressEv@Base 5.24.3-1
 _ZN8KWayland6Client6Buffer7setUsedEb@Base 5.24.3-1
 _ZN8KWayland6Client6BufferC1EPNS0_7ShmPoolEP9wl_bufferRK5QSizeimNS1_6FormatE@Base 5.24.3-1
 _ZN8KWayland6Client6BufferC2EPNS0_7ShmPoolEP9wl_bufferRK5QSizeimNS1_6FormatE@Base 5.24.3-1
 _ZN8KWayland6Client6BufferD1Ev@Base 5.24.3-1
 _ZN8KWayland6Client6BufferD2Ev@Base 5.24.3-1
 _ZN8KWayland6Client6BuffercvP9wl_bufferEv@Base 5.24.3-1
 _ZN8KWayland6Client6Output11modeChangedERKNS1_4ModeE@Base 5.24.3-1
 _ZN8KWayland6Client6Output11qt_metacallEN11QMetaObject4CallEiPPv@Base 5.24.3-1
 _ZN8KWayland6Client6Output11qt_metacastEPKc@Base 5.24.3-1
 _ZN8KWayland6Client6Output13setEventQueueEPNS0_10EventQueueE@Base 5.24.3-1
 _ZN8KWayland6Client6Output16staticMetaObjectE@Base 5.24.3-1
 _ZN8KWayland6Client6Output3getEP9wl_output@Base 5.24.3-1
 _ZN8KWayland6Client6Output5setupEP9wl_output@Base 5.24.3-1
 _ZN8KWayland6Client6Output6outputEv@Base 5.24.3-1
 _ZN8KWayland6Client6Output7changedEv@Base 5.24.3-1
 _ZN8KWayland6Client6Output7destroyEv@Base 5.24.3-1
 _ZN8KWayland6Client6Output7removedEv@Base 5.24.3-1
 _ZN8KWayland6Client6Output9modeAddedERKNS1_4ModeE@Base 5.24.3-1
 _ZN8KWayland6Client6OutputC1EP7QObject@Base 5.24.3-1
 _ZN8KWayland6Client6OutputC2EP7QObject@Base 5.24.3-1
 _ZN8KWayland6Client6OutputD0Ev@Base 5.24.3-1
 _ZN8KWayland6Client6OutputD1Ev@Base 5.24.3-1
 _ZN8KWayland6Client6OutputD2Ev@Base 5.24.3-1
 _ZN8KWayland6Client6OutputcvP9wl_outputEv@Base 5.24.3-1
 _ZN8KWayland6Client6Region11qt_metacallEN11QMetaObject4CallEiPPv@Base 5.24.3-1
 _ZN8KWayland6Client6Region11qt_metacastEPKc@Base 5.24.3-1
 _ZN8KWayland6Client6Region16staticMetaObjectE@Base 5.24.3-1
 _ZN8KWayland6Client6Region3addERK5QRect@Base 5.24.3-1
 _ZN8KWayland6Client6Region3addERK7QRegion@Base 5.24.3-1
 _ZN8KWayland6Client6Region5setupEP9wl_region@Base 5.24.3-1
 _ZN8KWayland6Client6Region7destroyEv@Base 5.24.3-1
 _ZN8KWayland6Client6Region7releaseEv@Base 5.24.3-1
 _ZN8KWayland6Client6Region8subtractERK5QRect@Base 5.24.3-1
 _ZN8KWayland6Client6Region8subtractERK7QRegion@Base 5.24.3-1
 _ZN8KWayland6Client6RegionC1ERK7QRegionP7QObject@Base 5.24.3-1
 _ZN8KWayland6Client6RegionC2ERK7QRegionP7QObject@Base 5.24.3-1
 _ZN8KWayland6Client6RegionD0Ev@Base 5.24.3-1
 _ZN8KWayland6Client6RegionD1Ev@Base 5.24.3-1
 _ZN8KWayland6Client6RegionD2Ev@Base 5.24.3-1
 _ZN8KWayland6Client6RegioncvP9wl_regionEv@Base 5.24.3-1
 _ZN8KWayland6Client6Shadow10attachLeftE12QWeakPointerINS0_6BufferEE@Base 5.24.3-1
 _ZN8KWayland6Client6Shadow10attachLeftEP9wl_buffer@Base 5.24.3-1
 _ZN8KWayland6Client6Shadow10attachLeftEPNS0_6BufferE@Base 5.24.3-1
 _ZN8KWayland6Client6Shadow10setOffsetsERK9QMarginsF@Base 5.24.3-1
 _ZN8KWayland6Client6Shadow11attachRightE12QWeakPointerINS0_6BufferEE@Base 5.24.3-1
 _ZN8KWayland6Client6Shadow11attachRightEP9wl_buffer@Base 5.24.3-1
 _ZN8KWayland6Client6Shadow11attachRightEPNS0_6BufferE@Base 5.24.3-1
 _ZN8KWayland6Client6Shadow11qt_metacallEN11QMetaObject4CallEiPPv@Base 5.24.3-1
 _ZN8KWayland6Client6Shadow11qt_metacastEPKc@Base 5.24.3-1
 _ZN8KWayland6Client6Shadow12attachBottomE12QWeakPointerINS0_6BufferEE@Base 5.24.3-1
 _ZN8KWayland6Client6Shadow12attachBottomEP9wl_buffer@Base 5.24.3-1
 _ZN8KWayland6Client6Shadow12attachBottomEPNS0_6BufferE@Base 5.24.3-1
 _ZN8KWayland6Client6Shadow13attachTopLeftE12QWeakPointerINS0_6BufferEE@Base 5.24.3-1
 _ZN8KWayland6Client6Shadow13attachTopLeftEP9wl_buffer@Base 5.24.3-1
 _ZN8KWayland6Client6Shadow13attachTopLeftEPNS0_6BufferE@Base 5.24.3-1
 _ZN8KWayland6Client6Shadow14attachTopRightE12QWeakPointerINS0_6BufferEE@Base 5.24.3-1
 _ZN8KWayland6Client6Shadow14attachTopRightEP9wl_buffer@Base 5.24.3-1
 _ZN8KWayland6Client6Shadow14attachTopRightEPNS0_6BufferE@Base 5.24.3-1
 _ZN8KWayland6Client6Shadow16attachBottomLeftE12QWeakPointerINS0_6BufferEE@Base 5.24.3-1
 _ZN8KWayland6Client6Shadow16attachBottomLeftEP9wl_buffer@Base 5.24.3-1
 _ZN8KWayland6Client6Shadow16attachBottomLeftEPNS0_6BufferE@Base 5.24.3-1
 _ZN8KWayland6Client6Shadow16staticMetaObjectE@Base 5.24.3-1
 _ZN8KWayland6Client6Shadow17attachBottomRightE12QWeakPointerINS0_6BufferEE@Base 5.24.3-1
 _ZN8KWayland6Client6Shadow17attachBottomRightEP9wl_buffer@Base 5.24.3-1
 _ZN8KWayland6Client6Shadow17attachBottomRightEPNS0_6BufferE@Base 5.24.3-1
 _ZN8KWayland6Client6Shadow5setupEP19org_kde_kwin_shadow@Base 5.24.3-1
 _ZN8KWayland6Client6Shadow6commitEv@Base 5.24.3-1
 _ZN8KWayland6Client6Shadow7destroyEv@Base 5.24.3-1
 _ZN8KWayland6Client6Shadow7releaseEv@Base 5.24.3-1
 _ZN8KWayland6Client6Shadow9attachTopE12QWeakPointerINS0_6BufferEE@Base 5.24.3-1
 _ZN8KWayland6Client6Shadow9attachTopEP9wl_buffer@Base 5.24.3-1
 _ZN8KWayland6Client6Shadow9attachTopEPNS0_6BufferE@Base 5.24.3-1
 _ZN8KWayland6Client6ShadowC1EP7QObject@Base 5.24.3-1
 _ZN8KWayland6Client6ShadowC2EP7QObject@Base 5.24.3-1
 _ZN8KWayland6Client6ShadowD0Ev@Base 5.24.3-1
 _ZN8KWayland6Client6ShadowD1Ev@Base 5.24.3-1
 _ZN8KWayland6Client6ShadowD2Ev@Base 5.24.3-1
 _ZN8KWayland6Client6ShadowcvP19org_kde_kwin_shadowEv@Base 5.24.3-1
 _ZN8KWayland6Client7AppMenu10setAddressERK7QStringS4_@Base 5.24.3-1
 _ZN8KWayland6Client7AppMenu11qt_metacallEN11QMetaObject4CallEiPPv@Base 5.24.3-1
 _ZN8KWayland6Client7AppMenu11qt_metacastEPKc@Base 5.24.3-1
 _ZN8KWayland6Client7AppMenu16staticMetaObjectE@Base 5.24.3-1
 _ZN8KWayland6Client7AppMenu5setupEP20org_kde_kwin_appmenu@Base 5.24.3-1
 _ZN8KWayland6Client7AppMenu7Private5setupEP20org_kde_kwin_appmenu@Base 5.24.3-1
 _ZN8KWayland6Client7AppMenu7destroyEv@Base 5.24.3-1
 _ZN8KWayland6Client7AppMenu7releaseEv@Base 5.24.3-1
 _ZN8KWayland6Client7AppMenuC1EP7QObject@Base 5.24.3-1
 _ZN8KWayland6Client7AppMenuC2EP7QObject@Base 5.24.3-1
 _ZN8KWayland6Client7AppMenuD0Ev@Base 5.24.3-1
 _ZN8KWayland6Client7AppMenuD1Ev@Base 5.24.3-1
 _ZN8KWayland6Client7AppMenuD2Ev@Base 5.24.3-1
 _ZN8KWayland6Client7AppMenucvP20org_kde_kwin_appmenuEv@Base 5.24.3-1
 _ZN8KWayland6Client7DDESeat11qt_metacallEN11QMetaObject4CallEiPPv@Base 5.24.3-1
 _ZN8KWayland6Client7DDESeat11qt_metacastEPKc@Base 5.24.3-1
 _ZN8KWayland6Client7DDESeat13setEventQueueEPNS0_10EventQueueE@Base 5.24.3-1
 _ZN8KWayland6Client7DDESeat14createDDETouchEP7QObject@Base 5.24.3-1
 _ZN8KWayland6Client7DDESeat16createDDePointerEP7QObject@Base 5.24.3-1
 _ZN8KWayland6Client7DDESeat16staticMetaObjectE@Base 5.24.3-1
 _ZN8KWayland6Client7DDESeat17createDDEKeyboardEP7QObject@Base 5.24.3-1
 _ZN8KWayland6Client7DDESeat26interfaceAboutToBeReleasedEv@Base 5.24.3-1
 _ZN8KWayland6Client7DDESeat27interfaceAboutToBeDestroyedEv@Base 5.24.3-1
 _ZN8KWayland6Client7DDESeat5setupEP8dde_seat@Base 5.24.3-1
 _ZN8KWayland6Client7DDESeat7destroyEv@Base 5.24.3-1
 _ZN8KWayland6Client7DDESeat7releaseEv@Base 5.24.3-1
 _ZN8KWayland6Client7DDESeat7removedEv@Base 5.24.3-1
 _ZN8KWayland6Client7DDESeatC1EP7QObject@Base 5.24.3-1
 _ZN8KWayland6Client7DDESeatC2EP7QObject@Base 5.24.3-1
 _ZN8KWayland6Client7DDESeatD0Ev@Base 5.24.3-1
 _ZN8KWayland6Client7DDESeatD1Ev@Base 5.24.3-1
 _ZN8KWayland6Client7DDESeatD2Ev@Base 5.24.3-1
 _ZN8KWayland6Client7DDESeatcvP8dde_seatEv@Base 5.24.3-1
 _ZN8KWayland6Client7Pointer10hideCursorEv@Base 5.24.3-1
 _ZN8KWayland6Client7Pointer11axisChangedEjNS1_4AxisEd@Base 5.24.3-1
 _ZN8KWayland6Client7Pointer11axisStoppedEjNS1_4AxisE@Base 5.24.3-1
 _ZN8KWayland6Client7Pointer11qt_metacallEN11QMetaObject4CallEiPPv@Base 5.24.3-1
 _ZN8KWayland6Client7Pointer11qt_metacastEPKc@Base 5.24.3-1
 _ZN8KWayland6Client7Pointer14enteredSurfaceEv@Base 5.24.3-1
 _ZN8KWayland6Client7Pointer16staticMetaObjectE@Base 5.24.3-1
 _ZN8KWayland6Client7Pointer17axisSourceChangedENS1_10AxisSourceE@Base 5.24.3-1
 _ZN8KWayland6Client7Pointer18buttonStateChangedEjjjNS1_11ButtonStateE@Base 5.24.3-1
 _ZN8KWayland6Client7Pointer19axisDiscreteChangedENS1_4AxisEi@Base 5.24.3-1
 _ZN8KWayland6Client7Pointer4leftEj@Base 5.24.3-1
 _ZN8KWayland6Client7Pointer5frameEv@Base 5.24.3-1
 _ZN8KWayland6Client7Pointer5setupEP10wl_pointer@Base 5.24.3-1
 _ZN8KWayland6Client7Pointer6motionERK7QPointFj@Base 5.24.3-1
 _ZN8KWayland6Client7Pointer7destroyEv@Base 5.24.3-1
 _ZN8KWayland6Client7Pointer7enteredEjRK7QPointF@Base 5.24.3-1
 _ZN8KWayland6Client7Pointer7releaseEv@Base 5.24.3-1
 _ZN8KWayland6Client7Pointer9setCursorEPNS0_7SurfaceERK6QPoint@Base 5.24.3-1
 _ZN8KWayland6Client7PointerC1EP7QObject@Base 5.24.3-1
 _ZN8KWayland6Client7PointerC2EP7QObject@Base 5.24.3-1
 _ZN8KWayland6Client7PointerD0Ev@Base 5.24.3-1
 _ZN8KWayland6Client7PointerD1Ev@Base 5.24.3-1
 _ZN8KWayland6Client7PointerD2Ev@Base 5.24.3-1
 _ZN8KWayland6Client7PointercvP10wl_pointerEv@Base 5.24.3-1
 _ZN8KWayland6Client7ShmPool10eventQueueEv@Base 5.24.3-1
 _ZN8KWayland6Client7ShmPool11poolResizedEv@Base 5.24.3-1
 _ZN8KWayland6Client7ShmPool11qt_metacallEN11QMetaObject4CallEiPPv@Base 5.24.3-1
 _ZN8KWayland6Client7ShmPool11qt_metacastEPKc@Base 5.24.3-1
 _ZN8KWayland6Client7ShmPool12createBufferERK5QSizeiPKvNS0_6Buffer6FormatE@Base 5.24.3-1
 _ZN8KWayland6Client7ShmPool12createBufferERK6QImage@Base 5.24.3-1
 _ZN8KWayland6Client7ShmPool13setEventQueueEPNS0_10EventQueueE@Base 5.24.3-1
 _ZN8KWayland6Client7ShmPool16staticMetaObjectE@Base 5.24.3-1
 _ZN8KWayland6Client7ShmPool3shmEv@Base 5.24.3-1
 _ZN8KWayland6Client7ShmPool5setupEP6wl_shm@Base 5.24.3-1
 _ZN8KWayland6Client7ShmPool7destroyEv@Base 5.24.3-1
 _ZN8KWayland6Client7ShmPool7releaseEv@Base 5.24.3-1
 _ZN8KWayland6Client7ShmPool7removedEv@Base 5.24.3-1
 _ZN8KWayland6Client7ShmPool9getBufferERK5QSizeiNS0_6Buffer6FormatE@Base 5.24.3-1
 _ZN8KWayland6Client7ShmPoolC1EP7QObject@Base 5.24.3-1
 _ZN8KWayland6Client7ShmPoolC2EP7QObject@Base 5.24.3-1
 _ZN8KWayland6Client7ShmPoolD0Ev@Base 5.24.3-1
 _ZN8KWayland6Client7ShmPoolD1Ev@Base 5.24.3-1
 _ZN8KWayland6Client7ShmPoolD2Ev@Base 5.24.3-1
 _ZN8KWayland6Client7Surface10fromWindowEP7QWindow@Base 5.24.3-1
 _ZN8KWayland6Client7Surface10outputLeftEPNS0_6OutputE@Base 5.24.3-1
 _ZN8KWayland6Client7Surface11fromQtWinIdEy@Base 5.24.3-1
 _ZN8KWayland6Client7Surface11qt_metacallEN11QMetaObject4CallEiPPv@Base 5.24.3-1
 _ZN8KWayland6Client7Surface11qt_metacastEPKc@Base 5.24.3-1
 _ZN8KWayland6Client7Surface11sizeChangedERK5QSize@Base 5.24.3-1
 _ZN8KWayland6Client7Surface12attachBufferE12QWeakPointerINS0_6BufferEERK6QPoint@Base 5.24.3-1
 _ZN8KWayland6Client7Surface12attachBufferEP9wl_bufferRK6QPoint@Base 5.24.3-1
 _ZN8KWayland6Client7Surface12attachBufferEPNS0_6BufferERK6QPoint@Base 5.24.3-1
 _ZN8KWayland6Client7Surface12damageBufferERK5QRect@Base 5.24.3-1
 _ZN8KWayland6Client7Surface12damageBufferERK7QRegion@Base 5.24.3-1
 _ZN8KWayland6Client7Surface13frameRenderedEv@Base 5.24.3-1
 _ZN8KWayland6Client7Surface13outputEnteredEPNS0_6OutputE@Base 5.24.3-1
 _ZN8KWayland6Client7Surface14setInputRegionEPKNS0_6RegionE@Base 5.24.3-1
 _ZN8KWayland6Client7Surface15setOpaqueRegionEPKNS0_6RegionE@Base 5.24.3-1
 _ZN8KWayland6Client7Surface16staticMetaObjectE@Base 5.24.3-1
 _ZN8KWayland6Client7Surface18setupFrameCallbackEv@Base 5.24.3-1
 _ZN8KWayland6Client7Surface3allEv@Base 5.24.3-1
 _ZN8KWayland6Client7Surface3getEP10wl_surface@Base 5.24.3-1
 _ZN8KWayland6Client7Surface5setupEP10wl_surface@Base 5.24.3-1
 _ZN8KWayland6Client7Surface6commitENS1_10CommitFlagE@Base 5.24.3-1
 _ZN8KWayland6Client7Surface6damageERK5QRect@Base 5.24.3-1
 _ZN8KWayland6Client7Surface6damageERK7QRegion@Base 5.24.3-1
 _ZN8KWayland6Client7Surface7destroyEv@Base 5.24.3-1
 _ZN8KWayland6Client7Surface7releaseEv@Base 5.24.3-1
 _ZN8KWayland6Client7Surface7setSizeERK5QSize@Base 5.24.3-1
 _ZN8KWayland6Client7Surface8setScaleEi@Base 5.24.3-1
 _ZN8KWayland6Client7SurfaceC1EP7QObject@Base 5.24.3-1
 _ZN8KWayland6Client7SurfaceC2EP7QObject@Base 5.24.3-1
 _ZN8KWayland6Client7SurfaceD0Ev@Base 5.24.3-1
 _ZN8KWayland6Client7SurfaceD1Ev@Base 5.24.3-1
 _ZN8KWayland6Client7SurfaceD2Ev@Base 5.24.3-1
 _ZN8KWayland6Client7SurfacecvP10wl_surfaceEv@Base 5.24.3-1
 _ZN8KWayland6Client8Contrast11qt_metacallEN11QMetaObject4CallEiPPv@Base 5.24.3-1
 _ZN8KWayland6Client8Contrast11qt_metacastEPKc@Base 5.24.3-1
 _ZN8KWayland6Client8Contrast11setContrastEd@Base 5.24.3-1
 _ZN8KWayland6Client8Contrast12setIntensityEd@Base 5.24.3-1
 _ZN8KWayland6Client8Contrast13setSaturationEd@Base 5.24.3-1
 _ZN8KWayland6Client8Contrast16staticMetaObjectE@Base 5.24.3-1
 _ZN8KWayland6Client8Contrast5setupEP21org_kde_kwin_contrast@Base 5.24.3-1
 _ZN8KWayland6Client8Contrast6commitEv@Base 5.24.3-1
 _ZN8KWayland6Client8Contrast7destroyEv@Base 5.24.3-1
 _ZN8KWayland6Client8Contrast7releaseEv@Base 5.24.3-1
 _ZN8KWayland6Client8Contrast8setFrostE6QColor@Base 5.24.3-1
 _ZN8KWayland6Client8Contrast9setRegionEPNS0_6RegionE@Base 5.24.3-1
 _ZN8KWayland6Client8ContrastC1EP7QObject@Base 5.24.3-1
 _ZN8KWayland6Client8ContrastC2EP7QObject@Base 5.24.3-1
 _ZN8KWayland6Client8ContrastD0Ev@Base 5.24.3-1
 _ZN8KWayland6Client8ContrastD1Ev@Base 5.24.3-1
 _ZN8KWayland6Client8ContrastD2Ev@Base 5.24.3-1
 _ZN8KWayland6Client8ContrastcvP21org_kde_kwin_contrastEv@Base 5.24.3-1
 _ZN8KWayland6Client8DDEShell11qt_metacallEN11QMetaObject4CallEiPPv@Base 5.24.3-1
 _ZN8KWayland6Client8DDEShell11qt_metacastEPKc@Base 5.24.3-1
 _ZN8KWayland6Client8DDEShell13setEventQueueEPNS0_10EventQueueE@Base 5.24.3-1
 _ZN8KWayland6Client8DDEShell16staticMetaObjectE@Base 5.24.3-1
 _ZN8KWayland6Client8DDEShell18createShellSurfaceEP10wl_surfaceP7QObject@Base 5.24.3-1
 _ZN8KWayland6Client8DDEShell18createShellSurfaceEPNS0_7SurfaceEP7QObject@Base 5.24.3-1
 _ZN8KWayland6Client8DDEShell26interfaceAboutToBeReleasedEv@Base 5.24.3-1
 _ZN8KWayland6Client8DDEShell27interfaceAboutToBeDestroyedEv@Base 5.24.3-1
 _ZN8KWayland6Client8DDEShell5setupEP9dde_shell@Base 5.24.3-1
 _ZN8KWayland6Client8DDEShell7destroyEv@Base 5.24.3-1
 _ZN8KWayland6Client8DDEShell7releaseEv@Base 5.24.3-1
 _ZN8KWayland6Client8DDEShell7removedEv@Base 5.24.3-1
 _ZN8KWayland6Client8DDEShell8ddeShellEv@Base 5.24.3-1
 _ZN8KWayland6Client8DDEShellC1EP7QObject@Base 5.24.3-1
 _ZN8KWayland6Client8DDEShellC2EP7QObject@Base 5.24.3-1
 _ZN8KWayland6Client8DDEShellD0Ev@Base 5.24.3-1
 _ZN8KWayland6Client8DDEShellD1Ev@Base 5.24.3-1
 _ZN8KWayland6Client8DDEShellD2Ev@Base 5.24.3-1
 _ZN8KWayland6Client8DDEShellcvP9dde_shellEv@Base 5.24.3-1
 _ZN8KWayland6Client8DDETouch11qt_metacallEN11QMetaObject4CallEiPPv@Base 5.24.3-1
 _ZN8KWayland6Client8DDETouch11qt_metacastEPKc@Base 5.24.3-1
 _ZN8KWayland6Client8DDETouch11touchMotionEiRK7QPointF@Base 5.24.3-1
 _ZN8KWayland6Client8DDETouch16staticMetaObjectE@Base 5.24.3-1
 _ZN8KWayland6Client8DDETouch5setupEP9dde_touch@Base 5.24.3-1
 _ZN8KWayland6Client8DDETouch7destroyEv@Base 5.24.3-1
 _ZN8KWayland6Client8DDETouch7releaseEv@Base 5.24.3-1
 _ZN8KWayland6Client8DDETouch7touchUpEi@Base 5.24.3-1
 _ZN8KWayland6Client8DDETouch9touchDownEiRK7QPointF@Base 5.24.3-1
 _ZN8KWayland6Client8DDETouchC1EP7QObject@Base 5.24.3-1
 _ZN8KWayland6Client8DDETouchC2EP7QObject@Base 5.24.3-1
 _ZN8KWayland6Client8DDETouchD0Ev@Base 5.24.3-1
 _ZN8KWayland6Client8DDETouchD1Ev@Base 5.24.3-1
 _ZN8KWayland6Client8DDETouchD2Ev@Base 5.24.3-1
 _ZN8KWayland6Client8DDETouchcvP9dde_touchEv@Base 5.24.3-1
 _ZN8KWayland6Client8Keyboard10keyChangedEjNS1_8KeyStateEj@Base 5.24.3-1
 _ZN8KWayland6Client8Keyboard11qt_metacallEN11QMetaObject4CallEiPPv@Base 5.24.3-1
 _ZN8KWayland6Client8Keyboard11qt_metacastEPKc@Base 5.24.3-1
 _ZN8KWayland6Client8Keyboard13keymapChangedEij@Base 5.24.3-1
 _ZN8KWayland6Client8Keyboard14enteredSurfaceEv@Base 5.24.3-1
 _ZN8KWayland6Client8Keyboard16keyRepeatChangedEv@Base 5.24.3-1
 _ZN8KWayland6Client8Keyboard16modifiersChangedEjjjj@Base 5.24.3-1
 _ZN8KWayland6Client8Keyboard16staticMetaObjectE@Base 5.24.3-1
 _ZN8KWayland6Client8Keyboard4leftEj@Base 5.24.3-1
 _ZN8KWayland6Client8Keyboard5setupEP11wl_keyboard@Base 5.24.3-1
 _ZN8KWayland6Client8Keyboard7destroyEv@Base 5.24.3-1
 _ZN8KWayland6Client8Keyboard7enteredEj@Base 5.24.3-1
 _ZN8KWayland6Client8Keyboard7releaseEv@Base 5.24.3-1
 _ZN8KWayland6Client8KeyboardC1EP7QObject@Base 5.24.3-1
 _ZN8KWayland6Client8KeyboardC2EP7QObject@Base 5.24.3-1
 _ZN8KWayland6Client8KeyboardD0Ev@Base 5.24.3-1
 _ZN8KWayland6Client8KeyboardD1Ev@Base 5.24.3-1
 _ZN8KWayland6Client8KeyboardD2Ev@Base 5.24.3-1
 _ZN8KWayland6Client8KeyboardcvP11wl_keyboardEv@Base 5.24.3-1
 _ZN8KWayland6Client8Keystate11fetchStatesEv@Base 5.24.3-1
 _ZN8KWayland6Client8Keystate11qt_metacallEN11QMetaObject4CallEiPPv@Base 5.24.3-1
 _ZN8KWayland6Client8Keystate11qt_metacastEPKc@Base 5.24.3-1
 _ZN8KWayland6Client8Keystate12stateChangedENS1_3KeyENS1_5StateE@Base 5.24.3-1
 _ZN8KWayland6Client8Keystate13setEventQueueEPNS0_10EventQueueE@Base 5.24.3-1
 _ZN8KWayland6Client8Keystate16staticMetaObjectE@Base 5.24.3-1
 _ZN8KWayland6Client8Keystate5setupEP21org_kde_kwin_keystate@Base 5.24.3-1
 _ZN8KWayland6Client8Keystate7destroyEv@Base 5.24.3-1
 _ZN8KWayland6Client8Keystate7removedEv@Base 5.24.3-1
 _ZN8KWayland6Client8KeystateC1EP7QObject@Base 5.24.3-1
 _ZN8KWayland6Client8KeystateC2EP7QObject@Base 5.24.3-1
 _ZN8KWayland6Client8KeystateD0Ev@Base 5.24.3-1
 _ZN8KWayland6Client8KeystateD1Ev@Base 5.24.3-1
 _ZN8KWayland6Client8KeystateD2Ev@Base 5.24.3-1
 _ZN8KWayland6Client8Registry10createIdleEjjP7QObject@Base 5.24.3-1
 _ZN8KWayland6Client8Registry10createSeatEjjP7QObject@Base 5.24.3-1
 _ZN8KWayland6Client8Registry10eventQueueEv@Base 5.24.3-1
 _ZN8KWayland6Client8Registry10shmRemovedEj@Base 5.24.3-1
 _ZN8KWayland6Client8Registry11blurRemovedEj@Base 5.24.3-1
 _ZN8KWayland6Client8Registry11createShellEjjP7QObject@Base 5.24.3-1
 _ZN8KWayland6Client8Registry11createStrutEjjP7QObject@Base 5.24.3-1
 _ZN8KWayland6Client8Registry11dpmsRemovedEj@Base 5.24.3-1
 _ZN8KWayland6Client8Registry11idleRemovedEj@Base 5.24.3-1
 _ZN8KWayland6Client8Registry11qt_metacallEN11QMetaObject4CallEiPPv@Base 5.24.3-1
 _ZN8KWayland6Client8Registry11qt_metacastEPKc@Base 5.24.3-1
 _ZN8KWayland6Client8Registry11seatRemovedEj@Base 5.24.3-1
 _ZN8KWayland6Client8Registry12createOutputEjjP7QObject@Base 5.24.3-1
 _ZN8KWayland6Client8Registry12shellRemovedEj@Base 5.24.3-1
 _ZN8KWayland6Client8Registry12shmAnnouncedEjj@Base 5.24.3-1
 _ZN8KWayland6Client8Registry12slideRemovedEj@Base 5.24.3-1
 _ZN8KWayland6Client8Registry12strutRemovedEj@Base 5.24.3-1
 _ZN8KWayland6Client8Registry13blurAnnouncedEjj@Base 5.24.3-1
 _ZN8KWayland6Client8Registry13createDDESeatEjjP7QObject@Base 5.24.3-1
 _ZN8KWayland6Client8Registry13createShmPoolEjjP7QObject@Base 5.24.3-1
 _ZN8KWayland6Client8Registry13dpmsAnnouncedEjj@Base 5.24.3-1
 _ZN8KWayland6Client8Registry13idleAnnouncedEjj@Base 5.24.3-1
 _ZN8KWayland6Client8Registry13outputRemovedEj@Base 5.24.3-1
 _ZN8KWayland6Client8Registry13seatAnnouncedEjj@Base 5.24.3-1
 _ZN8KWayland6Client8Registry13setEventQueueEPNS0_10EventQueueE@Base 5.24.3-1
 _ZN8KWayland6Client8Registry13shadowRemovedEj@Base 5.24.3-1
 _ZN8KWayland6Client8Registry14appMenuRemovedEj@Base 5.24.3-1
 _ZN8KWayland6Client8Registry14createDDEShellEjjP7QObject@Base 5.24.3-1
 _ZN8KWayland6Client8Registry14createKeystateEjjP7QObject@Base 5.24.3-1
 _ZN8KWayland6Client8Registry14createXdgShellEjjP7QObject@Base 5.24.3-1
 _ZN8KWayland6Client8Registry14ddeSeatRemovedEj@Base 5.24.3-1
 _ZN8KWayland6Client8Registry14shellAnnouncedEjj@Base 5.24.3-1
 _ZN8KWayland6Client8Registry14slideAnnouncedEjj@Base 5.24.3-1
 _ZN8KWayland6Client8Registry14strutAnnouncedEjj@Base 5.24.3-1
 _ZN8KWayland6Client8Registry15contrastRemovedEj@Base 5.24.3-1
 _ZN8KWayland6Client8Registry15createFakeInputEjjP7QObject@Base 5.24.3-1
 _ZN8KWayland6Client8Registry15ddeShellRemovedEj@Base 5.24.3-1
 _ZN8KWayland6Client8Registry15keystateRemovedEj@Base 5.24.3-1
 _ZN8KWayland6Client8Registry15outputAnnouncedEjj@Base 5.24.3-1
 _ZN8KWayland6Client8Registry15shadowAnnouncedEjj@Base 5.24.3-1
 _ZN8KWayland6Client8Registry16appMenuAnnouncedEjj@Base 5.24.3-1
 _ZN8KWayland6Client8Registry16createCompositorEjjP7QObject@Base 5.24.3-1
 _ZN8KWayland6Client8Registry16ddeSeatAnnouncedEjj@Base 5.24.3-1
 _ZN8KWayland6Client8Registry16fakeInputRemovedEj@Base 5.24.3-1
 _ZN8KWayland6Client8Registry16interfaceRemovedEj@Base 5.24.3-1
 _ZN8KWayland6Client8Registry16staticMetaObjectE@Base 5.24.3-1
 _ZN8KWayland6Client8Registry16xdgOutputRemovedEj@Base 5.24.3-1
 _ZN8KWayland6Client8Registry17compositorRemovedEj@Base 5.24.3-1
 _ZN8KWayland6Client8Registry17contrastAnnouncedEjj@Base 5.24.3-1
 _ZN8KWayland6Client8Registry17createBlurManagerEjjP7QObject@Base 5.24.3-1
 _ZN8KWayland6Client8Registry17createDpmsManagerEjjP7QObject@Base 5.24.3-1
 _ZN8KWayland6Client8Registry17createPlasmaShellEjjP7QObject@Base 5.24.3-1
 _ZN8KWayland6Client8Registry17createXdgExporterEjjP7QObject@Base 5.24.3-1
 _ZN8KWayland6Client8Registry17createXdgImporterEjjP7QObject@Base 5.24.3-1
 _ZN8KWayland6Client8Registry17ddeShellAnnouncedEjj@Base 5.24.3-1
 _ZN8KWayland6Client8Registry17keystateAnnouncedEjj@Base 5.24.3-1
 _ZN8KWayland6Client8Registry17registryDestroyedEv@Base 5.24.3-1
 _ZN8KWayland6Client8Registry18createOutputDeviceEjjP7QObject@Base 5.24.3-1
 _ZN8KWayland6Client8Registry18createSlideManagerEjjP7QObject@Base 5.24.3-1
 _ZN8KWayland6Client8Registry18fakeInputAnnouncedEjj@Base 5.24.3-1
 _ZN8KWayland6Client8Registry18interfaceAnnouncedE10QByteArrayjj@Base 5.24.3-1
 _ZN8KWayland6Client8Registry18plasmaShellRemovedEj@Base 5.24.3-1
 _ZN8KWayland6Client8Registry18xdgOutputAnnouncedEjj@Base 5.24.3-1
 _ZN8KWayland6Client8Registry19compositorAnnouncedEjj@Base 5.24.3-1
 _ZN8KWayland6Client8Registry19createShadowManagerEjjP7QObject@Base 5.24.3-1
 _ZN8KWayland6Client8Registry19createSubCompositorEjjP7QObject@Base 5.24.3-1
 _ZN8KWayland6Client8Registry19interfacesAnnouncedEv@Base 5.24.3-1
 _ZN8KWayland6Client8Registry19outputDeviceRemovedEj@Base 5.24.3-1
 _ZN8KWayland6Client8Registry20createAppMenuManagerEjjP7QObject@Base 5.24.3-1
 _ZN8KWayland6Client8Registry20plasmaShellAnnouncedEjj@Base 5.24.3-1
 _ZN8KWayland6Client8Registry20subCompositorRemovedEj@Base 5.24.3-1
 _ZN8KWayland6Client8Registry20xdgDecorationRemovedEj@Base 5.24.3-1
 _ZN8KWayland6Client8Registry21createContrastManagerEjjP7QObject@Base 5.24.3-1
 _ZN8KWayland6Client8Registry21createFullscreenShellEjjP7QObject@Base 5.24.3-1
 _ZN8KWayland6Client8Registry21createPointerGesturesEjjP7QObject@Base 5.24.3-1
 _ZN8KWayland6Client8Registry21outputDeviceAnnouncedEjj@Base 5.24.3-1
 _ZN8KWayland6Client8Registry21xdgShellStableRemovedEj@Base 5.24.3-1
 _ZN8KWayland6Client8Registry22createClientManagementEjjP7QObject@Base 5.24.3-1
 _ZN8KWayland6Client8Registry22createOutputManagementEjjP7QObject@Base 5.24.3-1
 _ZN8KWayland6Client8Registry22createTextInputManagerEjjP7QObject@Base 5.24.3-1
 _ZN8KWayland6Client8Registry22createXdgOutputManagerEjjP7QObject@Base 5.24.3-1
 _ZN8KWayland6Client8Registry22fullscreenShellRemovedEj@Base 5.24.3-1
 _ZN8KWayland6Client8Registry22subCompositorAnnouncedEjj@Base 5.24.3-1
 _ZN8KWayland6Client8Registry22xdgDecorationAnnouncedEjj@Base 5.24.3-1
 _ZN8KWayland6Client8Registry23clientManagementRemovedEj@Base 5.24.3-1
 _ZN8KWayland6Client8Registry23createDataDeviceManagerEjjP7QObject@Base 5.24.3-1
 _ZN8KWayland6Client8Registry23outputManagementRemovedEj@Base 5.24.3-1
 _ZN8KWayland6Client8Registry23xdgShellStableAnnouncedEjj@Base 5.24.3-1
 _ZN8KWayland6Client8Registry24createIdleInhibitManagerEjjP7QObject@Base 5.24.3-1
 _ZN8KWayland6Client8Registry24createPointerConstraintsEjjP7QObject@Base 5.24.3-1
 _ZN8KWayland6Client8Registry24dataDeviceManagerRemovedEj@Base 5.24.3-1
 _ZN8KWayland6Client8Registry24fullscreenShellAnnouncedEjj@Base 5.24.3-1
 _ZN8KWayland6Client8Registry25clientManagementAnnouncedEjj@Base 5.24.3-1
 _ZN8KWayland6Client8Registry25createRemoteAccessManagerEjjP7QObject@Base 5.24.3-1
 _ZN8KWayland6Client8Registry25exporterUnstableV2RemovedEj@Base 5.24.3-1
 _ZN8KWayland6Client8Registry25importerUnstableV2RemovedEj@Base 5.24.3-1
 _ZN8KWayland6Client8Registry25outputManagementAnnouncedEjj@Base 5.24.3-1
 _ZN8KWayland6Client8Registry25xdgShellUnstableV5RemovedEj@Base 5.24.3-1
 _ZN8KWayland6Client8Registry25xdgShellUnstableV6RemovedEj@Base 5.24.3-1
 _ZN8KWayland6Client8Registry26createXdgDecorationManagerEjjP7QObject@Base 5.24.3-1
 _ZN8KWayland6Client8Registry26dataDeviceManagerAnnouncedEjj@Base 5.24.3-1
 _ZN8KWayland6Client8Registry26remoteAccessManagerRemovedEj@Base 5.24.3-1
 _ZN8KWayland6Client8Registry27exporterUnstableV2AnnouncedEjj@Base 5.24.3-1
 _ZN8KWayland6Client8Registry27importerUnstableV2AnnouncedEjj@Base 5.24.3-1
 _ZN8KWayland6Client8Registry27xdgShellUnstableV5AnnouncedEjj@Base 5.24.3-1
 _ZN8KWayland6Client8Registry27xdgShellUnstableV6AnnouncedEjj@Base 5.24.3-1
 _ZN8KWayland6Client8Registry28createPlasmaWindowManagementEjjP7QObject@Base 5.24.3-1
 _ZN8KWayland6Client8Registry28createRelativePointerManagerEjjP7QObject@Base 5.24.3-1
 _ZN8KWayland6Client8Registry28remoteAccessManagerAnnouncedEjj@Base 5.24.3-1
 _ZN8KWayland6Client8Registry29plasmaWindowManagementRemovedEj@Base 5.24.3-1
 _ZN8KWayland6Client8Registry30createPlasmaActivationFeedbackEjjP7QObject@Base 5.24.3-1
 _ZN8KWayland6Client8Registry31plasmaActivationFeedbackRemovedEj@Base 5.24.3-1
 _ZN8KWayland6Client8Registry31plasmaWindowManagementAnnouncedEjj@Base 5.24.3-1
 _ZN8KWayland6Client8Registry32pointerGesturesUnstableV1RemovedEj@Base 5.24.3-1
 _ZN8KWayland6Client8Registry33createServerSideDecorationManagerEjjP7QObject@Base 5.24.3-1
 _ZN8KWayland6Client8Registry33plasmaActivationFeedbackAnnouncedEjj@Base 5.24.3-1
 _ZN8KWayland6Client8Registry33textInputManagerUnstableV0RemovedEj@Base 5.24.3-1
 _ZN8KWayland6Client8Registry33textInputManagerUnstableV2RemovedEj@Base 5.24.3-1
 _ZN8KWayland6Client8Registry34pointerGesturesUnstableV1AnnouncedEjj@Base 5.24.3-1
 _ZN8KWayland6Client8Registry34serverSideDecorationManagerRemovedEj@Base 5.24.3-1
 _ZN8KWayland6Client8Registry35idleInhibitManagerUnstableV1RemovedEj@Base 5.24.3-1
 _ZN8KWayland6Client8Registry35pointerConstraintsUnstableV1RemovedEj@Base 5.24.3-1
 _ZN8KWayland6Client8Registry35textInputManagerUnstableV0AnnouncedEjj@Base 5.24.3-1
 _ZN8KWayland6Client8Registry35textInputManagerUnstableV2AnnouncedEjj@Base 5.24.3-1
 _ZN8KWayland6Client8Registry36createPlasmaVirtualDesktopManagementEjjP7QObject@Base 5.24.3-1
 _ZN8KWayland6Client8Registry36serverSideDecorationManagerAnnouncedEjj@Base 5.24.3-1
 _ZN8KWayland6Client8Registry37idleInhibitManagerUnstableV1AnnouncedEjj@Base 5.24.3-1
 _ZN8KWayland6Client8Registry37plasmaVirtualDesktopManagementRemovedEj@Base 5.24.3-1
 _ZN8KWayland6Client8Registry37pointerConstraintsUnstableV1AnnouncedEjj@Base 5.24.3-1
 _ZN8KWayland6Client8Registry39plasmaVirtualDesktopManagementAnnouncedEjj@Base 5.24.3-1
 _ZN8KWayland6Client8Registry39relativePointerManagerUnstableV1RemovedEj@Base 5.24.3-1
 _ZN8KWayland6Client8Registry40createServerSideDecorationPaletteManagerEjjP7QObject@Base 5.24.3-1
 _ZN8KWayland6Client8Registry41relativePointerManagerUnstableV1AnnouncedEjj@Base 5.24.3-1
 _ZN8KWayland6Client8Registry41serverSideDecorationPaletteManagerRemovedEj@Base 5.24.3-1
 _ZN8KWayland6Client8Registry43serverSideDecorationPaletteManagerAnnouncedEjj@Base 5.24.3-1
 _ZN8KWayland6Client8Registry5setupEv@Base 5.24.3-1
 _ZN8KWayland6Client8Registry6createEP10wl_display@Base 5.24.3-1
 _ZN8KWayland6Client8Registry6createEPNS0_16ConnectionThreadE@Base 5.24.3-1
 _ZN8KWayland6Client8Registry7destroyEv@Base 5.24.3-1
 _ZN8KWayland6Client8Registry7releaseEv@Base 5.24.3-1
 _ZN8KWayland6Client8Registry8registryEv@Base 5.24.3-1
 _ZN8KWayland6Client8RegistryC1EP7QObject@Base 5.24.3-1
 _ZN8KWayland6Client8RegistryC2EP7QObject@Base 5.24.3-1
 _ZN8KWayland6Client8RegistryD0Ev@Base 5.24.3-1
 _ZN8KWayland6Client8RegistryD1Ev@Base 5.24.3-1
 _ZN8KWayland6Client8RegistryD2Ev@Base 5.24.3-1
 _ZN8KWayland6Client8RegistrycvP11wl_registryEv@Base 5.24.3-1
 _ZN8KWayland6Client8XdgShell10eventQueueEv@Base 5.24.3-1
 _ZN8KWayland6Client8XdgShell11createPopupEPNS0_7SurfaceEPNS0_13XdgShellPopupERKNS0_13XdgPositionerEP7QObject@Base 5.24.3-1
 _ZN8KWayland6Client8XdgShell11createPopupEPNS0_7SurfaceEPNS0_15XdgShellSurfaceERKNS0_13XdgPositionerEP7QObject@Base 5.24.3-1
 _ZN8KWayland6Client8XdgShell11createPopupEPNS0_7SurfaceES3_PNS0_4SeatEjRK6QPointP7QObject@Base 5.24.3-1
 _ZN8KWayland6Client8XdgShell11qt_metacallEN11QMetaObject4CallEiPPv@Base 5.24.3-1
 _ZN8KWayland6Client8XdgShell11qt_metacastEPKc@Base 5.24.3-1
 _ZN8KWayland6Client8XdgShell13createSurfaceEPNS0_7SurfaceEP7QObject@Base 5.24.3-1
 _ZN8KWayland6Client8XdgShell13setEventQueueEPNS0_10EventQueueE@Base 5.24.3-1
 _ZN8KWayland6Client8XdgShell16staticMetaObjectE@Base 5.24.3-1
 _ZN8KWayland6Client8XdgShell5setupEP11xdg_wm_base@Base 5.24.3-1
 _ZN8KWayland6Client8XdgShell5setupEP13zxdg_shell_v6@Base 5.24.3-1
 _ZN8KWayland6Client8XdgShell5setupEP9xdg_shell@Base 5.24.3-1
 _ZN8KWayland6Client8XdgShell7destroyEv@Base 5.24.3-1
 _ZN8KWayland6Client8XdgShell7releaseEv@Base 5.24.3-1
 _ZN8KWayland6Client8XdgShell7removedEv@Base 5.24.3-1
 _ZN8KWayland6Client8XdgShellC1EPNS1_7PrivateEP7QObject@Base 5.24.3-1
 _ZN8KWayland6Client8XdgShellC2EPNS1_7PrivateEP7QObject@Base 5.24.3-1
 _ZN8KWayland6Client8XdgShellD0Ev@Base 5.24.3-1
 _ZN8KWayland6Client8XdgShellD1Ev@Base 5.24.3-1
 _ZN8KWayland6Client8XdgShellD2Ev@Base 5.24.3-1
 _ZN8KWayland6Client8XdgShellcvP11xdg_wm_baseEv@Base 5.24.3-1
 _ZN8KWayland6Client8XdgShellcvP13zxdg_shell_v6Ev@Base 5.24.3-1
 _ZN8KWayland6Client8XdgShellcvP9xdg_shellEv@Base 5.24.3-1
 _ZN8KWayland6Client9DataOffer11qt_metacallEN11QMetaObject4CallEiPPv@Base 5.24.3-1
 _ZN8KWayland6Client9DataOffer11qt_metacastEPKc@Base 5.24.3-1
 _ZN8KWayland6Client9DataOffer15mimeTypeOfferedERK7QString@Base 5.24.3-1
 _ZN8KWayland6Client9DataOffer16staticMetaObjectE@Base 5.24.3-1
 _ZN8KWayland6Client9DataOffer19dragAndDropFinishedEv@Base 5.24.3-1
 _ZN8KWayland6Client9DataOffer21setDragAndDropActionsE6QFlagsINS0_17DataDeviceManager9DnDActionEES4_@Base 5.24.3-1
 _ZN8KWayland6Client9DataOffer31sourceDragAndDropActionsChangedEv@Base 5.24.3-1
 _ZN8KWayland6Client9DataOffer32selectedDragAndDropActionChangedEv@Base 5.24.3-1
 _ZN8KWayland6Client9DataOffer6acceptERK7QStringj@Base 5.24.3-1
 _ZN8KWayland6Client9DataOffer6acceptERK9QMimeTypej@Base 5.24.3-1
 _ZN8KWayland6Client9DataOffer7destroyEv@Base 5.24.3-1
 _ZN8KWayland6Client9DataOffer7receiveERK7QStringi@Base 5.24.3-1
 _ZN8KWayland6Client9DataOffer7receiveERK9QMimeTypei@Base 5.24.3-1
 _ZN8KWayland6Client9DataOffer7releaseEv@Base 5.24.3-1
 _ZN8KWayland6Client9DataOfferC1EPNS0_10DataDeviceEP13wl_data_offer@Base 5.24.3-1
 _ZN8KWayland6Client9DataOfferC2EPNS0_10DataDeviceEP13wl_data_offer@Base 5.24.3-1
 _ZN8KWayland6Client9DataOfferD0Ev@Base 5.24.3-1
 _ZN8KWayland6Client9DataOfferD1Ev@Base 5.24.3-1
 _ZN8KWayland6Client9DataOfferD2Ev@Base 5.24.3-1
 _ZN8KWayland6Client9DataOffercvP13wl_data_offerEv@Base 5.24.3-1
 _ZN8KWayland6Client9FakeInput10eventQueueEv@Base 5.24.3-1
 _ZN8KWayland6Client9FakeInput11qt_metacallEN11QMetaObject4CallEiPPv@Base 5.24.3-1
 _ZN8KWayland6Client9FakeInput11qt_metacastEPKc@Base 5.24.3-1
 _ZN8KWayland6Client9FakeInput12authenticateERK7QStringS4_@Base 5.24.3-1
 _ZN8KWayland6Client9FakeInput13setEventQueueEPNS0_10EventQueueE@Base 5.24.3-1
 _ZN8KWayland6Client9FakeInput14requestTouchUpEj@Base 5.24.3-1
 _ZN8KWayland6Client9FakeInput16requestTouchDownEjRK7QPointF@Base 5.24.3-1
 _ZN8KWayland6Client9FakeInput16staticMetaObjectE@Base 5.24.3-1
 _ZN8KWayland6Client9FakeInput17requestTouchFrameEv@Base 5.24.3-1
 _ZN8KWayland6Client9FakeInput18requestPointerAxisEN2Qt11OrientationEd@Base 5.24.3-1
 _ZN8KWayland6Client9FakeInput18requestPointerMoveERK6QSizeF@Base 5.24.3-1
 _ZN8KWayland6Client9FakeInput18requestTouchCancelEv@Base 5.24.3-1
 _ZN8KWayland6Client9FakeInput18requestTouchMotionEjRK7QPointF@Base 5.24.3-1
 _ZN8KWayland6Client9FakeInput23requestKeyboardKeyPressEj@Base 5.24.3-1
 _ZN8KWayland6Client9FakeInput25requestKeyboardKeyReleaseEj@Base 5.24.3-1
 _ZN8KWayland6Client9FakeInput25requestPointerButtonClickEN2Qt11MouseButtonE@Base 5.24.3-1
 _ZN8KWayland6Client9FakeInput25requestPointerButtonClickEj@Base 5.24.3-1
 _ZN8KWayland6Client9FakeInput25requestPointerButtonPressEN2Qt11MouseButtonE@Base 5.24.3-1
 _ZN8KWayland6Client9FakeInput25requestPointerButtonPressEj@Base 5.24.3-1
 _ZN8KWayland6Client9FakeInput26requestPointerMoveAbsoluteERK7QPointF@Base 5.24.3-1
 _ZN8KWayland6Client9FakeInput27requestPointerButtonReleaseEN2Qt11MouseButtonE@Base 5.24.3-1
 _ZN8KWayland6Client9FakeInput27requestPointerButtonReleaseEj@Base 5.24.3-1
 _ZN8KWayland6Client9FakeInput28requestPointerAxisForCaptureEN2Qt11OrientationEd@Base 5.24.3-1
 _ZN8KWayland6Client9FakeInput5setupEP23org_kde_kwin_fake_input@Base 5.24.3-1
 _ZN8KWayland6Client9FakeInput7destroyEv@Base 5.24.3-1
 _ZN8KWayland6Client9FakeInput7releaseEv@Base 5.24.3-1
 _ZN8KWayland6Client9FakeInput7removedEv@Base 5.24.3-1
 _ZN8KWayland6Client9FakeInputC1EP7QObject@Base 5.24.3-1
 _ZN8KWayland6Client9FakeInputC2EP7QObject@Base 5.24.3-1
 _ZN8KWayland6Client9FakeInputD0Ev@Base 5.24.3-1
 _ZN8KWayland6Client9FakeInputD1Ev@Base 5.24.3-1
 _ZN8KWayland6Client9FakeInputD2Ev@Base 5.24.3-1
 _ZN8KWayland6Client9FakeInputcvP23org_kde_kwin_fake_inputEv@Base 5.24.3-1
 _ZN8KWayland6Client9TextInput11qt_metacallEN11QMetaObject4CallEiPPv@Base 5.24.3-1
 _ZN8KWayland6Client9TextInput11qt_metacastEPKc@Base 5.24.3-1
 _ZN8KWayland6Client9TextInput13setEventQueueEPNS0_10EventQueueE@Base 5.24.3-1
 _ZN8KWayland6Client9TextInput14hideInputPanelEv@Base 5.24.3-1
 _ZN8KWayland6Client9TextInput14setContentTypeE6QFlagsINS1_11ContentHintEENS1_14ContentPurposeE@Base 5.24.3-1
 _ZN8KWayland6Client9TextInput14showInputPanelEv@Base 5.24.3-1
 _ZN8KWayland6Client9TextInput15languageChangedEv@Base 5.24.3-1
 _ZN8KWayland6Client9TextInput16staticMetaObjectE@Base 5.24.3-1
 _ZN8KWayland6Client9TextInput18setCursorRectangleERK5QRect@Base 5.24.3-1
 _ZN8KWayland6Client9TextInput18setSurroundingTextERK7QStringjj@Base 5.24.3-1
 _ZN8KWayland6Client9TextInput20composingTextChangedEv@Base 5.24.3-1
 _ZN8KWayland6Client9TextInput20setPreferredLanguageERK7QString@Base 5.24.3-1
 _ZN8KWayland6Client9TextInput20textDirectionChangedEv@Base 5.24.3-1
 _ZN8KWayland6Client9TextInput22inputPanelStateChangedEv@Base 5.24.3-1
 _ZN8KWayland6Client9TextInput4leftEv@Base 5.24.3-1
 _ZN8KWayland6Client9TextInput5resetEv@Base 5.24.3-1
 _ZN8KWayland6Client9TextInput6enableEPNS0_7SurfaceE@Base 5.24.3-1
 _ZN8KWayland6Client9TextInput7disableEPNS0_7SurfaceE@Base 5.24.3-1
 _ZN8KWayland6Client9TextInput7enteredEv@Base 5.24.3-1
 _ZN8KWayland6Client9TextInput8keyEventEjNS1_8KeyStateE6QFlagsIN2Qt16KeyboardModifierEEj@Base 5.24.3-1
 _ZN8KWayland6Client9TextInput9committedEv@Base 5.24.3-1
 _ZN8KWayland6Client9TextInputC1EPNS1_7PrivateEP7QObject@Base 5.24.3-1
 _ZN8KWayland6Client9TextInputC2EPNS1_7PrivateEP7QObject@Base 5.24.3-1
 _ZN8KWayland6Client9TextInputD0Ev@Base 5.24.3-1
 _ZN8KWayland6Client9TextInputD1Ev@Base 5.24.3-1
 _ZN8KWayland6Client9TextInputD2Ev@Base 5.24.3-1
 _ZN8KWayland6Client9XdgOutput11qt_metacallEN11QMetaObject4CallEiPPv@Base 5.24.3-1
 _ZN8KWayland6Client9XdgOutput11qt_metacastEPKc@Base 5.24.3-1
 _ZN8KWayland6Client9XdgOutput16staticMetaObjectE@Base 5.24.3-1
 _ZN8KWayland6Client9XdgOutput5setupEP14zxdg_output_v1@Base 5.24.3-1
 _ZN8KWayland6Client9XdgOutput7Private10s_listenerE@Base 5.24.3-1
 _ZN8KWayland6Client9XdgOutput7Private12doneCallbackEPvP14zxdg_output_v1@Base 5.24.3-1
 _ZN8KWayland6Client9XdgOutput7Private12nameCallbackEPvP14zxdg_output_v1PKc@Base 5.24.3-1
 _ZN8KWayland6Client9XdgOutput7Private19descriptionCallbackEPvP14zxdg_output_v1PKc@Base 5.24.3-1
 _ZN8KWayland6Client9XdgOutput7Private20logical_sizeCallbackEPvP14zxdg_output_v1ii@Base 5.24.3-1
 _ZN8KWayland6Client9XdgOutput7Private24logical_positionCallbackEPvP14zxdg_output_v1ii@Base 5.24.3-1
 _ZN8KWayland6Client9XdgOutput7Private5setupEP14zxdg_output_v1@Base 5.24.3-1
 _ZN8KWayland6Client9XdgOutput7PrivateC1EPS1_@Base 5.24.3-1
 _ZN8KWayland6Client9XdgOutput7PrivateC2EPS1_@Base 5.24.3-1
 _ZN8KWayland6Client9XdgOutput7changedEv@Base 5.24.3-1
 _ZN8KWayland6Client9XdgOutput7destroyEv@Base 5.24.3-1
 _ZN8KWayland6Client9XdgOutput7releaseEv@Base 5.24.3-1
 _ZN8KWayland6Client9XdgOutputC1EP7QObject@Base 5.24.3-1
 _ZN8KWayland6Client9XdgOutputC2EP7QObject@Base 5.24.3-1
 _ZN8KWayland6Client9XdgOutputD0Ev@Base 5.24.3-1
 _ZN8KWayland6Client9XdgOutputD1Ev@Base 5.24.3-1
 _ZN8KWayland6Client9XdgOutputD2Ev@Base 5.24.3-1
 _ZN8KWayland6Client9XdgOutputcvP14zxdg_output_v1Ev@Base 5.24.3-1
 _ZNK8KWayland6Client10Compositor10metaObjectEv@Base 5.24.3-1
 _ZNK8KWayland6Client10Compositor7isValidEv@Base 5.24.3-1
 _ZNK8KWayland6Client10CompositorcvP13wl_compositorEv@Base 5.24.3-1
 _ZNK8KWayland6Client10DDEPointer10metaObjectEv@Base 5.24.3-1
 _ZNK8KWayland6Client10DDEPointer7isValidEv@Base 5.24.3-1
 _ZNK8KWayland6Client10DDEPointercvP11dde_pointerEv@Base 5.24.3-1
 _ZNK8KWayland6Client10DataDevice10metaObjectEv@Base 5.24.3-1
 _ZNK8KWayland6Client10DataDevice11dragSurfaceEv@Base 5.24.3-1
 _ZNK8KWayland6Client10DataDevice16offeredSelectionEv@Base 5.24.3-1
 _ZNK8KWayland6Client10DataDevice7isValidEv@Base 5.24.3-1
 _ZNK8KWayland6Client10DataDevice9dragOfferEv@Base 5.24.3-1
 _ZNK8KWayland6Client10DataDevicecvP14wl_data_deviceEv@Base 5.24.3-1
 _ZNK8KWayland6Client10DataSource10metaObjectEv@Base 5.24.3-1
 _ZNK8KWayland6Client10DataSource25selectedDragAndDropActionEv@Base 5.24.3-1
 _ZNK8KWayland6Client10DataSource7isValidEv@Base 5.24.3-1
 _ZNK8KWayland6Client10DataSourcecvP14wl_data_sourceEv@Base 5.24.3-1
 _ZNK8KWayland6Client10EventQueue10metaObjectEv@Base 5.24.3-1
 _ZNK8KWayland6Client10EventQueuecvP14wl_event_queueEv@Base 5.24.3-1
 _ZNK8KWayland6Client10SubSurface10metaObjectEv@Base 5.24.3-1
 _ZNK8KWayland6Client10SubSurface13parentSurfaceEv@Base 5.24.3-1
 _ZNK8KWayland6Client10SubSurface4modeEv@Base 5.24.3-1
 _ZNK8KWayland6Client10SubSurface7isValidEv@Base 5.24.3-1
 _ZNK8KWayland6Client10SubSurface7surfaceEv@Base 5.24.3-1
 _ZNK8KWayland6Client10SubSurface8positionEv@Base 5.24.3-1
 _ZNK8KWayland6Client10SubSurfacecvP13wl_subsurfaceEv@Base 5.24.3-1
 _ZNK8KWayland6Client10TouchPoint10downSerialEv@Base 5.24.3-1
 _ZNK8KWayland6Client10TouchPoint10timestampsEv@Base 5.24.3-1
 _ZNK8KWayland6Client10TouchPoint2idEv@Base 5.24.3-1
 _ZNK8KWayland6Client10TouchPoint4timeEv@Base 5.24.3-1
 _ZNK8KWayland6Client10TouchPoint6isDownEv@Base 5.24.3-1
 _ZNK8KWayland6Client10TouchPoint7surfaceEv@Base 5.24.3-1
 _ZNK8KWayland6Client10TouchPoint8positionEv@Base 5.24.3-1
 _ZNK8KWayland6Client10TouchPoint8upSerialEv@Base 5.24.3-1
 _ZNK8KWayland6Client10TouchPoint9positionsEv@Base 5.24.3-1
 _ZNK8KWayland6Client11BlurManager10metaObjectEv@Base 5.24.3-1
 _ZNK8KWayland6Client11BlurManager7isValidEv@Base 5.24.3-1
 _ZNK8KWayland6Client11BlurManagercvP25org_kde_kwin_blur_managerEv@Base 5.24.3-1
 _ZNK8KWayland6Client11DDEKeyboard10metaObjectEv@Base 5.24.3-1
 _ZNK8KWayland6Client11DDEKeyboard7isValidEv@Base 5.24.3-1
 _ZNK8KWayland6Client11DDEKeyboardcvP12dde_keyboardEv@Base 5.24.3-1
 _ZNK8KWayland6Client11DpmsManager10metaObjectEv@Base 5.24.3-1
 _ZNK8KWayland6Client11DpmsManager7isValidEv@Base 5.24.3-1
 _ZNK8KWayland6Client11DpmsManagercvP25org_kde_kwin_dpms_managerEv@Base 5.24.3-1
 _ZNK8KWayland6Client11IdleTimeout10metaObjectEv@Base 5.24.3-1
 _ZNK8KWayland6Client11IdleTimeout7isValidEv@Base 5.24.3-1
 _ZNK8KWayland6Client11IdleTimeoutcvP25org_kde_kwin_idle_timeoutEv@Base 5.24.3-1
 _ZNK8KWayland6Client11PlasmaShell10metaObjectEv@Base 5.24.3-1
 _ZNK8KWayland6Client11PlasmaShell7isValidEv@Base 5.24.3-1
 _ZNK8KWayland6Client11PlasmaShellcvP20org_kde_plasma_shellEv@Base 5.24.3-1
 _ZNK8KWayland6Client11XdgExported10metaObjectEv@Base 5.24.3-1
 _ZNK8KWayland6Client11XdgExported6handleEv@Base 5.24.3-1
 _ZNK8KWayland6Client11XdgExported7isValidEv@Base 5.24.3-1
 _ZNK8KWayland6Client11XdgExportedcvP16zxdg_exported_v2Ev@Base 5.24.3-1
 _ZNK8KWayland6Client11XdgExporter10metaObjectEv@Base 5.24.3-1
 _ZNK8KWayland6Client11XdgExporter7isValidEv@Base 5.24.3-1
 _ZNK8KWayland6Client11XdgExportercvP16zxdg_exporter_v2Ev@Base 5.24.3-1
 _ZNK8KWayland6Client11XdgImported10metaObjectEv@Base 5.24.3-1
 _ZNK8KWayland6Client11XdgImported7isValidEv@Base 5.24.3-1
 _ZNK8KWayland6Client11XdgImportedcvP16zxdg_imported_v2Ev@Base 5.24.3-1
 _ZNK8KWayland6Client11XdgImporter10metaObjectEv@Base 5.24.3-1
 _ZNK8KWayland6Client11XdgImporter7isValidEv@Base 5.24.3-1
 _ZNK8KWayland6Client11XdgImportercvP16zxdg_importer_v2Ev@Base 5.24.3-1
 _ZNK8KWayland6Client12OutputDevice10eventQueueEv@Base 5.24.3-1
 _ZNK8KWayland6Client12OutputDevice10metaObjectEv@Base 5.24.3-1
 _ZNK8KWayland6Client12OutputDevice11ColorCurveseqERKS2_@Base 5.24.3-1
 _ZNK8KWayland6Client12OutputDevice11ColorCurvesneERKS2_@Base 5.24.3-1
 _ZNK8KWayland6Client12OutputDevice11colorCurvesEv@Base 5.24.3-1
 _ZNK8KWayland6Client12OutputDevice11currentModeEv@Base 5.24.3-1
 _ZNK8KWayland6Client12OutputDevice11refreshRateEv@Base 5.24.3-1
 _ZNK8KWayland6Client12OutputDevice12capabilitiesEv@Base 5.24.3-1
 _ZNK8KWayland6Client12OutputDevice12manufacturerEv@Base 5.24.3-1
 _ZNK8KWayland6Client12OutputDevice12physicalSizeEv@Base 5.24.3-1
 _ZNK8KWayland6Client12OutputDevice12serialNumberEv@Base 5.24.3-1
 _ZNK8KWayland6Client12OutputDevice14globalPositionEv@Base 5.24.3-1
 _ZNK8KWayland6Client12OutputDevice4ModeeqERKS2_@Base 5.24.3-1
 _ZNK8KWayland6Client12OutputDevice4edidEv@Base 5.24.3-1
 _ZNK8KWayland6Client12OutputDevice4uuidEv@Base 5.24.3-1
 _ZNK8KWayland6Client12OutputDevice5modelEv@Base 5.24.3-1
 _ZNK8KWayland6Client12OutputDevice5modesEv@Base 5.24.3-1
 _ZNK8KWayland6Client12OutputDevice5scaleEv@Base 5.24.3-1
 _ZNK8KWayland6Client12OutputDevice6eisaIdEv@Base 5.24.3-1
 _ZNK8KWayland6Client12OutputDevice6scaleFEv@Base 5.24.3-1
 _ZNK8KWayland6Client12OutputDevice7enabledEv@Base 5.24.3-1
 _ZNK8KWayland6Client12OutputDevice7isValidEv@Base 5.24.3-1
 _ZNK8KWayland6Client12OutputDevice8geometryEv@Base 5.24.3-1
 _ZNK8KWayland6Client12OutputDevice8overscanEv@Base 5.24.3-1
 _ZNK8KWayland6Client12OutputDevice8subPixelEv@Base 5.24.3-1
 _ZNK8KWayland6Client12OutputDevice9pixelSizeEv@Base 5.24.3-1
 _ZNK8KWayland6Client12OutputDevice9transformEv@Base 5.24.3-1
 _ZNK8KWayland6Client12OutputDevice9vrrPolicyEv@Base 5.24.3-1
 _ZNK8KWayland6Client12OutputDevicecvP25org_kde_kwin_outputdeviceEv@Base 5.24.3-1
 _ZNK8KWayland6Client12PlasmaWindow10internalIdEv@Base 5.24.3-1
 _ZNK8KWayland6Client12PlasmaWindow10metaObjectEv@Base 5.24.3-1
 _ZNK8KWayland6Client12PlasmaWindow11isCloseableEv@Base 5.24.3-1
 _ZNK8KWayland6Client12PlasmaWindow11isKeepAboveEv@Base 5.24.3-1
 _ZNK8KWayland6Client12PlasmaWindow11isKeepBelowEv@Base 5.24.3-1
 _ZNK8KWayland6Client12PlasmaWindow11isMaximizedEv@Base 5.24.3-1
 _ZNK8KWayland6Client12PlasmaWindow11isMinimizedEv@Base 5.24.3-1
 _ZNK8KWayland6Client12PlasmaWindow11isResizableEv@Base 5.24.3-1
 _ZNK8KWayland6Client12PlasmaWindow11isShadeableEv@Base 5.24.3-1
 _ZNK8KWayland6Client12PlasmaWindow11skipTaskbarEv@Base 5.24.3-1
 _ZNK8KWayland6Client12PlasmaWindow12isFullscreenEv@Base 5.24.3-1
 _ZNK8KWayland6Client12PlasmaWindow12parentWindowEv@Base 5.24.3-1
 _ZNK8KWayland6Client12PlasmaWindow12sendToOutputEPNS0_6OutputE@Base 5.24.3-1
 _ZNK8KWayland6Client12PlasmaWindow12skipSwitcherEv@Base 5.24.3-1
 _ZNK8KWayland6Client12PlasmaWindow14isMaximizeableEv@Base 5.24.3-1
 _ZNK8KWayland6Client12PlasmaWindow14isMinimizeableEv@Base 5.24.3-1
 _ZNK8KWayland6Client12PlasmaWindow14virtualDesktopEv@Base 5.24.3-1
 _ZNK8KWayland6Client12PlasmaWindow15isOnAllDesktopsEv@Base 5.24.3-1
 _ZNK8KWayland6Client12PlasmaWindow16isFullscreenableEv@Base 5.24.3-1
 _ZNK8KWayland6Client12PlasmaWindow16plasmaActivitiesEv@Base 5.24.3-1
 _ZNK8KWayland6Client12PlasmaWindow20isDemandingAttentionEv@Base 5.24.3-1
 _ZNK8KWayland6Client12PlasmaWindow21plasmaVirtualDesktopsEv@Base 5.24.3-1
 _ZNK8KWayland6Client12PlasmaWindow25applicationMenuObjectPathEv@Base 5.24.3-1
 _ZNK8KWayland6Client12PlasmaWindow26applicationMenuServiceNameEv@Base 5.24.3-1
 _ZNK8KWayland6Client12PlasmaWindow26isVirtualDesktopChangeableEv@Base 5.24.3-1
 _ZNK8KWayland6Client12PlasmaWindow3pidEv@Base 5.24.3-1
 _ZNK8KWayland6Client12PlasmaWindow4iconEv@Base 5.24.3-1
 _ZNK8KWayland6Client12PlasmaWindow4uuidEv@Base 5.24.3-1
 _ZNK8KWayland6Client12PlasmaWindow5appIdEv@Base 5.24.3-1
 _ZNK8KWayland6Client12PlasmaWindow5titleEv@Base 5.24.3-1
 _ZNK8KWayland6Client12PlasmaWindow7isValidEv@Base 5.24.3-1
 _ZNK8KWayland6Client12PlasmaWindow8geometryEv@Base 5.24.3-1
 _ZNK8KWayland6Client12PlasmaWindow8isActiveEv@Base 5.24.3-1
 _ZNK8KWayland6Client12PlasmaWindow8isShadedEv@Base 5.24.3-1
 _ZNK8KWayland6Client12PlasmaWindow8windowIdEv@Base 5.24.3-1
 _ZNK8KWayland6Client12PlasmaWindow9isMovableEv@Base 5.24.3-1
 _ZNK8KWayland6Client12PlasmaWindowcvP21org_kde_plasma_windowEv@Base 5.24.3-1
 _ZNK8KWayland6Client12RemoteBuffer10metaObjectEv@Base 5.24.3-1
 _ZNK8KWayland6Client12RemoteBuffer2fdEv@Base 5.24.3-1
 _ZNK8KWayland6Client12RemoteBuffer5widthEv@Base 5.24.3-1
 _ZNK8KWayland6Client12RemoteBuffer6formatEv@Base 5.24.3-1
 _ZNK8KWayland6Client12RemoteBuffer6heightEv@Base 5.24.3-1
 _ZNK8KWayland6Client12RemoteBuffer6strideEv@Base 5.24.3-1
 _ZNK8KWayland6Client12RemoteBuffer7isValidEv@Base 5.24.3-1
 _ZNK8KWayland6Client12RemoteBuffercvP26org_kde_kwin_remote_bufferEv@Base 5.24.3-1
 _ZNK8KWayland6Client12ShellSurface10metaObjectEv@Base 5.24.3-1
 _ZNK8KWayland6Client12ShellSurface4sizeEv@Base 5.24.3-1
 _ZNK8KWayland6Client12ShellSurface7isValidEv@Base 5.24.3-1
 _ZNK8KWayland6Client12ShellSurfacecvP16wl_shell_surfaceEv@Base 5.24.3-1
 _ZNK8KWayland6Client12SlideManager10metaObjectEv@Base 5.24.3-1
 _ZNK8KWayland6Client12SlideManager7isValidEv@Base 5.24.3-1
 _ZNK8KWayland6Client12SlideManagercvP26org_kde_kwin_slide_managerEv@Base 5.24.3-1
 _ZNK8KWayland6Client13IdleInhibitor10metaObjectEv@Base 5.24.3-1
 _ZNK8KWayland6Client13IdleInhibitor7isValidEv@Base 5.24.3-1
 _ZNK8KWayland6Client13IdleInhibitorcvP21zwp_idle_inhibitor_v1Ev@Base 5.24.3-1
 _ZNK8KWayland6Client13LockedPointer10metaObjectEv@Base 5.24.3-1
 _ZNK8KWayland6Client13LockedPointer7isValidEv@Base 5.24.3-1
 _ZNK8KWayland6Client13LockedPointercvP21zwp_locked_pointer_v1Ev@Base 5.24.3-1
 _ZNK8KWayland6Client13ShadowManager10metaObjectEv@Base 5.24.3-1
 _ZNK8KWayland6Client13ShadowManager7isValidEv@Base 5.24.3-1
 _ZNK8KWayland6Client13ShadowManagercvP27org_kde_kwin_shadow_managerEv@Base 5.24.3-1
 _ZNK8KWayland6Client13SubCompositor10metaObjectEv@Base 5.24.3-1
 _ZNK8KWayland6Client13SubCompositor7isValidEv@Base 5.24.3-1
 _ZNK8KWayland6Client13SubCompositorcvP16wl_subcompositorEv@Base 5.24.3-1
 _ZNK8KWayland6Client13XdgDecoration10metaObjectEv@Base 5.24.3-1
 _ZNK8KWayland6Client13XdgDecoration4modeEv@Base 5.24.3-1
 _ZNK8KWayland6Client13XdgDecoration7isValidEv@Base 5.24.3-1
 _ZNK8KWayland6Client13XdgDecorationcvP27zxdg_toplevel_decoration_v1Ev@Base 5.24.3-1
 _ZNK8KWayland6Client13XdgPositioner10anchorEdgeEv@Base 5.24.3-1
 _ZNK8KWayland6Client13XdgPositioner10anchorRectEv@Base 5.24.3-1
 _ZNK8KWayland6Client13XdgPositioner11constraintsEv@Base 5.24.3-1
 _ZNK8KWayland6Client13XdgPositioner11initialSizeEv@Base 5.24.3-1
 _ZNK8KWayland6Client13XdgPositioner12anchorOffsetEv@Base 5.24.3-1
 _ZNK8KWayland6Client13XdgPositioner7gravityEv@Base 5.24.3-1
 _ZNK8KWayland6Client13XdgShellPopup10metaObjectEv@Base 5.24.3-1
 _ZNK8KWayland6Client13XdgShellPopup7isValidEv@Base 5.24.3-1
 _ZNK8KWayland6Client13XdgShellPopupcvP11xdg_surfaceEv@Base 5.24.3-1
 _ZNK8KWayland6Client13XdgShellPopupcvP13zxdg_popup_v6Ev@Base 5.24.3-1
 _ZNK8KWayland6Client13XdgShellPopupcvP15zxdg_surface_v6Ev@Base 5.24.3-1
 _ZNK8KWayland6Client13XdgShellPopupcvP9xdg_popupEv@Base 5.24.3-1
 _ZNK8KWayland6Client14AppMenuManager10metaObjectEv@Base 5.24.3-1
 _ZNK8KWayland6Client14AppMenuManager7isValidEv@Base 5.24.3-1
 _ZNK8KWayland6Client14AppMenuManagercvP28org_kde_kwin_appmenu_managerEv@Base 5.24.3-1
 _ZNK8KWayland6Client15ConfinedPointer10metaObjectEv@Base 5.24.3-1
 _ZNK8KWayland6Client15ConfinedPointer7isValidEv@Base 5.24.3-1
 _ZNK8KWayland6Client15ConfinedPointercvP23zwp_confined_pointer_v1Ev@Base 5.24.3-1
 _ZNK8KWayland6Client15ContrastManager10metaObjectEv@Base 5.24.3-1
 _ZNK8KWayland6Client15ContrastManager7isValidEv@Base 5.24.3-1
 _ZNK8KWayland6Client15ContrastManagercvP29org_kde_kwin_contrast_managerEv@Base 5.24.3-1
 _ZNK8KWayland6Client15DDEShellSurface10metaObjectEv@Base 5.24.3-1
 _ZNK8KWayland6Client15DDEShellSurface11getGeometryEv@Base 5.24.3-1
 _ZNK8KWayland6Client15DDEShellSurface11isCloseableEv@Base 5.24.3-1
 _ZNK8KWayland6Client15DDEShellSurface11isKeepAboveEv@Base 5.24.3-1
 _ZNK8KWayland6Client15DDEShellSurface11isKeepBelowEv@Base 5.24.3-1
 _ZNK8KWayland6Client15DDEShellSurface11isMaximizedEv@Base 5.24.3-1
 _ZNK8KWayland6Client15DDEShellSurface11isMinimizedEv@Base 5.24.3-1
 _ZNK8KWayland6Client15DDEShellSurface11isResizableEv@Base 5.24.3-1
 _ZNK8KWayland6Client15DDEShellSurface12isFullscreenEv@Base 5.24.3-1
 _ZNK8KWayland6Client15DDEShellSurface13isAcceptFocusEv@Base 5.24.3-1
 _ZNK8KWayland6Client15DDEShellSurface13requestActiveEv@Base 5.24.3-1
 _ZNK8KWayland6Client15DDEShellSurface14isMaximizeableEv@Base 5.24.3-1
 _ZNK8KWayland6Client15DDEShellSurface14isMinimizeableEv@Base 5.24.3-1
 _ZNK8KWayland6Client15DDEShellSurface15requestGeometryEv@Base 5.24.3-1
 _ZNK8KWayland6Client15DDEShellSurface16isFullscreenableEv@Base 5.24.3-1
 _ZNK8KWayland6Client15DDEShellSurface7isModalEv@Base 5.24.3-1
 _ZNK8KWayland6Client15DDEShellSurface7isValidEv@Base 5.24.3-1
 _ZNK8KWayland6Client15DDEShellSurface8isActiveEv@Base 5.24.3-1
 _ZNK8KWayland6Client15DDEShellSurface9isMovableEv@Base 5.24.3-1
 _ZNK8KWayland6Client15DDEShellSurfacecvP17dde_shell_surfaceEv@Base 5.24.3-1
 _ZNK8KWayland6Client15FullscreenShell10eventQueueEv@Base 5.24.3-1
 _ZNK8KWayland6Client15FullscreenShell10metaObjectEv@Base 5.24.3-1
 _ZNK8KWayland6Client15FullscreenShell24hasCapabilityCursorPlaneEv@Base 5.24.3-1
 _ZNK8KWayland6Client15FullscreenShell27hasCapabilityArbitraryModesEv@Base 5.24.3-1
 _ZNK8KWayland6Client15FullscreenShell7isValidEv@Base 5.24.3-1
 _ZNK8KWayland6Client15PointerGestures10metaObjectEv@Base 5.24.3-1
 _ZNK8KWayland6Client15PointerGestures7isValidEv@Base 5.24.3-1
 _ZNK8KWayland6Client15PointerGesturescvP23zwp_pointer_gestures_v1Ev@Base 5.24.3-1
 _ZNK8KWayland6Client15RelativePointer10metaObjectEv@Base 5.24.3-1
 _ZNK8KWayland6Client15RelativePointer7isValidEv@Base 5.24.3-1
 _ZNK8KWayland6Client15RelativePointercvP23zwp_relative_pointer_v1Ev@Base 5.24.3-1
 _ZNK8KWayland6Client15XdgShellSurface10metaObjectEv@Base 5.24.3-1
 _ZNK8KWayland6Client15XdgShellSurface4sizeEv@Base 5.24.3-1
 _ZNK8KWayland6Client15XdgShellSurface7isValidEv@Base 5.24.3-1
 _ZNK8KWayland6Client15XdgShellSurfacecvP11xdg_surfaceEv@Base 5.24.3-1
 _ZNK8KWayland6Client15XdgShellSurfacecvP12xdg_toplevelEv@Base 5.24.3-1
 _ZNK8KWayland6Client15XdgShellSurfacecvP15zxdg_surface_v6Ev@Base 5.24.3-1
 _ZNK8KWayland6Client15XdgShellSurfacecvP16zxdg_toplevel_v6Ev@Base 5.24.3-1
 _ZNK8KWayland6Client16ClientManagement10eventQueueEv@Base 5.24.3-1
 _ZNK8KWayland6Client16ClientManagement10metaObjectEv@Base 5.24.3-1
 _ZNK8KWayland6Client16ClientManagement15getWindowStatesEv@Base 5.24.3-1
 _ZNK8KWayland6Client16ClientManagement7isValidEv@Base 5.24.3-1
 _ZNK8KWayland6Client16ClientManagementcvP28com_deepin_client_managementEv@Base 5.24.3-1
 _ZNK8KWayland6Client16ConnectionThread10metaObjectEv@Base 5.24.3-1
 _ZNK8KWayland6Client16ConnectionThread10socketNameEv@Base 5.24.3-1
 _ZNK8KWayland6Client16ConnectionThread8hasErrorEv@Base 5.24.3-1
 _ZNK8KWayland6Client16ConnectionThread9errorCodeEv@Base 5.24.3-1
 _ZNK8KWayland6Client16OutputManagement10metaObjectEv@Base 5.24.3-1
 _ZNK8KWayland6Client16OutputManagement7isValidEv@Base 5.24.3-1
 _ZNK8KWayland6Client16OutputManagementcvP29org_kde_kwin_outputmanagementEv@Base 5.24.3-1
 _ZNK8KWayland6Client16PlasmaActivation10metaObjectEv@Base 5.24.3-1
 _ZNK8KWayland6Client16TextInputManager10metaObjectEv@Base 5.24.3-1
 _ZNK8KWayland6Client16TextInputManager7isValidEv@Base 5.24.3-1
 _ZNK8KWayland6Client16TextInputManagercvP21wl_text_input_managerEv@Base 5.24.3-1
 _ZNK8KWayland6Client16TextInputManagercvP25zwp_text_input_manager_v2Ev@Base 5.24.3-1
 _ZNK8KWayland6Client16XdgOutputManager10metaObjectEv@Base 5.24.3-1
 _ZNK8KWayland6Client16XdgOutputManager7isValidEv@Base 5.24.3-1
 _ZNK8KWayland6Client16XdgOutputManagercvP22zxdg_output_manager_v1Ev@Base 5.24.3-1
 _ZNK8KWayland6Client17DataDeviceManager10metaObjectEv@Base 5.24.3-1
 _ZNK8KWayland6Client17DataDeviceManager7isValidEv@Base 5.24.3-1
 _ZNK8KWayland6Client17DataDeviceManagercvP22wl_data_device_managerEv@Base 5.24.3-1
 _ZNK8KWayland6Client17PlasmaWindowModel10metaObjectEv@Base 5.24.3-1
 _ZNK8KWayland6Client17PlasmaWindowModel4dataERK11QModelIndexi@Base 5.24.3-1
 _ZNK8KWayland6Client17PlasmaWindowModel5indexEiiRK11QModelIndex@Base 5.24.3-1
 _ZNK8KWayland6Client17PlasmaWindowModel8rowCountERK11QModelIndex@Base 5.24.3-1
 _ZNK8KWayland6Client17PlasmaWindowModel9roleNamesEv@Base 5.24.3-1
 _ZNK8KWayland6Client18IdleInhibitManager10metaObjectEv@Base 5.24.3-1
 _ZNK8KWayland6Client18IdleInhibitManager7isValidEv@Base 5.24.3-1
 _ZNK8KWayland6Client18IdleInhibitManagercvP27zwp_idle_inhibit_manager_v1Ev@Base 5.24.3-1
 _ZNK8KWayland6Client18PlasmaShellSurface10metaObjectEv@Base 5.24.3-1
 _ZNK8KWayland6Client18PlasmaShellSurface4roleEv@Base 5.24.3-1
 _ZNK8KWayland6Client18PlasmaShellSurface7isValidEv@Base 5.24.3-1
 _ZNK8KWayland6Client18PlasmaShellSurfacecvP22org_kde_plasma_surfaceEv@Base 5.24.3-1
 _ZNK8KWayland6Client18PointerConstraints10metaObjectEv@Base 5.24.3-1
 _ZNK8KWayland6Client18PointerConstraints7isValidEv@Base 5.24.3-1
 _ZNK8KWayland6Client18PointerConstraintscvP26zwp_pointer_constraints_v1Ev@Base 5.24.3-1
 _ZNK8KWayland6Client19OutputConfiguration10metaObjectEv@Base 5.24.3-1
 _ZNK8KWayland6Client19OutputConfiguration7isValidEv@Base 5.24.3-1
 _ZNK8KWayland6Client19OutputConfigurationcvP32org_kde_kwin_outputconfigurationEv@Base 5.24.3-1
 _ZNK8KWayland6Client19PointerPinchGesture10metaObjectEv@Base 5.24.3-1
 _ZNK8KWayland6Client19PointerPinchGesture11fingerCountEv@Base 5.24.3-1
 _ZNK8KWayland6Client19PointerPinchGesture7isValidEv@Base 5.24.3-1
 _ZNK8KWayland6Client19PointerPinchGesture7surfaceEv@Base 5.24.3-1
 _ZNK8KWayland6Client19PointerPinchGesturecvP28zwp_pointer_gesture_pinch_v1Ev@Base 5.24.3-1
 _ZNK8KWayland6Client19PointerSwipeGesture10metaObjectEv@Base 5.24.3-1
 _ZNK8KWayland6Client19PointerSwipeGesture11fingerCountEv@Base 5.24.3-1
 _ZNK8KWayland6Client19PointerSwipeGesture7isValidEv@Base 5.24.3-1
 _ZNK8KWayland6Client19PointerSwipeGesture7surfaceEv@Base 5.24.3-1
 _ZNK8KWayland6Client19PointerSwipeGesturecvP28zwp_pointer_gesture_swipe_v1Ev@Base 5.24.3-1
 _ZNK8KWayland6Client19RemoteAccessManager10metaObjectEv@Base 5.24.3-1
 _ZNK8KWayland6Client19RemoteAccessManager7isValidEv@Base 5.24.3-1
 _ZNK8KWayland6Client19RemoteAccessManagercvP34org_kde_kwin_remote_access_managerEv@Base 5.24.3-1
 _ZNK8KWayland6Client20PlasmaVirtualDesktop10metaObjectEv@Base 5.24.3-1
 _ZNK8KWayland6Client20PlasmaVirtualDesktop2idEv@Base 5.24.3-1
 _ZNK8KWayland6Client20PlasmaVirtualDesktop4nameEv@Base 5.24.3-1
 _ZNK8KWayland6Client20PlasmaVirtualDesktop7isValidEv@Base 5.24.3-1
 _ZNK8KWayland6Client20PlasmaVirtualDesktop8isActiveEv@Base 5.24.3-1
 _ZNK8KWayland6Client20PlasmaVirtualDesktopcvP30org_kde_plasma_virtual_desktopEv@Base 5.24.3-1
 _ZNK8KWayland6Client20ServerSideDecoration10metaObjectEv@Base 5.24.3-1
 _ZNK8KWayland6Client20ServerSideDecoration11defaultModeEv@Base 5.24.3-1
 _ZNK8KWayland6Client20ServerSideDecoration4modeEv@Base 5.24.3-1
 _ZNK8KWayland6Client20ServerSideDecoration7isValidEv@Base 5.24.3-1
 _ZNK8KWayland6Client20ServerSideDecorationcvP30org_kde_kwin_server_decorationEv@Base 5.24.3-1
 _ZNK8KWayland6Client20XdgDecorationManager10metaObjectEv@Base 5.24.3-1
 _ZNK8KWayland6Client20XdgDecorationManager7isValidEv@Base 5.24.3-1
 _ZNK8KWayland6Client20XdgDecorationManagercvP26zxdg_decoration_manager_v1Ev@Base 5.24.3-1
 _ZNK8KWayland6Client22PlasmaWindowManagement10metaObjectEv@Base 5.24.3-1
 _ZNK8KWayland6Client22PlasmaWindowManagement12activeWindowEv@Base 5.24.3-1
 _ZNK8KWayland6Client22PlasmaWindowManagement13stackingOrderEv@Base 5.24.3-1
 _ZNK8KWayland6Client22PlasmaWindowManagement16isShowingDesktopEv@Base 5.24.3-1
 _ZNK8KWayland6Client22PlasmaWindowManagement18stackingOrderUuidsEv@Base 5.24.3-1
 _ZNK8KWayland6Client22PlasmaWindowManagement7isValidEv@Base 5.24.3-1
 _ZNK8KWayland6Client22PlasmaWindowManagement7windowsEv@Base 5.24.3-1
 _ZNK8KWayland6Client22PlasmaWindowManagementcvP32org_kde_plasma_window_managementEv@Base 5.24.3-1
 _ZNK8KWayland6Client22RelativePointerManager10metaObjectEv@Base 5.24.3-1
 _ZNK8KWayland6Client22RelativePointerManager7isValidEv@Base 5.24.3-1
 _ZNK8KWayland6Client22RelativePointerManagercvP31zwp_relative_pointer_manager_v1Ev@Base 5.24.3-1
 _ZNK8KWayland6Client24PlasmaActivationFeedback10metaObjectEv@Base 5.24.3-1
 _ZNK8KWayland6Client24PlasmaActivationFeedback7isValidEv@Base 5.24.3-1
 _ZNK8KWayland6Client24PlasmaActivationFeedbackcvP34org_kde_plasma_activation_feedbackEv@Base 5.24.3-1
 _ZNK8KWayland6Client27ServerSideDecorationManager10metaObjectEv@Base 5.24.3-1
 _ZNK8KWayland6Client27ServerSideDecorationManager7isValidEv@Base 5.24.3-1
 _ZNK8KWayland6Client27ServerSideDecorationManagercvP38org_kde_kwin_server_decoration_managerEv@Base 5.24.3-1
 _ZNK8KWayland6Client27ServerSideDecorationPalette10metaObjectEv@Base 5.24.3-1
 _ZNK8KWayland6Client27ServerSideDecorationPalette7isValidEv@Base 5.24.3-1
 _ZNK8KWayland6Client27ServerSideDecorationPalettecvP38org_kde_kwin_server_decoration_paletteEv@Base 5.24.3-1
 _ZNK8KWayland6Client30PlasmaVirtualDesktopManagement10metaObjectEv@Base 5.24.3-1
 _ZNK8KWayland6Client30PlasmaVirtualDesktopManagement4rowsEv@Base 5.24.3-1
 _ZNK8KWayland6Client30PlasmaVirtualDesktopManagement7isValidEv@Base 5.24.3-1
 _ZNK8KWayland6Client30PlasmaVirtualDesktopManagement8desktopsEv@Base 5.24.3-1
 _ZNK8KWayland6Client30PlasmaVirtualDesktopManagementcvP41org_kde_plasma_virtual_desktop_managementEv@Base 5.24.3-1
 _ZNK8KWayland6Client34ServerSideDecorationPaletteManager10metaObjectEv@Base 5.24.3-1
 _ZNK8KWayland6Client34ServerSideDecorationPaletteManager7isValidEv@Base 5.24.3-1
 _ZNK8KWayland6Client34ServerSideDecorationPaletteManagercvP46org_kde_kwin_server_decoration_palette_managerEv@Base 5.24.3-1
 _ZNK8KWayland6Client4Blur10metaObjectEv@Base 5.24.3-1
 _ZNK8KWayland6Client4Blur7isValidEv@Base 5.24.3-1
 _ZNK8KWayland6Client4BlurcvP17org_kde_kwin_blurEv@Base 5.24.3-1
 _ZNK8KWayland6Client4Dpms10metaObjectEv@Base 5.24.3-1
 _ZNK8KWayland6Client4Dpms11isSupportedEv@Base 5.24.3-1
 _ZNK8KWayland6Client4Dpms4modeEv@Base 5.24.3-1
 _ZNK8KWayland6Client4Dpms6outputEv@Base 5.24.3-1
 _ZNK8KWayland6Client4Dpms7isValidEv@Base 5.24.3-1
 _ZNK8KWayland6Client4DpmscvP17org_kde_kwin_dpmsEv@Base 5.24.3-1
 _ZNK8KWayland6Client4Idle10metaObjectEv@Base 5.24.3-1
 _ZNK8KWayland6Client4Idle7isValidEv@Base 5.24.3-1
 _ZNK8KWayland6Client4IdlecvP17org_kde_kwin_idleEv@Base 5.24.3-1
 _ZNK8KWayland6Client4Seat10hasPointerEv@Base 5.24.3-1
 _ZNK8KWayland6Client4Seat10metaObjectEv@Base 5.24.3-1
 _ZNK8KWayland6Client4Seat11hasKeyboardEv@Base 5.24.3-1
 _ZNK8KWayland6Client4Seat4nameEv@Base 5.24.3-1
 _ZNK8KWayland6Client4Seat7isValidEv@Base 5.24.3-1
 _ZNK8KWayland6Client4Seat8hasTouchEv@Base 5.24.3-1
 _ZNK8KWayland6Client4SeatcvP7wl_seatEv@Base 5.24.3-1
 _ZNK8KWayland6Client5Shell10metaObjectEv@Base 5.24.3-1
 _ZNK8KWayland6Client5Shell7isValidEv@Base 5.24.3-1
 _ZNK8KWayland6Client5ShellcvP8wl_shellEv@Base 5.24.3-1
 _ZNK8KWayland6Client5Slide10metaObjectEv@Base 5.24.3-1
 _ZNK8KWayland6Client5Slide7isValidEv@Base 5.24.3-1
 _ZNK8KWayland6Client5SlidecvP18org_kde_kwin_slideEv@Base 5.24.3-1
 _ZNK8KWayland6Client5Strut10metaObjectEv@Base 5.24.3-1
 _ZNK8KWayland6Client5Strut7isValidEv@Base 5.24.3-1
 _ZNK8KWayland6Client5StrutcvP21com_deepin_kwin_strutEv@Base 5.24.3-1
 _ZNK8KWayland6Client5Touch10metaObjectEv@Base 5.24.3-1
 _ZNK8KWayland6Client5Touch7isValidEv@Base 5.24.3-1
 _ZNK8KWayland6Client5Touch8sequenceEv@Base 5.24.3-1
 _ZNK8KWayland6Client5TouchcvP8wl_touchEv@Base 5.24.3-1
 _ZNK8KWayland6Client6Buffer10isReleasedEv@Base 5.24.3-1
 _ZNK8KWayland6Client6Buffer4sizeEv@Base 5.24.3-1
 _ZNK8KWayland6Client6Buffer6bufferEv@Base 5.24.3-1
 _ZNK8KWayland6Client6Buffer6formatEv@Base 5.24.3-1
 _ZNK8KWayland6Client6Buffer6isUsedEv@Base 5.24.3-1
 _ZNK8KWayland6Client6Buffer6strideEv@Base 5.24.3-1
 _ZNK8KWayland6Client6BuffercvP9wl_bufferEv@Base 5.24.3-1
 _ZNK8KWayland6Client6Output10eventQueueEv@Base 5.24.3-1
 _ZNK8KWayland6Client6Output10metaObjectEv@Base 5.24.3-1
 _ZNK8KWayland6Client6Output11refreshRateEv@Base 5.24.3-1
 _ZNK8KWayland6Client6Output12manufacturerEv@Base 5.24.3-1
 _ZNK8KWayland6Client6Output12physicalSizeEv@Base 5.24.3-1
 _ZNK8KWayland6Client6Output14globalPositionEv@Base 5.24.3-1
 _ZNK8KWayland6Client6Output4ModeeqERKS2_@Base 5.24.3-1
 _ZNK8KWayland6Client6Output5modelEv@Base 5.24.3-1
 _ZNK8KWayland6Client6Output5modesEv@Base 5.24.3-1
 _ZNK8KWayland6Client6Output5scaleEv@Base 5.24.3-1
 _ZNK8KWayland6Client6Output7isValidEv@Base 5.24.3-1
 _ZNK8KWayland6Client6Output8geometryEv@Base 5.24.3-1
 _ZNK8KWayland6Client6Output8subPixelEv@Base 5.24.3-1
 _ZNK8KWayland6Client6Output9pixelSizeEv@Base 5.24.3-1
 _ZNK8KWayland6Client6Output9transformEv@Base 5.24.3-1
 _ZNK8KWayland6Client6OutputcvP9wl_outputEv@Base 5.24.3-1
 _ZNK8KWayland6Client6Region10metaObjectEv@Base 5.24.3-1
 _ZNK8KWayland6Client6Region6regionEv@Base 5.24.3-1
 _ZNK8KWayland6Client6Region7isValidEv@Base 5.24.3-1
 _ZNK8KWayland6Client6RegioncvP9wl_regionEv@Base 5.24.3-1
 _ZNK8KWayland6Client6Shadow10metaObjectEv@Base 5.24.3-1
 _ZNK8KWayland6Client6Shadow7isValidEv@Base 5.24.3-1
 _ZNK8KWayland6Client6ShadowcvP19org_kde_kwin_shadowEv@Base 5.24.3-1
 _ZNK8KWayland6Client7AppMenu10metaObjectEv@Base 5.24.3-1
 _ZNK8KWayland6Client7AppMenu7isValidEv@Base 5.24.3-1
 _ZNK8KWayland6Client7AppMenucvP20org_kde_kwin_appmenuEv@Base 5.24.3-1
 _ZNK8KWayland6Client7DDESeat10eventQueueEv@Base 5.24.3-1
 _ZNK8KWayland6Client7DDESeat10metaObjectEv@Base 5.24.3-1
 _ZNK8KWayland6Client7DDESeat7isValidEv@Base 5.24.3-1
 _ZNK8KWayland6Client7DDESeatcvP8dde_seatEv@Base 5.24.3-1
 _ZNK8KWayland6Client7Pointer10metaObjectEv@Base 5.24.3-1
 _ZNK8KWayland6Client7Pointer14enteredSurfaceEv@Base 5.24.3-1
 _ZNK8KWayland6Client7Pointer7isValidEv@Base 5.24.3-1
 _ZNK8KWayland6Client7PointercvP10wl_pointerEv@Base 5.24.3-1
 _ZNK8KWayland6Client7ShmPool10metaObjectEv@Base 5.24.3-1
 _ZNK8KWayland6Client7ShmPool11poolAddressEv@Base 5.24.3-1
 _ZNK8KWayland6Client7ShmPool7isValidEv@Base 5.24.3-1
 _ZNK8KWayland6Client7Surface10metaObjectEv@Base 5.24.3-1
 _ZNK8KWayland6Client7Surface2idEv@Base 5.24.3-1
 _ZNK8KWayland6Client7Surface4sizeEv@Base 5.24.3-1
 _ZNK8KWayland6Client7Surface5scaleEv@Base 5.24.3-1
 _ZNK8KWayland6Client7Surface7isValidEv@Base 5.24.3-1
 _ZNK8KWayland6Client7Surface7outputsEv@Base 5.24.3-1
 _ZNK8KWayland6Client7SurfacecvP10wl_surfaceEv@Base 5.24.3-1
 _ZNK8KWayland6Client8Contrast10metaObjectEv@Base 5.24.3-1
 _ZNK8KWayland6Client8Contrast7isValidEv@Base 5.24.3-1
 _ZNK8KWayland6Client8ContrastcvP21org_kde_kwin_contrastEv@Base 5.24.3-1
 _ZNK8KWayland6Client8DDEShell10eventQueueEv@Base 5.24.3-1
 _ZNK8KWayland6Client8DDEShell10metaObjectEv@Base 5.24.3-1
 _ZNK8KWayland6Client8DDEShell7isValidEv@Base 5.24.3-1
 _ZNK8KWayland6Client8DDEShellcvP9dde_shellEv@Base 5.24.3-1
 _ZNK8KWayland6Client8DDETouch10metaObjectEv@Base 5.24.3-1
 _ZNK8KWayland6Client8DDETouch7isValidEv@Base 5.24.3-1
 _ZNK8KWayland6Client8DDETouchcvP9dde_touchEv@Base 5.24.3-1
 _ZNK8KWayland6Client8Keyboard10metaObjectEv@Base 5.24.3-1
 _ZNK8KWayland6Client8Keyboard13keyRepeatRateEv@Base 5.24.3-1
 _ZNK8KWayland6Client8Keyboard14enteredSurfaceEv@Base 5.24.3-1
 _ZNK8KWayland6Client8Keyboard14keyRepeatDelayEv@Base 5.24.3-1
 _ZNK8KWayland6Client8Keyboard18isKeyRepeatEnabledEv@Base 5.24.3-1
 _ZNK8KWayland6Client8Keyboard7isValidEv@Base 5.24.3-1
 _ZNK8KWayland6Client8KeyboardcvP11wl_keyboardEv@Base 5.24.3-1
 _ZNK8KWayland6Client8Keystate10metaObjectEv@Base 5.24.3-1
 _ZNK8KWayland6Client8Registry10bindOutputEjj@Base 5.24.3-1
 _ZNK8KWayland6Client8Registry10interfacesENS1_9InterfaceE@Base 5.24.3-1
 _ZNK8KWayland6Client8Registry10metaObjectEv@Base 5.24.3-1
 _ZNK8KWayland6Client8Registry11bindDDESeatEjj@Base 5.24.3-1
 _ZNK8KWayland6Client8Registry12bindDDEShellEjj@Base 5.24.3-1
 _ZNK8KWayland6Client8Registry12bindKeystateEjj@Base 5.24.3-1
 _ZNK8KWayland6Client8Registry12hasInterfaceENS1_9InterfaceE@Base 5.24.3-1
 _ZNK8KWayland6Client8Registry13bindFakeInputEjj@Base 5.24.3-1
 _ZNK8KWayland6Client8Registry14bindCompositorEjj@Base 5.24.3-1
 _ZNK8KWayland6Client8Registry15bindBlurManagerEjj@Base 5.24.3-1
 _ZNK8KWayland6Client8Registry15bindDpmsManagerEjj@Base 5.24.3-1
 _ZNK8KWayland6Client8Registry15bindPlasmaShellEjj@Base 5.24.3-1
 _ZNK8KWayland6Client8Registry16bindOutputDeviceEjj@Base 5.24.3-1
 _ZNK8KWayland6Client8Registry16bindSlideManagerEjj@Base 5.24.3-1
 _ZNK8KWayland6Client8Registry17bindShadowManagerEjj@Base 5.24.3-1
 _ZNK8KWayland6Client8Registry17bindSubCompositorEjj@Base 5.24.3-1
 _ZNK8KWayland6Client8Registry18bindAppMenuManagerEjj@Base 5.24.3-1
 _ZNK8KWayland6Client8Registry18bindXdgShellStableEjj@Base 5.24.3-1
 _ZNK8KWayland6Client8Registry19bindContrastManagerEjj@Base 5.24.3-1
 _ZNK8KWayland6Client8Registry19bindFullscreenShellEjj@Base 5.24.3-1
 _ZNK8KWayland6Client8Registry20bindClientManagementEjj@Base 5.24.3-1
 _ZNK8KWayland6Client8Registry20bindOutputManagementEjj@Base 5.24.3-1
 _ZNK8KWayland6Client8Registry21bindDataDeviceManagerEjj@Base 5.24.3-1
 _ZNK8KWayland6Client8Registry22bindXdgShellUnstableV5Ejj@Base 5.24.3-1
 _ZNK8KWayland6Client8Registry22bindXdgShellUnstableV6Ejj@Base 5.24.3-1
 _ZNK8KWayland6Client8Registry23bindRemoteAccessManagerEjj@Base 5.24.3-1
 _ZNK8KWayland6Client8Registry23bindXdgOutputUnstableV1Ejj@Base 5.24.3-1
 _ZNK8KWayland6Client8Registry25bindXdgExporterUnstableV2Ejj@Base 5.24.3-1
 _ZNK8KWayland6Client8Registry25bindXdgImporterUnstableV2Ejj@Base 5.24.3-1
 _ZNK8KWayland6Client8Registry26bindPlasmaWindowManagementEjj@Base 5.24.3-1
 _ZNK8KWayland6Client8Registry27bindXdgDecorationUnstableV1Ejj@Base 5.24.3-1
 _ZNK8KWayland6Client8Registry28bindPlasmaActivationFeedbackEjj@Base 5.24.3-1
 _ZNK8KWayland6Client8Registry29bindPointerGesturesUnstableV1Ejj@Base 5.24.3-1
 _ZNK8KWayland6Client8Registry30bindTextInputManagerUnstableV0Ejj@Base 5.24.3-1
 _ZNK8KWayland6Client8Registry30bindTextInputManagerUnstableV2Ejj@Base 5.24.3-1
 _ZNK8KWayland6Client8Registry31bindServerSideDecorationManagerEjj@Base 5.24.3-1
 _ZNK8KWayland6Client8Registry32bindIdleInhibitManagerUnstableV1Ejj@Base 5.24.3-1
 _ZNK8KWayland6Client8Registry32bindPointerConstraintsUnstableV1Ejj@Base 5.24.3-1
 _ZNK8KWayland6Client8Registry34bindPlasmaVirtualDesktopManagementEjj@Base 5.24.3-1
 _ZNK8KWayland6Client8Registry36bindRelativePointerManagerUnstableV1Ejj@Base 5.24.3-1
 _ZNK8KWayland6Client8Registry38bindServerSideDecorationPaletteManagerEjj@Base 5.24.3-1
 _ZNK8KWayland6Client8Registry7bindShmEjj@Base 5.24.3-1
 _ZNK8KWayland6Client8Registry7isValidEv@Base 5.24.3-1
 _ZNK8KWayland6Client8Registry8bindIdleEjj@Base 5.24.3-1
 _ZNK8KWayland6Client8Registry8bindSeatEjj@Base 5.24.3-1
 _ZNK8KWayland6Client8Registry9bindShellEjj@Base 5.24.3-1
 _ZNK8KWayland6Client8Registry9bindStrutEjj@Base 5.24.3-1
 _ZNK8KWayland6Client8Registry9interfaceENS1_9InterfaceE@Base 5.24.3-1
 _ZNK8KWayland6Client8RegistrycvP11wl_registryEv@Base 5.24.3-1
 _ZNK8KWayland6Client8XdgShell10metaObjectEv@Base 5.24.3-1
 _ZNK8KWayland6Client8XdgShell7isValidEv@Base 5.24.3-1
 _ZNK8KWayland6Client8XdgShellcvP11xdg_wm_baseEv@Base 5.24.3-1
 _ZNK8KWayland6Client8XdgShellcvP13zxdg_shell_v6Ev@Base 5.24.3-1
 _ZNK8KWayland6Client8XdgShellcvP9xdg_shellEv@Base 5.24.3-1
 _ZNK8KWayland6Client9DataOffer10metaObjectEv@Base 5.24.3-1
 _ZNK8KWayland6Client9DataOffer16offeredMimeTypesEv@Base 5.24.3-1
 _ZNK8KWayland6Client9DataOffer24sourceDragAndDropActionsEv@Base 5.24.3-1
 _ZNK8KWayland6Client9DataOffer25selectedDragAndDropActionEv@Base 5.24.3-1
 _ZNK8KWayland6Client9DataOffer7isValidEv@Base 5.24.3-1
 _ZNK8KWayland6Client9DataOffercvP13wl_data_offerEv@Base 5.24.3-1
 _ZNK8KWayland6Client9FakeInput10metaObjectEv@Base 5.24.3-1
 _ZNK8KWayland6Client9FakeInput7isValidEv@Base 5.24.3-1
 _ZNK8KWayland6Client9FakeInputcvP23org_kde_kwin_fake_inputEv@Base 5.24.3-1
 _ZNK8KWayland6Client9TextInput10commitTextEv@Base 5.24.3-1
 _ZNK8KWayland6Client9TextInput10eventQueueEv@Base 5.24.3-1
 _ZNK8KWayland6Client9TextInput10metaObjectEv@Base 5.24.3-1
 _ZNK8KWayland6Client9TextInput13composingTextEv@Base 5.24.3-1
 _ZNK8KWayland6Client9TextInput13textDirectionEv@Base 5.24.3-1
 _ZNK8KWayland6Client9TextInput14anchorPositionEv@Base 5.24.3-1
 _ZNK8KWayland6Client9TextInput14cursorPositionEv@Base 5.24.3-1
 _ZNK8KWayland6Client9TextInput14enteredSurfaceEv@Base 5.24.3-1
 _ZNK8KWayland6Client9TextInput19isInputPanelVisibleEv@Base 5.24.3-1
 _ZNK8KWayland6Client9TextInput21composingFallbackTextEv@Base 5.24.3-1
 _ZNK8KWayland6Client9TextInput21deleteSurroundingTextEv@Base 5.24.3-1
 _ZNK8KWayland6Client9TextInput27composingTextCursorPositionEv@Base 5.24.3-1
 _ZNK8KWayland6Client9TextInput7isValidEv@Base 5.24.3-1
 _ZNK8KWayland6Client9TextInput8languageEv@Base 5.24.3-1
 _ZNK8KWayland6Client9XdgOutput10metaObjectEv@Base 5.24.3-1
 _ZNK8KWayland6Client9XdgOutput11descriptionEv@Base 5.24.3-1
 _ZNK8KWayland6Client9XdgOutput11logicalSizeEv@Base 5.24.3-1
 _ZNK8KWayland6Client9XdgOutput15logicalPositionEv@Base 5.24.3-1
 _ZNK8KWayland6Client9XdgOutput4nameEv@Base 5.24.3-1
 _ZNK8KWayland6Client9XdgOutput7isValidEv@Base 5.24.3-1
 _ZNK8KWayland6Client9XdgOutputcvP14zxdg_output_v1Ev@Base 5.24.3-1
 _ZTIN8KWayland6Client10CompositorE@Base 5.24.3-1
 _ZTIN8KWayland6Client10DDEPointerE@Base 5.24.3-1
 _ZTIN8KWayland6Client10DataDeviceE@Base 5.24.3-1
 _ZTIN8KWayland6Client10DataSourceE@Base 5.24.3-1
 _ZTIN8KWayland6Client10EventQueueE@Base 5.24.3-1
 _ZTIN8KWayland6Client10SubSurfaceE@Base 5.24.3-1
 _ZTIN8KWayland6Client10TouchPointE@Base 5.24.3-1
 _ZTIN8KWayland6Client11BlurManagerE@Base 5.24.3-1
 _ZTIN8KWayland6Client11DDEKeyboardE@Base 5.24.3-1
 _ZTIN8KWayland6Client11DpmsManagerE@Base 5.24.3-1
 _ZTIN8KWayland6Client11IdleTimeoutE@Base 5.24.3-1
 _ZTIN8KWayland6Client11PlasmaShellE@Base 5.24.3-1
 _ZTIN8KWayland6Client11XdgExportedE@Base 5.24.3-1
 _ZTIN8KWayland6Client11XdgExporterE@Base 5.24.3-1
 _ZTIN8KWayland6Client11XdgImportedE@Base 5.24.3-1
 _ZTIN8KWayland6Client11XdgImporterE@Base 5.24.3-1
 _ZTIN8KWayland6Client12OutputDeviceE@Base 5.24.3-1
 _ZTIN8KWayland6Client12PlasmaWindowE@Base 5.24.3-1
 _ZTIN8KWayland6Client12RemoteBufferE@Base 5.24.3-1
 _ZTIN8KWayland6Client12ShellSurfaceE@Base 5.24.3-1
 _ZTIN8KWayland6Client12SlideManagerE@Base 5.24.3-1
 _ZTIN8KWayland6Client13IdleInhibitorE@Base 5.24.3-1
 _ZTIN8KWayland6Client13LockedPointerE@Base 5.24.3-1
 _ZTIN8KWayland6Client13ShadowManagerE@Base 5.24.3-1
 _ZTIN8KWayland6Client13SubCompositorE@Base 5.24.3-1
 _ZTIN8KWayland6Client13XdgDecorationE@Base 5.24.3-1
 _ZTIN8KWayland6Client13XdgShellPopupE@Base 5.24.3-1
 _ZTIN8KWayland6Client14AppMenuManagerE@Base 5.24.3-1
 _ZTIN8KWayland6Client15ConfinedPointerE@Base 5.24.3-1
 _ZTIN8KWayland6Client15ContrastManagerE@Base 5.24.3-1
 _ZTIN8KWayland6Client15DDEShellSurfaceE@Base 5.24.3-1
 _ZTIN8KWayland6Client15FullscreenShellE@Base 5.24.3-1
 _ZTIN8KWayland6Client15PointerGesturesE@Base 5.24.3-1
 _ZTIN8KWayland6Client15RelativePointerE@Base 5.24.3-1
 _ZTIN8KWayland6Client15XdgShellSurfaceE@Base 5.24.3-1
 _ZTIN8KWayland6Client16ClientManagementE@Base 5.24.3-1
 _ZTIN8KWayland6Client16ConnectionThreadE@Base 5.24.3-1
 _ZTIN8KWayland6Client16OutputManagementE@Base 5.24.3-1
 _ZTIN8KWayland6Client16PlasmaActivationE@Base 5.24.3-1
 _ZTIN8KWayland6Client16TextInputManagerE@Base 5.24.3-1
 _ZTIN8KWayland6Client16XdgOutputManagerE@Base 5.24.3-1
 _ZTIN8KWayland6Client17DataDeviceManagerE@Base 5.24.3-1
 _ZTIN8KWayland6Client17PlasmaWindowModelE@Base 5.24.3-1
 _ZTIN8KWayland6Client18IdleInhibitManagerE@Base 5.24.3-1
 _ZTIN8KWayland6Client18PlasmaShellSurfaceE@Base 5.24.3-1
 _ZTIN8KWayland6Client18PointerConstraintsE@Base 5.24.3-1
 _ZTIN8KWayland6Client19OutputConfigurationE@Base 5.24.3-1
 _ZTIN8KWayland6Client19PointerPinchGestureE@Base 5.24.3-1
 _ZTIN8KWayland6Client19PointerSwipeGestureE@Base 5.24.3-1
 _ZTIN8KWayland6Client19RemoteAccessManagerE@Base 5.24.3-1
 _ZTIN8KWayland6Client20PlasmaVirtualDesktopE@Base 5.24.3-1
 _ZTIN8KWayland6Client20ServerSideDecorationE@Base 5.24.3-1
 _ZTIN8KWayland6Client20XdgDecorationManagerE@Base 5.24.3-1
 _ZTIN8KWayland6Client22PlasmaWindowManagementE@Base 5.24.3-1
 _ZTIN8KWayland6Client22RelativePointerManagerE@Base 5.24.3-1
 _ZTIN8KWayland6Client24PlasmaActivationFeedbackE@Base 5.24.3-1
 _ZTIN8KWayland6Client27ServerSideDecorationManagerE@Base 5.24.3-1
 _ZTIN8KWayland6Client27ServerSideDecorationPaletteE@Base 5.24.3-1
 _ZTIN8KWayland6Client30PlasmaVirtualDesktopManagementE@Base 5.24.3-1
 _ZTIN8KWayland6Client34ServerSideDecorationPaletteManagerE@Base 5.24.3-1
 _ZTIN8KWayland6Client4BlurE@Base 5.24.3-1
 _ZTIN8KWayland6Client4DpmsE@Base 5.24.3-1
 _ZTIN8KWayland6Client4IdleE@Base 5.24.3-1
 _ZTIN8KWayland6Client4SeatE@Base 5.24.3-1
 _ZTIN8KWayland6Client5ShellE@Base 5.24.3-1
 _ZTIN8KWayland6Client5SlideE@Base 5.24.3-1
 _ZTIN8KWayland6Client5StrutE@Base 5.24.3-1
 _ZTIN8KWayland6Client5TouchE@Base 5.24.3-1
 _ZTIN8KWayland6Client6OutputE@Base 5.24.3-1
 _ZTIN8KWayland6Client6RegionE@Base 5.24.3-1
 _ZTIN8KWayland6Client6ShadowE@Base 5.24.3-1
 _ZTIN8KWayland6Client7AppMenuE@Base 5.24.3-1
 _ZTIN8KWayland6Client7DDESeatE@Base 5.24.3-1
 _ZTIN8KWayland6Client7PointerE@Base 5.24.3-1
 _ZTIN8KWayland6Client7ShmPoolE@Base 5.24.3-1
 _ZTIN8KWayland6Client7SurfaceE@Base 5.24.3-1
 _ZTIN8KWayland6Client8ContrastE@Base 5.24.3-1
 _ZTIN8KWayland6Client8DDEShellE@Base 5.24.3-1
 _ZTIN8KWayland6Client8DDETouchE@Base 5.24.3-1
 _ZTIN8KWayland6Client8KeyboardE@Base 5.24.3-1
 _ZTIN8KWayland6Client8KeystateE@Base 5.24.3-1
 _ZTIN8KWayland6Client8RegistryE@Base 5.24.3-1
 _ZTIN8KWayland6Client8XdgShellE@Base 5.24.3-1
 _ZTIN8KWayland6Client9DataOfferE@Base 5.24.3-1
 _ZTIN8KWayland6Client9FakeInputE@Base 5.24.3-1
 _ZTIN8KWayland6Client9TextInputE@Base 5.24.3-1
 _ZTIN8KWayland6Client9XdgOutputE@Base 5.24.3-1
 _ZTSN8KWayland6Client10CompositorE@Base 5.24.3-1
 _ZTSN8KWayland6Client10DDEPointerE@Base 5.24.3-1
 _ZTSN8KWayland6Client10DataDeviceE@Base 5.24.3-1
 _ZTSN8KWayland6Client10DataSourceE@Base 5.24.3-1
 _ZTSN8KWayland6Client10EventQueueE@Base 5.24.3-1
 _ZTSN8KWayland6Client10SubSurfaceE@Base 5.24.3-1
 _ZTSN8KWayland6Client10TouchPointE@Base 5.24.3-1
 _ZTSN8KWayland6Client11BlurManagerE@Base 5.24.3-1
 _ZTSN8KWayland6Client11DDEKeyboardE@Base 5.24.3-1
 _ZTSN8KWayland6Client11DpmsManagerE@Base 5.24.3-1
 _ZTSN8KWayland6Client11IdleTimeoutE@Base 5.24.3-1
 _ZTSN8KWayland6Client11PlasmaShellE@Base 5.24.3-1
 _ZTSN8KWayland6Client11XdgExportedE@Base 5.24.3-1
 _ZTSN8KWayland6Client11XdgExporterE@Base 5.24.3-1
 _ZTSN8KWayland6Client11XdgImportedE@Base 5.24.3-1
 _ZTSN8KWayland6Client11XdgImporterE@Base 5.24.3-1
 _ZTSN8KWayland6Client12OutputDeviceE@Base 5.24.3-1
 _ZTSN8KWayland6Client12PlasmaWindowE@Base 5.24.3-1
 _ZTSN8KWayland6Client12RemoteBufferE@Base 5.24.3-1
 _ZTSN8KWayland6Client12ShellSurfaceE@Base 5.24.3-1
 _ZTSN8KWayland6Client12SlideManagerE@Base 5.24.3-1
 _ZTSN8KWayland6Client13IdleInhibitorE@Base 5.24.3-1
 _ZTSN8KWayland6Client13LockedPointerE@Base 5.24.3-1
 _ZTSN8KWayland6Client13ShadowManagerE@Base 5.24.3-1
 _ZTSN8KWayland6Client13SubCompositorE@Base 5.24.3-1
 _ZTSN8KWayland6Client13XdgDecorationE@Base 5.24.3-1
 _ZTSN8KWayland6Client13XdgShellPopupE@Base 5.24.3-1
 _ZTSN8KWayland6Client14AppMenuManagerE@Base 5.24.3-1
 _ZTSN8KWayland6Client15ConfinedPointerE@Base 5.24.3-1
 _ZTSN8KWayland6Client15ContrastManagerE@Base 5.24.3-1
 _ZTSN8KWayland6Client15DDEShellSurfaceE@Base 5.24.3-1
 _ZTSN8KWayland6Client15FullscreenShellE@Base 5.24.3-1
 _ZTSN8KWayland6Client15PointerGesturesE@Base 5.24.3-1
 _ZTSN8KWayland6Client15RelativePointerE@Base 5.24.3-1
 _ZTSN8KWayland6Client15XdgShellSurfaceE@Base 5.24.3-1
 _ZTSN8KWayland6Client16ClientManagementE@Base 5.24.3-1
 _ZTSN8KWayland6Client16ConnectionThreadE@Base 5.24.3-1
 _ZTSN8KWayland6Client16OutputManagementE@Base 5.24.3-1
 _ZTSN8KWayland6Client16PlasmaActivationE@Base 5.24.3-1
 _ZTSN8KWayland6Client16TextInputManagerE@Base 5.24.3-1
 _ZTSN8KWayland6Client16XdgOutputManagerE@Base 5.24.3-1
 _ZTSN8KWayland6Client17DataDeviceManagerE@Base 5.24.3-1
 _ZTSN8KWayland6Client17PlasmaWindowModelE@Base 5.24.3-1
 _ZTSN8KWayland6Client18IdleInhibitManagerE@Base 5.24.3-1
 _ZTSN8KWayland6Client18PlasmaShellSurfaceE@Base 5.24.3-1
 _ZTSN8KWayland6Client18PointerConstraintsE@Base 5.24.3-1
 _ZTSN8KWayland6Client19OutputConfigurationE@Base 5.24.3-1
 _ZTSN8KWayland6Client19PointerPinchGestureE@Base 5.24.3-1
 _ZTSN8KWayland6Client19PointerSwipeGestureE@Base 5.24.3-1
 _ZTSN8KWayland6Client19RemoteAccessManagerE@Base 5.24.3-1
 _ZTSN8KWayland6Client20PlasmaVirtualDesktopE@Base 5.24.3-1
 _ZTSN8KWayland6Client20ServerSideDecorationE@Base 5.24.3-1
 _ZTSN8KWayland6Client20XdgDecorationManagerE@Base 5.24.3-1
 _ZTSN8KWayland6Client22PlasmaWindowManagementE@Base 5.24.3-1
 _ZTSN8KWayland6Client22RelativePointerManagerE@Base 5.24.3-1
 _ZTSN8KWayland6Client24PlasmaActivationFeedbackE@Base 5.24.3-1
 _ZTSN8KWayland6Client27ServerSideDecorationManagerE@Base 5.24.3-1
 _ZTSN8KWayland6Client27ServerSideDecorationPaletteE@Base 5.24.3-1
 _ZTSN8KWayland6Client30PlasmaVirtualDesktopManagementE@Base 5.24.3-1
 _ZTSN8KWayland6Client34ServerSideDecorationPaletteManagerE@Base 5.24.3-1
 _ZTSN8KWayland6Client4BlurE@Base 5.24.3-1
 _ZTSN8KWayland6Client4DpmsE@Base 5.24.3-1
 _ZTSN8KWayland6Client4IdleE@Base 5.24.3-1
 _ZTSN8KWayland6Client4SeatE@Base 5.24.3-1
 _ZTSN8KWayland6Client5ShellE@Base 5.24.3-1
 _ZTSN8KWayland6Client5SlideE@Base 5.24.3-1
 _ZTSN8KWayland6Client5StrutE@Base 5.24.3-1
 _ZTSN8KWayland6Client5TouchE@Base 5.24.3-1
 _ZTSN8KWayland6Client6OutputE@Base 5.24.3-1
 _ZTSN8KWayland6Client6RegionE@Base 5.24.3-1
 _ZTSN8KWayland6Client6ShadowE@Base 5.24.3-1
 _ZTSN8KWayland6Client7AppMenuE@Base 5.24.3-1
 _ZTSN8KWayland6Client7DDESeatE@Base 5.24.3-1
 _ZTSN8KWayland6Client7PointerE@Base 5.24.3-1
 _ZTSN8KWayland6Client7ShmPoolE@Base 5.24.3-1
 _ZTSN8KWayland6Client7SurfaceE@Base 5.24.3-1
 _ZTSN8KWayland6Client8ContrastE@Base 5.24.3-1
 _ZTSN8KWayland6Client8DDEShellE@Base 5.24.3-1
 _ZTSN8KWayland6Client8DDETouchE@Base 5.24.3-1
 _ZTSN8KWayland6Client8KeyboardE@Base 5.24.3-1
 _ZTSN8KWayland6Client8KeystateE@Base 5.24.3-1
 _ZTSN8KWayland6Client8RegistryE@Base 5.24.3-1
 _ZTSN8KWayland6Client8XdgShellE@Base 5.24.3-1
 _ZTSN8KWayland6Client9DataOfferE@Base 5.24.3-1
 _ZTSN8KWayland6Client9FakeInputE@Base 5.24.3-1
 _ZTSN8KWayland6Client9TextInputE@Base 5.24.3-1
 _ZTSN8KWayland6Client9XdgOutputE@Base 5.24.3-1
 _ZTVN8KWayland6Client10CompositorE@Base 5.24.3-1
 _ZTVN8KWayland6Client10DDEPointerE@Base 5.24.3-1
 _ZTVN8KWayland6Client10DataDeviceE@Base 5.24.3-1
 _ZTVN8KWayland6Client10DataSourceE@Base 5.24.3-1
 _ZTVN8KWayland6Client10EventQueueE@Base 5.24.3-1
 _ZTVN8KWayland6Client10SubSurfaceE@Base 5.24.3-1
 _ZTVN8KWayland6Client10TouchPointE@Base 5.24.3-1
 _ZTVN8KWayland6Client11BlurManagerE@Base 5.24.3-1
 _ZTVN8KWayland6Client11DDEKeyboardE@Base 5.24.3-1
 _ZTVN8KWayland6Client11DpmsManagerE@Base 5.24.3-1
 _ZTVN8KWayland6Client11IdleTimeoutE@Base 5.24.3-1
 _ZTVN8KWayland6Client11PlasmaShellE@Base 5.24.3-1
 _ZTVN8KWayland6Client11XdgExportedE@Base 5.24.3-1
 _ZTVN8KWayland6Client11XdgExporterE@Base 5.24.3-1
 _ZTVN8KWayland6Client11XdgImportedE@Base 5.24.3-1
 _ZTVN8KWayland6Client11XdgImporterE@Base 5.24.3-1
 _ZTVN8KWayland6Client12OutputDeviceE@Base 5.24.3-1
 _ZTVN8KWayland6Client12PlasmaWindowE@Base 5.24.3-1
 _ZTVN8KWayland6Client12RemoteBufferE@Base 5.24.3-1
 _ZTVN8KWayland6Client12ShellSurfaceE@Base 5.24.3-1
 _ZTVN8KWayland6Client12SlideManagerE@Base 5.24.3-1
 _ZTVN8KWayland6Client13IdleInhibitorE@Base 5.24.3-1
 _ZTVN8KWayland6Client13LockedPointerE@Base 5.24.3-1
 _ZTVN8KWayland6Client13ShadowManagerE@Base 5.24.3-1
 _ZTVN8KWayland6Client13SubCompositorE@Base 5.24.3-1
 _ZTVN8KWayland6Client13XdgDecorationE@Base 5.24.3-1
 _ZTVN8KWayland6Client13XdgShellPopupE@Base 5.24.3-1
 _ZTVN8KWayland6Client14AppMenuManagerE@Base 5.24.3-1
 _ZTVN8KWayland6Client15ConfinedPointerE@Base 5.24.3-1
 _ZTVN8KWayland6Client15ContrastManagerE@Base 5.24.3-1
 _ZTVN8KWayland6Client15DDEShellSurfaceE@Base 5.24.3-1
 _ZTVN8KWayland6Client15FullscreenShellE@Base 5.24.3-1
 _ZTVN8KWayland6Client15PointerGesturesE@Base 5.24.3-1
 _ZTVN8KWayland6Client15RelativePointerE@Base 5.24.3-1
 _ZTVN8KWayland6Client15XdgShellSurfaceE@Base 5.24.3-1
 _ZTVN8KWayland6Client16ClientManagementE@Base 5.24.3-1
 _ZTVN8KWayland6Client16ConnectionThreadE@Base 5.24.3-1
 _ZTVN8KWayland6Client16OutputManagementE@Base 5.24.3-1
 _ZTVN8KWayland6Client16PlasmaActivationE@Base 5.24.3-1
 _ZTVN8KWayland6Client16TextInputManagerE@Base 5.24.3-1
 _ZTVN8KWayland6Client16XdgOutputManagerE@Base 5.24.3-1
 _ZTVN8KWayland6Client17DataDeviceManagerE@Base 5.24.3-1
 _ZTVN8KWayland6Client17PlasmaWindowModelE@Base 5.24.3-1
 _ZTVN8KWayland6Client18IdleInhibitManagerE@Base 5.24.3-1
 _ZTVN8KWayland6Client18PlasmaShellSurfaceE@Base 5.24.3-1
 _ZTVN8KWayland6Client18PointerConstraintsE@Base 5.24.3-1
 _ZTVN8KWayland6Client19OutputConfigurationE@Base 5.24.3-1
 _ZTVN8KWayland6Client19PointerPinchGestureE@Base 5.24.3-1
 _ZTVN8KWayland6Client19PointerSwipeGestureE@Base 5.24.3-1
 _ZTVN8KWayland6Client19RemoteAccessManagerE@Base 5.24.3-1
 _ZTVN8KWayland6Client20PlasmaVirtualDesktopE@Base 5.24.3-1
 _ZTVN8KWayland6Client20ServerSideDecorationE@Base 5.24.3-1
 _ZTVN8KWayland6Client20XdgDecorationManagerE@Base 5.24.3-1
 _ZTVN8KWayland6Client22PlasmaWindowManagementE@Base 5.24.3-1
 _ZTVN8KWayland6Client22RelativePointerManagerE@Base 5.24.3-1
 _ZTVN8KWayland6Client24PlasmaActivationFeedbackE@Base 5.24.3-1
 _ZTVN8KWayland6Client27ServerSideDecorationManagerE@Base 5.24.3-1
 _ZTVN8KWayland6Client27ServerSideDecorationPaletteE@Base 5.24.3-1
 _ZTVN8KWayland6Client30PlasmaVirtualDesktopManagementE@Base 5.24.3-1
 _ZTVN8KWayland6Client34ServerSideDecorationPaletteManagerE@Base 5.24.3-1
 _ZTVN8KWayland6Client4BlurE@Base 5.24.3-1
 _ZTVN8KWayland6Client4DpmsE@Base 5.24.3-1
 _ZTVN8KWayland6Client4IdleE@Base 5.24.3-1
 _ZTVN8KWayland6Client4SeatE@Base 5.24.3-1
 _ZTVN8KWayland6Client5ShellE@Base 5.24.3-1
 _ZTVN8KWayland6Client5SlideE@Base 5.24.3-1
 _ZTVN8KWayland6Client5StrutE@Base 5.24.3-1
 _ZTVN8KWayland6Client5TouchE@Base 5.24.3-1
 _ZTVN8KWayland6Client6OutputE@Base 5.24.3-1
 _ZTVN8KWayland6Client6RegionE@Base 5.24.3-1
 _ZTVN8KWayland6Client6ShadowE@Base 5.24.3-1
 _ZTVN8KWayland6Client7AppMenuE@Base 5.24.3-1
 _ZTVN8KWayland6Client7DDESeatE@Base 5.24.3-1
 _ZTVN8KWayland6Client7PointerE@Base 5.24.3-1
 _ZTVN8KWayland6Client7ShmPoolE@Base 5.24.3-1
 _ZTVN8KWayland6Client7SurfaceE@Base 5.24.3-1
 _ZTVN8KWayland6Client8ContrastE@Base 5.24.3-1
 _ZTVN8KWayland6Client8DDEShellE@Base 5.24.3-1
 _ZTVN8KWayland6Client8DDETouchE@Base 5.24.3-1
 _ZTVN8KWayland6Client8KeyboardE@Base 5.24.3-1
 _ZTVN8KWayland6Client8KeystateE@Base 5.24.3-1
 _ZTVN8KWayland6Client8RegistryE@Base 5.24.3-1
 _ZTVN8KWayland6Client8XdgShellE@Base 5.24.3-1
 _ZTVN8KWayland6Client9DataOfferE@Base 5.24.3-1
 _ZTVN8KWayland6Client9FakeInputE@Base 5.24.3-1
 _ZTVN8KWayland6Client9TextInputE@Base 5.24.3-1
 _ZTVN8KWayland6Client9XdgOutputE@Base 5.24.3-1
 _wl_fullscreen_shell_interface@Base 5.24.3-1
 _wl_fullscreen_shell_mode_feedback_interface@Base 5.24.3-1
 com_deepin_client_management_interface@Base 5.24.3-1
 com_deepin_kwin_strut_interface@Base 5.24.3-1
 dde_keyboard_interface@Base 5.24.3-1
 dde_pointer_interface@Base 5.24.3-1
 dde_seat_interface@Base 5.24.3-1
 dde_shell_interface@Base 5.24.3-1
 dde_shell_surface_interface@Base 5.24.3-1
 dde_touch_interface@Base 5.24.3-1
 org_kde_kwin_appmenu_interface@Base 5.24.3-1
 org_kde_kwin_appmenu_manager_interface@Base 5.24.3-1
 org_kde_kwin_blur_interface@Base 5.24.3-1
 org_kde_kwin_blur_manager_interface@Base 5.24.3-1
 org_kde_kwin_contrast_interface@Base 5.24.3-1
 org_kde_kwin_contrast_manager_interface@Base 5.24.3-1
 org_kde_kwin_dpms_interface@Base 5.24.3-1
 org_kde_kwin_dpms_manager_interface@Base 5.24.3-1
 org_kde_kwin_fake_input_interface@Base 5.24.3-1
 org_kde_kwin_idle_interface@Base 5.24.3-1
 org_kde_kwin_idle_timeout_interface@Base 5.24.3-1
 org_kde_kwin_keystate_interface@Base 5.24.3-1
 org_kde_kwin_outputconfiguration_interface@Base 5.24.3-1
 org_kde_kwin_outputdevice_interface@Base 5.24.3-1
 org_kde_kwin_outputmanagement_interface@Base 5.24.3-1
 org_kde_kwin_remote_access_manager_interface@Base 5.24.3-1
 org_kde_kwin_remote_buffer_interface@Base 5.24.3-1
 org_kde_kwin_server_decoration_interface@Base 5.24.3-1
 org_kde_kwin_server_decoration_manager_interface@Base 5.24.3-1
 org_kde_kwin_server_decoration_palette_interface@Base 5.24.3-1
 org_kde_kwin_server_decoration_palette_manager_interface@Base 5.24.3-1
 org_kde_kwin_shadow_interface@Base 5.24.3-1
 org_kde_kwin_shadow_manager_interface@Base 5.24.3-1
 org_kde_kwin_slide_interface@Base 5.24.3-1
 org_kde_kwin_slide_manager_interface@Base 5.24.3-1
 org_kde_plasma_activation_feedback_interface@Base 5.24.3-1
 org_kde_plasma_activation_interface@Base 5.24.3-1
 org_kde_plasma_shell_interface@Base 5.24.3-1
 org_kde_plasma_surface_interface@Base 5.24.3-1
 org_kde_plasma_virtual_desktop_interface@Base 5.24.3-1
 org_kde_plasma_virtual_desktop_management_interface@Base 5.24.3-1
 org_kde_plasma_window_interface@Base 5.24.3-1
 org_kde_plasma_window_management_interface@Base 5.24.3-1
 wl_text_input_interface@Base 5.24.3-1
 wl_text_input_manager_interface@Base 5.24.3-1
 xdg_popup_interface@Base 5.24.3-1
 xdg_positioner_interface@Base 5.24.3-1
 xdg_surface_interface@Base 5.24.3-1
 xdg_toplevel_interface@Base 5.24.3-1
 xdg_wm_base_interface@Base 5.24.3-1
 zwp_confined_pointer_v1_interface@Base 5.24.3-1
 zwp_idle_inhibit_manager_v1_interface@Base 5.24.3-1
 zwp_idle_inhibitor_v1_interface@Base 5.24.3-1
 zwp_locked_pointer_v1_interface@Base 5.24.3-1
 zwp_pointer_constraints_v1_interface@Base 5.24.3-1
 zwp_pointer_gesture_hold_v1_interface@Base 5.24.3-1
 zwp_pointer_gesture_pinch_v1_interface@Base 5.24.3-1
 zwp_pointer_gesture_swipe_v1_interface@Base 5.24.3-1
 zwp_pointer_gestures_v1_interface@Base 5.24.3-1
 zwp_relative_pointer_manager_v1_interface@Base 5.24.3-1
 zwp_relative_pointer_v1_interface@Base 5.24.3-1
 zwp_text_input_manager_v2_interface@Base 5.24.3-1
 zwp_text_input_v2_interface@Base 5.24.3-1
 zxdg_decoration_manager_v1_interface@Base 5.24.3-1
 zxdg_exported_v2_interface@Base 5.24.3-1
 zxdg_exporter_v2_interface@Base 5.24.3-1
 zxdg_imported_v2_interface@Base 5.24.3-1
 zxdg_importer_v2_interface@Base 5.24.3-1
 zxdg_output_manager_v1_interface@Base 5.24.3-1
 zxdg_output_v1_interface@Base 5.24.3-1
 zxdg_popup_v5_interface@Base 5.24.3-1
 zxdg_popup_v6_interface@Base 5.24.3-1
 zxdg_positioner_v6_interface@Base 5.24.3-1
 zxdg_shell_v5_interface@Base 5.24.3-1
 zxdg_shell_v6_interface@Base 5.24.3-1
 zxdg_surface_v5_interface@Base 5.24.3-1
 zxdg_surface_v6_interface@Base 5.24.3-1
 zxdg_toplevel_decoration_v1_interface@Base 5.24.3-1
 zxdg_toplevel_v6_interface@Base 5.24.3-1