# SymbolsHelper-Confirmed: 5.10.0 amd64
libKF5GlobalAccel.so.5 libkf5globalaccel5 #MINVER#, libkf5globalaccel-bin
 _ZN12KGlobalAccel10setEnabledEb@Base 4.96.0
 _ZN12KGlobalAccel11eventFilterEP7QObjectP6QEvent@Base 4.96.0
 _ZN12KGlobalAccel11qt_metacallEN11QMetaObject4CallEiPPv@Base 4.96.0
 _ZN12KGlobalAccel11qt_metacastEPKc@Base 4.96.0
 _ZN12KGlobalAccel11setShortcutEP7QActionRK5QListI12QKeySequenceENS_21GlobalShortcutLoadingE@Base 4.96.0
 _ZN12KGlobalAccel12getComponentERK7QString@Base 4.96.0
 _ZN12KGlobalAccel14cleanComponentERK7QString@Base 4.96.0
 _ZN12KGlobalAccel16staticMetaObjectE@Base 4.96.0
 _ZN12KGlobalAccel17allMainComponentsEv@Base 4.96.0
 _ZN12KGlobalAccel17isComponentActiveERK7QString@Base 4.96.0
 _ZN12KGlobalAccel17setGlobalShortcutEP7QActionRK12QKeySequence@Base 5.0.0
 _ZN12KGlobalAccel17setGlobalShortcutEP7QActionRK5QListI12QKeySequenceE@Base 5.0.0
 _ZN12KGlobalAccel18removeAllShortcutsEP7QAction@Base 4.96.0
 _ZN12KGlobalAccel18setDefaultShortcutEP7QActionRK5QListI12QKeySequenceENS_21GlobalShortcutLoadingE@Base 4.96.0
 _ZN12KGlobalAccel21globalShortcutChangedEP7QActionRK12QKeySequence@Base 4.96.0
 _ZN12KGlobalAccel22allActionsForComponentERK11QStringList@Base 4.96.0
 _ZN12KGlobalAccel23getGlobalShortcutsByKeyERK12QKeySequence@Base 4.96.0
 _ZN12KGlobalAccel23stealShortcutSystemwideERK12QKeySequence@Base 4.96.0
 _ZN12KGlobalAccel24findActionNameSystemwideERK12QKeySequence@Base 4.96.0
 _ZN12KGlobalAccel25isGlobalShortcutAvailableERK12QKeySequenceRK7QString@Base 4.96.0
 _ZN12KGlobalAccel29activateGlobalShortcutContextERK7QStringS2_S2_@Base 4.96.0
 _ZN12KGlobalAccel29promptStealShortcutSystemwideEP7QWidgetRK11QStringListRK12QKeySequence@Base 4.96.0
 _ZN12KGlobalAccel29promptStealShortcutSystemwideEP7QWidgetRK5QListI19KGlobalShortcutInfoERK12QKeySequence@Base 4.96.0
 _ZN12KGlobalAccel4selfEv@Base 4.96.0
 _ZN12KGlobalAccelC1Ev@Base 4.96.0
 _ZN12KGlobalAccelC2Ev@Base 4.96.0
 _ZN12KGlobalAccelD0Ev@Base 4.96.0
 _ZN12KGlobalAccelD1Ev@Base 4.96.0
 _ZN12KGlobalAccelD2Ev@Base 4.96.0
 _ZN19KGlobalShortcutInfo11qt_metacallEN11QMetaObject4CallEiPPv@Base 4.96.0
 _ZN19KGlobalShortcutInfo11qt_metacastEPKc@Base 4.96.0
 _ZN19KGlobalShortcutInfo16staticMetaObjectE@Base 4.96.0
 _ZN19KGlobalShortcutInfoC1ERKS_@Base 4.96.0
 _ZN19KGlobalShortcutInfoC1Ev@Base 4.96.0
 _ZN19KGlobalShortcutInfoC2ERKS_@Base 4.96.0
 _ZN19KGlobalShortcutInfoC2Ev@Base 4.96.0
 _ZN19KGlobalShortcutInfoD0Ev@Base 4.96.0
 _ZN19KGlobalShortcutInfoD1Ev@Base 4.96.0
 _ZN19KGlobalShortcutInfoD2Ev@Base 4.96.0
 _ZN19KGlobalShortcutInfoaSERKS_@Base 4.96.0
 _ZNK12KGlobalAccel10metaObjectEv@Base 4.96.0
 _ZNK12KGlobalAccel11hasShortcutEPK7QAction@Base 4.96.0
 _ZNK12KGlobalAccel14globalShortcutERK7QStringS2_@Base 5.10.0
 _ZNK12KGlobalAccel15defaultShortcutEPK7QAction@Base 4.96.0
 _ZNK12KGlobalAccel8shortcutEPK7QAction@Base 4.96.0
 _ZNK12KGlobalAccel9isEnabledEv@Base 4.96.0
 _ZNK19KGlobalShortcutInfo10metaObjectEv@Base 4.96.0
 _ZNK19KGlobalShortcutInfo10uniqueNameEv@Base 4.96.0
 _ZNK19KGlobalShortcutInfo11defaultKeysEv@Base 4.96.0
 _ZNK19KGlobalShortcutInfo12friendlyNameEv@Base 4.96.0
 _ZNK19KGlobalShortcutInfo17contextUniqueNameEv@Base 4.96.0
 _ZNK19KGlobalShortcutInfo19componentUniqueNameEv@Base 4.96.0
 _ZNK19KGlobalShortcutInfo19contextFriendlyNameEv@Base 4.96.0
 _ZNK19KGlobalShortcutInfo21componentFriendlyNameEv@Base 4.96.0
 _ZNK19KGlobalShortcutInfo4keysEv@Base 4.96.0
 _ZTI12KGlobalAccel@Base 4.96.0
 _ZTI19KGlobalShortcutInfo@Base 4.96.0
 _ZTS12KGlobalAccel@Base 4.96.0
 _ZTS19KGlobalShortcutInfo@Base 4.96.0
 _ZTV12KGlobalAccel@Base 4.96.0
 _ZTV19KGlobalShortcutInfo@Base 4.96.0
 _ZlsR13QDBusArgumentRK19KGlobalShortcutInfo@Base 4.96.0
 _ZrsRK13QDBusArgumentR19KGlobalShortcutInfo@Base 4.96.0
