# SymbolsHelper-Confirmed: 5.11.0+git amd64
libKF5GlobalAccelPrivate.so.5 libkf5globalaccelprivate5 #MINVER#
 _ZN13KGlobalAccelD10doRegisterERK11QStringList@Base 5.11.0+git
 _ZN13KGlobalAccelD10unRegisterERK11QStringList@Base 5.11.0+git
 _ZN13KGlobalAccelD10unregisterERK7QStringS2_@Base 5.11.0+git
 _ZN13KGlobalAccelD11qt_metacallEN11QMetaObject4CallEiPPv@Base 5.11.0+git
 _ZN13KGlobalAccelD11qt_metacastEPKc@Base 5.11.0+git
 _ZN13KGlobalAccelD11setInactiveERK11QStringList@Base 5.11.0+git
 _ZN13KGlobalAccelD11setShortcutERK11QStringListRK5QListIiEj@Base 5.11.0+git
 _ZN13KGlobalAccelD16staticMetaObjectE@Base 5.11.0+git
 _ZN13KGlobalAccelD18setForeignShortcutERK11QStringListRK5QListIiE@Base 5.11.0+git
 _ZN13KGlobalAccelD20blockGlobalShortcutsEb@Base 5.11.0+git
 _ZN13KGlobalAccelD22yourShortcutGotChangedERK11QStringListRK5QListIiE@Base 5.11.0+git
 _ZN13KGlobalAccelD29activateGlobalShortcutContextERK7QStringS2_@Base 5.11.0+git
 _ZN13KGlobalAccelD4initEv@Base 5.11.0+git
 _ZN13KGlobalAccelDC1EP7QObject@Base 5.11.0+git
 _ZN13KGlobalAccelDC2EP7QObject@Base 5.11.0+git
 _ZN13KGlobalAccelDD0Ev@Base 5.11.0+git
 _ZN13KGlobalAccelDD1Ev@Base 5.11.0+git
 _ZN13KGlobalAccelDD2Ev@Base 5.11.0+git
 _ZN21KGlobalAccelInterface10keyPressedEi@Base 5.11.0+git
 _ZN21KGlobalAccelInterface10ungrabKeysEv@Base 5.11.0+git
 _ZN21KGlobalAccelInterface11qt_metacallEN11QMetaObject4CallEiPPv@Base 5.11.0+git
 _ZN21KGlobalAccelInterface11qt_metacastEPKc@Base 5.11.0+git
 _ZN21KGlobalAccelInterface11setRegistryEP23GlobalShortcutsRegistry@Base 5.11.0+git
 _ZN21KGlobalAccelInterface16staticMetaObjectE@Base 5.11.0+git
 _ZN21KGlobalAccelInterface19syncWindowingSystemEv@Base 5.11.0+git
 _ZN21KGlobalAccelInterface8grabKeysEv@Base 5.11.0+git
 _ZN21KGlobalAccelInterfaceC1EP7QObject@Base 5.11.0+git
 _ZN21KGlobalAccelInterfaceC2EP7QObject@Base 5.11.0+git
 _ZN21KGlobalAccelInterfaceD0Ev@Base 5.11.0+git
 _ZN21KGlobalAccelInterfaceD1Ev@Base 5.11.0+git
 _ZN21KGlobalAccelInterfaceD2Ev@Base 5.11.0+git
 _ZNK13KGlobalAccelD10metaObjectEv@Base 5.11.0+git
 _ZNK13KGlobalAccelD12getComponentERK7QString@Base 5.11.0+git
 _ZNK13KGlobalAccelD13allComponentsEv@Base 5.11.0+git
 _ZNK13KGlobalAccelD15defaultShortcutERK11QStringList@Base 5.11.0+git
 _ZNK13KGlobalAccelD17allMainComponentsEv@Base 5.11.0+git
 _ZNK13KGlobalAccelD21scheduleWriteSettingsEv@Base 5.11.0+git
 _ZNK13KGlobalAccelD22allActionsForComponentERK11QStringList@Base 5.11.0+git
 _ZNK13KGlobalAccelD23getGlobalShortcutsByKeyEi@Base 5.11.0+git
 _ZNK13KGlobalAccelD25isGlobalShortcutAvailableEiRK7QString@Base 5.11.0+git
 _ZNK13KGlobalAccelD6actionEi@Base 5.11.0+git
 _ZNK13KGlobalAccelD8shortcutERK11QStringList@Base 5.11.0+git
 _ZNK21KGlobalAccelInterface10metaObjectEv@Base 5.11.0+git
 _ZTI12QDBusContext@Base 5.11.0+git
 _ZTI13KGlobalAccelD@Base 5.11.0+git
 _ZTI21KGlobalAccelInterface@Base 5.11.0+git
 _ZTS12QDBusContext@Base 5.11.0+git
 _ZTS13KGlobalAccelD@Base 5.11.0+git
 _ZTS21KGlobalAccelInterface@Base 5.11.0+git
 _ZTV13KGlobalAccelD@Base 5.11.0+git
 _ZTV21KGlobalAccelInterface@Base 5.11.0+git
